
f051bldc.elf:     file format elf32-littlearm

Sections:
Idx Name          Size      VMA       LMA       File off  Algn
  0 .isr_vector   000000c0  08000000  08000000  00010000  2**0
                  CONTENTS, ALLOC, LOAD, READONLY, DATA
  1 .text         00003f84  080000c0  080000c0  000100c0  2**2
                  CONTENTS, ALLOC, LOAD, READONLY, CODE
  2 .rodata       0000004c  08004044  08004044  00014044  2**0
                  CONTENTS, ALLOC, LOAD, READONLY, DATA
  3 .init_array   00000004  08004090  08004090  00014090  2**2
                  CONTENTS, ALLOC, LOAD, DATA
  4 .fini_array   00000004  08004094  08004094  00014094  2**2
                  CONTENTS, ALLOC, LOAD, DATA
  5 .data         00000064  20000000  08004098  00020000  2**2
                  CONTENTS, ALLOC, LOAD, DATA
  6 .bss          0000045c  20000068  080040fc  00020068  2**3
                  ALLOC
  7 ._user_heap_stack 00000600  200004c4  080040fc  000204c4  2**0
                  ALLOC
  8 .ARM.attributes 00000028  00000000  00000000  00020064  2**0
                  CONTENTS, READONLY
  9 .comment      0000007c  00000000  00000000  0002008c  2**0
                  CONTENTS, READONLY
 10 .debug_frame  00000094  00000000  00000000  00020108  2**2
                  CONTENTS, READONLY, DEBUGGING

Disassembly of section .text:

080000c0 <__do_global_dtors_aux>:
 80000c0:	b510      	push	{r4, lr}
 80000c2:	4c06      	ldr	r4, [pc, #24]	; (80000dc <__do_global_dtors_aux+0x1c>)
 80000c4:	7823      	ldrb	r3, [r4, #0]
 80000c6:	2b00      	cmp	r3, #0
 80000c8:	d107      	bne.n	80000da <__do_global_dtors_aux+0x1a>
 80000ca:	4b05      	ldr	r3, [pc, #20]	; (80000e0 <__do_global_dtors_aux+0x20>)
 80000cc:	2b00      	cmp	r3, #0
 80000ce:	d002      	beq.n	80000d6 <__do_global_dtors_aux+0x16>
 80000d0:	4804      	ldr	r0, [pc, #16]	; (80000e4 <__do_global_dtors_aux+0x24>)
 80000d2:	e000      	b.n	80000d6 <__do_global_dtors_aux+0x16>
 80000d4:	bf00      	nop
 80000d6:	2301      	movs	r3, #1
 80000d8:	7023      	strb	r3, [r4, #0]
 80000da:	bd10      	pop	{r4, pc}
 80000dc:	20000068 	.word	0x20000068
 80000e0:	00000000 	.word	0x00000000
 80000e4:	0800402c 	.word	0x0800402c

080000e8 <frame_dummy>:
 80000e8:	4b04      	ldr	r3, [pc, #16]	; (80000fc <frame_dummy+0x14>)
 80000ea:	b510      	push	{r4, lr}
 80000ec:	2b00      	cmp	r3, #0
 80000ee:	d003      	beq.n	80000f8 <frame_dummy+0x10>
 80000f0:	4903      	ldr	r1, [pc, #12]	; (8000100 <frame_dummy+0x18>)
 80000f2:	4804      	ldr	r0, [pc, #16]	; (8000104 <frame_dummy+0x1c>)
 80000f4:	e000      	b.n	80000f8 <frame_dummy+0x10>
 80000f6:	bf00      	nop
 80000f8:	bd10      	pop	{r4, pc}
 80000fa:	46c0      	nop			; (mov r8, r8)
 80000fc:	00000000 	.word	0x00000000
 8000100:	2000006c 	.word	0x2000006c
 8000104:	0800402c 	.word	0x0800402c

08000108 <__gnu_thumb1_case_uqi>:
 8000108:	b402      	push	{r1}
 800010a:	4671      	mov	r1, lr
 800010c:	0849      	lsrs	r1, r1, #1
 800010e:	0049      	lsls	r1, r1, #1
 8000110:	5c09      	ldrb	r1, [r1, r0]
 8000112:	0049      	lsls	r1, r1, #1
 8000114:	448e      	add	lr, r1
 8000116:	bc02      	pop	{r1}
 8000118:	4770      	bx	lr
 800011a:	46c0      	nop			; (mov r8, r8)

0800011c <__udivsi3>:
 800011c:	2200      	movs	r2, #0
 800011e:	0843      	lsrs	r3, r0, #1
 8000120:	428b      	cmp	r3, r1
 8000122:	d374      	bcc.n	800020e <__udivsi3+0xf2>
 8000124:	0903      	lsrs	r3, r0, #4
 8000126:	428b      	cmp	r3, r1
 8000128:	d35f      	bcc.n	80001ea <__udivsi3+0xce>
 800012a:	0a03      	lsrs	r3, r0, #8
 800012c:	428b      	cmp	r3, r1
 800012e:	d344      	bcc.n	80001ba <__udivsi3+0x9e>
 8000130:	0b03      	lsrs	r3, r0, #12
 8000132:	428b      	cmp	r3, r1
 8000134:	d328      	bcc.n	8000188 <__udivsi3+0x6c>
 8000136:	0c03      	lsrs	r3, r0, #16
 8000138:	428b      	cmp	r3, r1
 800013a:	d30d      	bcc.n	8000158 <__udivsi3+0x3c>
 800013c:	22ff      	movs	r2, #255	; 0xff
 800013e:	0209      	lsls	r1, r1, #8
 8000140:	ba12      	rev	r2, r2
 8000142:	0c03      	lsrs	r3, r0, #16
 8000144:	428b      	cmp	r3, r1
 8000146:	d302      	bcc.n	800014e <__udivsi3+0x32>
 8000148:	1212      	asrs	r2, r2, #8
 800014a:	0209      	lsls	r1, r1, #8
 800014c:	d065      	beq.n	800021a <__udivsi3+0xfe>
 800014e:	0b03      	lsrs	r3, r0, #12
 8000150:	428b      	cmp	r3, r1
 8000152:	d319      	bcc.n	8000188 <__udivsi3+0x6c>
 8000154:	e000      	b.n	8000158 <__udivsi3+0x3c>
 8000156:	0a09      	lsrs	r1, r1, #8
 8000158:	0bc3      	lsrs	r3, r0, #15
 800015a:	428b      	cmp	r3, r1
 800015c:	d301      	bcc.n	8000162 <__udivsi3+0x46>
 800015e:	03cb      	lsls	r3, r1, #15
 8000160:	1ac0      	subs	r0, r0, r3
 8000162:	4152      	adcs	r2, r2
 8000164:	0b83      	lsrs	r3, r0, #14
 8000166:	428b      	cmp	r3, r1
 8000168:	d301      	bcc.n	800016e <__udivsi3+0x52>
 800016a:	038b      	lsls	r3, r1, #14
 800016c:	1ac0      	subs	r0, r0, r3
 800016e:	4152      	adcs	r2, r2
 8000170:	0b43      	lsrs	r3, r0, #13
 8000172:	428b      	cmp	r3, r1
 8000174:	d301      	bcc.n	800017a <__udivsi3+0x5e>
 8000176:	034b      	lsls	r3, r1, #13
 8000178:	1ac0      	subs	r0, r0, r3
 800017a:	4152      	adcs	r2, r2
 800017c:	0b03      	lsrs	r3, r0, #12
 800017e:	428b      	cmp	r3, r1
 8000180:	d301      	bcc.n	8000186 <__udivsi3+0x6a>
 8000182:	030b      	lsls	r3, r1, #12
 8000184:	1ac0      	subs	r0, r0, r3
 8000186:	4152      	adcs	r2, r2
 8000188:	0ac3      	lsrs	r3, r0, #11
 800018a:	428b      	cmp	r3, r1
 800018c:	d301      	bcc.n	8000192 <__udivsi3+0x76>
 800018e:	02cb      	lsls	r3, r1, #11
 8000190:	1ac0      	subs	r0, r0, r3
 8000192:	4152      	adcs	r2, r2
 8000194:	0a83      	lsrs	r3, r0, #10
 8000196:	428b      	cmp	r3, r1
 8000198:	d301      	bcc.n	800019e <__udivsi3+0x82>
 800019a:	028b      	lsls	r3, r1, #10
 800019c:	1ac0      	subs	r0, r0, r3
 800019e:	4152      	adcs	r2, r2
 80001a0:	0a43      	lsrs	r3, r0, #9
 80001a2:	428b      	cmp	r3, r1
 80001a4:	d301      	bcc.n	80001aa <__udivsi3+0x8e>
 80001a6:	024b      	lsls	r3, r1, #9
 80001a8:	1ac0      	subs	r0, r0, r3
 80001aa:	4152      	adcs	r2, r2
 80001ac:	0a03      	lsrs	r3, r0, #8
 80001ae:	428b      	cmp	r3, r1
 80001b0:	d301      	bcc.n	80001b6 <__udivsi3+0x9a>
 80001b2:	020b      	lsls	r3, r1, #8
 80001b4:	1ac0      	subs	r0, r0, r3
 80001b6:	4152      	adcs	r2, r2
 80001b8:	d2cd      	bcs.n	8000156 <__udivsi3+0x3a>
 80001ba:	09c3      	lsrs	r3, r0, #7
 80001bc:	428b      	cmp	r3, r1
 80001be:	d301      	bcc.n	80001c4 <__udivsi3+0xa8>
 80001c0:	01cb      	lsls	r3, r1, #7
 80001c2:	1ac0      	subs	r0, r0, r3
 80001c4:	4152      	adcs	r2, r2
 80001c6:	0983      	lsrs	r3, r0, #6
 80001c8:	428b      	cmp	r3, r1
 80001ca:	d301      	bcc.n	80001d0 <__udivsi3+0xb4>
 80001cc:	018b      	lsls	r3, r1, #6
 80001ce:	1ac0      	subs	r0, r0, r3
 80001d0:	4152      	adcs	r2, r2
 80001d2:	0943      	lsrs	r3, r0, #5
 80001d4:	428b      	cmp	r3, r1
 80001d6:	d301      	bcc.n	80001dc <__udivsi3+0xc0>
 80001d8:	014b      	lsls	r3, r1, #5
 80001da:	1ac0      	subs	r0, r0, r3
 80001dc:	4152      	adcs	r2, r2
 80001de:	0903      	lsrs	r3, r0, #4
 80001e0:	428b      	cmp	r3, r1
 80001e2:	d301      	bcc.n	80001e8 <__udivsi3+0xcc>
 80001e4:	010b      	lsls	r3, r1, #4
 80001e6:	1ac0      	subs	r0, r0, r3
 80001e8:	4152      	adcs	r2, r2
 80001ea:	08c3      	lsrs	r3, r0, #3
 80001ec:	428b      	cmp	r3, r1
 80001ee:	d301      	bcc.n	80001f4 <__udivsi3+0xd8>
 80001f0:	00cb      	lsls	r3, r1, #3
 80001f2:	1ac0      	subs	r0, r0, r3
 80001f4:	4152      	adcs	r2, r2
 80001f6:	0883      	lsrs	r3, r0, #2
 80001f8:	428b      	cmp	r3, r1
 80001fa:	d301      	bcc.n	8000200 <__udivsi3+0xe4>
 80001fc:	008b      	lsls	r3, r1, #2
 80001fe:	1ac0      	subs	r0, r0, r3
 8000200:	4152      	adcs	r2, r2
 8000202:	0843      	lsrs	r3, r0, #1
 8000204:	428b      	cmp	r3, r1
 8000206:	d301      	bcc.n	800020c <__udivsi3+0xf0>
 8000208:	004b      	lsls	r3, r1, #1
 800020a:	1ac0      	subs	r0, r0, r3
 800020c:	4152      	adcs	r2, r2
 800020e:	1a41      	subs	r1, r0, r1
 8000210:	d200      	bcs.n	8000214 <__udivsi3+0xf8>
 8000212:	4601      	mov	r1, r0
 8000214:	4152      	adcs	r2, r2
 8000216:	4610      	mov	r0, r2
 8000218:	4770      	bx	lr
 800021a:	e7ff      	b.n	800021c <__udivsi3+0x100>
 800021c:	b501      	push	{r0, lr}
 800021e:	2000      	movs	r0, #0
 8000220:	f000 f8f0 	bl	8000404 <__aeabi_idiv0>
 8000224:	bd02      	pop	{r1, pc}
 8000226:	46c0      	nop			; (mov r8, r8)

08000228 <__aeabi_uidivmod>:
 8000228:	2900      	cmp	r1, #0
 800022a:	d0f7      	beq.n	800021c <__udivsi3+0x100>
 800022c:	e776      	b.n	800011c <__udivsi3>
 800022e:	4770      	bx	lr

08000230 <__divsi3>:
 8000230:	4603      	mov	r3, r0
 8000232:	430b      	orrs	r3, r1
 8000234:	d47f      	bmi.n	8000336 <__divsi3+0x106>
 8000236:	2200      	movs	r2, #0
 8000238:	0843      	lsrs	r3, r0, #1
 800023a:	428b      	cmp	r3, r1
 800023c:	d374      	bcc.n	8000328 <__divsi3+0xf8>
 800023e:	0903      	lsrs	r3, r0, #4
 8000240:	428b      	cmp	r3, r1
 8000242:	d35f      	bcc.n	8000304 <__divsi3+0xd4>
 8000244:	0a03      	lsrs	r3, r0, #8
 8000246:	428b      	cmp	r3, r1
 8000248:	d344      	bcc.n	80002d4 <__divsi3+0xa4>
 800024a:	0b03      	lsrs	r3, r0, #12
 800024c:	428b      	cmp	r3, r1
 800024e:	d328      	bcc.n	80002a2 <__divsi3+0x72>
 8000250:	0c03      	lsrs	r3, r0, #16
 8000252:	428b      	cmp	r3, r1
 8000254:	d30d      	bcc.n	8000272 <__divsi3+0x42>
 8000256:	22ff      	movs	r2, #255	; 0xff
 8000258:	0209      	lsls	r1, r1, #8
 800025a:	ba12      	rev	r2, r2
 800025c:	0c03      	lsrs	r3, r0, #16
 800025e:	428b      	cmp	r3, r1
 8000260:	d302      	bcc.n	8000268 <__divsi3+0x38>
 8000262:	1212      	asrs	r2, r2, #8
 8000264:	0209      	lsls	r1, r1, #8
 8000266:	d065      	beq.n	8000334 <__divsi3+0x104>
 8000268:	0b03      	lsrs	r3, r0, #12
 800026a:	428b      	cmp	r3, r1
 800026c:	d319      	bcc.n	80002a2 <__divsi3+0x72>
 800026e:	e000      	b.n	8000272 <__divsi3+0x42>
 8000270:	0a09      	lsrs	r1, r1, #8
 8000272:	0bc3      	lsrs	r3, r0, #15
 8000274:	428b      	cmp	r3, r1
 8000276:	d301      	bcc.n	800027c <__divsi3+0x4c>
 8000278:	03cb      	lsls	r3, r1, #15
 800027a:	1ac0      	subs	r0, r0, r3
 800027c:	4152      	adcs	r2, r2
 800027e:	0b83      	lsrs	r3, r0, #14
 8000280:	428b      	cmp	r3, r1
 8000282:	d301      	bcc.n	8000288 <__divsi3+0x58>
 8000284:	038b      	lsls	r3, r1, #14
 8000286:	1ac0      	subs	r0, r0, r3
 8000288:	4152      	adcs	r2, r2
 800028a:	0b43      	lsrs	r3, r0, #13
 800028c:	428b      	cmp	r3, r1
 800028e:	d301      	bcc.n	8000294 <__divsi3+0x64>
 8000290:	034b      	lsls	r3, r1, #13
 8000292:	1ac0      	subs	r0, r0, r3
 8000294:	4152      	adcs	r2, r2
 8000296:	0b03      	lsrs	r3, r0, #12
 8000298:	428b      	cmp	r3, r1
 800029a:	d301      	bcc.n	80002a0 <__divsi3+0x70>
 800029c:	030b      	lsls	r3, r1, #12
 800029e:	1ac0      	subs	r0, r0, r3
 80002a0:	4152      	adcs	r2, r2
 80002a2:	0ac3      	lsrs	r3, r0, #11
 80002a4:	428b      	cmp	r3, r1
 80002a6:	d301      	bcc.n	80002ac <__divsi3+0x7c>
 80002a8:	02cb      	lsls	r3, r1, #11
 80002aa:	1ac0      	subs	r0, r0, r3
 80002ac:	4152      	adcs	r2, r2
 80002ae:	0a83      	lsrs	r3, r0, #10
 80002b0:	428b      	cmp	r3, r1
 80002b2:	d301      	bcc.n	80002b8 <__divsi3+0x88>
 80002b4:	028b      	lsls	r3, r1, #10
 80002b6:	1ac0      	subs	r0, r0, r3
 80002b8:	4152      	adcs	r2, r2
 80002ba:	0a43      	lsrs	r3, r0, #9
 80002bc:	428b      	cmp	r3, r1
 80002be:	d301      	bcc.n	80002c4 <__divsi3+0x94>
 80002c0:	024b      	lsls	r3, r1, #9
 80002c2:	1ac0      	subs	r0, r0, r3
 80002c4:	4152      	adcs	r2, r2
 80002c6:	0a03      	lsrs	r3, r0, #8
 80002c8:	428b      	cmp	r3, r1
 80002ca:	d301      	bcc.n	80002d0 <__divsi3+0xa0>
 80002cc:	020b      	lsls	r3, r1, #8
 80002ce:	1ac0      	subs	r0, r0, r3
 80002d0:	4152      	adcs	r2, r2
 80002d2:	d2cd      	bcs.n	8000270 <__divsi3+0x40>
 80002d4:	09c3      	lsrs	r3, r0, #7
 80002d6:	428b      	cmp	r3, r1
 80002d8:	d301      	bcc.n	80002de <__divsi3+0xae>
 80002da:	01cb      	lsls	r3, r1, #7
 80002dc:	1ac0      	subs	r0, r0, r3
 80002de:	4152      	adcs	r2, r2
 80002e0:	0983      	lsrs	r3, r0, #6
 80002e2:	428b      	cmp	r3, r1
 80002e4:	d301      	bcc.n	80002ea <__divsi3+0xba>
 80002e6:	018b      	lsls	r3, r1, #6
 80002e8:	1ac0      	subs	r0, r0, r3
 80002ea:	4152      	adcs	r2, r2
 80002ec:	0943      	lsrs	r3, r0, #5
 80002ee:	428b      	cmp	r3, r1
 80002f0:	d301      	bcc.n	80002f6 <__divsi3+0xc6>
 80002f2:	014b      	lsls	r3, r1, #5
 80002f4:	1ac0      	subs	r0, r0, r3
 80002f6:	4152      	adcs	r2, r2
 80002f8:	0903      	lsrs	r3, r0, #4
 80002fa:	428b      	cmp	r3, r1
 80002fc:	d301      	bcc.n	8000302 <__divsi3+0xd2>
 80002fe:	010b      	lsls	r3, r1, #4
 8000300:	1ac0      	subs	r0, r0, r3
 8000302:	4152      	adcs	r2, r2
 8000304:	08c3      	lsrs	r3, r0, #3
 8000306:	428b      	cmp	r3, r1
 8000308:	d301      	bcc.n	800030e <__divsi3+0xde>
 800030a:	00cb      	lsls	r3, r1, #3
 800030c:	1ac0      	subs	r0, r0, r3
 800030e:	4152      	adcs	r2, r2
 8000310:	0883      	lsrs	r3, r0, #2
 8000312:	428b      	cmp	r3, r1
 8000314:	d301      	bcc.n	800031a <__divsi3+0xea>
 8000316:	008b      	lsls	r3, r1, #2
 8000318:	1ac0      	subs	r0, r0, r3
 800031a:	4152      	adcs	r2, r2
 800031c:	0843      	lsrs	r3, r0, #1
 800031e:	428b      	cmp	r3, r1
 8000320:	d301      	bcc.n	8000326 <__divsi3+0xf6>
 8000322:	004b      	lsls	r3, r1, #1
 8000324:	1ac0      	subs	r0, r0, r3
 8000326:	4152      	adcs	r2, r2
 8000328:	1a41      	subs	r1, r0, r1
 800032a:	d200      	bcs.n	800032e <__divsi3+0xfe>
 800032c:	4601      	mov	r1, r0
 800032e:	4152      	adcs	r2, r2
 8000330:	4610      	mov	r0, r2
 8000332:	4770      	bx	lr
 8000334:	e05d      	b.n	80003f2 <__divsi3+0x1c2>
 8000336:	0fca      	lsrs	r2, r1, #31
 8000338:	d000      	beq.n	800033c <__divsi3+0x10c>
 800033a:	4249      	negs	r1, r1
 800033c:	1003      	asrs	r3, r0, #32
 800033e:	d300      	bcc.n	8000342 <__divsi3+0x112>
 8000340:	4240      	negs	r0, r0
 8000342:	4053      	eors	r3, r2
 8000344:	2200      	movs	r2, #0
 8000346:	469c      	mov	ip, r3
 8000348:	0903      	lsrs	r3, r0, #4
 800034a:	428b      	cmp	r3, r1
 800034c:	d32d      	bcc.n	80003aa <__divsi3+0x17a>
 800034e:	0a03      	lsrs	r3, r0, #8
 8000350:	428b      	cmp	r3, r1
 8000352:	d312      	bcc.n	800037a <__divsi3+0x14a>
 8000354:	22fc      	movs	r2, #252	; 0xfc
 8000356:	0189      	lsls	r1, r1, #6
 8000358:	ba12      	rev	r2, r2
 800035a:	0a03      	lsrs	r3, r0, #8
 800035c:	428b      	cmp	r3, r1
 800035e:	d30c      	bcc.n	800037a <__divsi3+0x14a>
 8000360:	0189      	lsls	r1, r1, #6
 8000362:	1192      	asrs	r2, r2, #6
 8000364:	428b      	cmp	r3, r1
 8000366:	d308      	bcc.n	800037a <__divsi3+0x14a>
 8000368:	0189      	lsls	r1, r1, #6
 800036a:	1192      	asrs	r2, r2, #6
 800036c:	428b      	cmp	r3, r1
 800036e:	d304      	bcc.n	800037a <__divsi3+0x14a>
 8000370:	0189      	lsls	r1, r1, #6
 8000372:	d03a      	beq.n	80003ea <__divsi3+0x1ba>
 8000374:	1192      	asrs	r2, r2, #6
 8000376:	e000      	b.n	800037a <__divsi3+0x14a>
 8000378:	0989      	lsrs	r1, r1, #6
 800037a:	09c3      	lsrs	r3, r0, #7
 800037c:	428b      	cmp	r3, r1
 800037e:	d301      	bcc.n	8000384 <__divsi3+0x154>
 8000380:	01cb      	lsls	r3, r1, #7
 8000382:	1ac0      	subs	r0, r0, r3
 8000384:	4152      	adcs	r2, r2
 8000386:	0983      	lsrs	r3, r0, #6
 8000388:	428b      	cmp	r3, r1
 800038a:	d301      	bcc.n	8000390 <__divsi3+0x160>
 800038c:	018b      	lsls	r3, r1, #6
 800038e:	1ac0      	subs	r0, r0, r3
 8000390:	4152      	adcs	r2, r2
 8000392:	0943      	lsrs	r3, r0, #5
 8000394:	428b      	cmp	r3, r1
 8000396:	d301      	bcc.n	800039c <__divsi3+0x16c>
 8000398:	014b      	lsls	r3, r1, #5
 800039a:	1ac0      	subs	r0, r0, r3
 800039c:	4152      	adcs	r2, r2
 800039e:	0903      	lsrs	r3, r0, #4
 80003a0:	428b      	cmp	r3, r1
 80003a2:	d301      	bcc.n	80003a8 <__divsi3+0x178>
 80003a4:	010b      	lsls	r3, r1, #4
 80003a6:	1ac0      	subs	r0, r0, r3
 80003a8:	4152      	adcs	r2, r2
 80003aa:	08c3      	lsrs	r3, r0, #3
 80003ac:	428b      	cmp	r3, r1
 80003ae:	d301      	bcc.n	80003b4 <__divsi3+0x184>
 80003b0:	00cb      	lsls	r3, r1, #3
 80003b2:	1ac0      	subs	r0, r0, r3
 80003b4:	4152      	adcs	r2, r2
 80003b6:	0883      	lsrs	r3, r0, #2
 80003b8:	428b      	cmp	r3, r1
 80003ba:	d301      	bcc.n	80003c0 <__divsi3+0x190>
 80003bc:	008b      	lsls	r3, r1, #2
 80003be:	1ac0      	subs	r0, r0, r3
 80003c0:	4152      	adcs	r2, r2
 80003c2:	d2d9      	bcs.n	8000378 <__divsi3+0x148>
 80003c4:	0843      	lsrs	r3, r0, #1
 80003c6:	428b      	cmp	r3, r1
 80003c8:	d301      	bcc.n	80003ce <__divsi3+0x19e>
 80003ca:	004b      	lsls	r3, r1, #1
 80003cc:	1ac0      	subs	r0, r0, r3
 80003ce:	4152      	adcs	r2, r2
 80003d0:	1a41      	subs	r1, r0, r1
 80003d2:	d200      	bcs.n	80003d6 <__divsi3+0x1a6>
 80003d4:	4601      	mov	r1, r0
 80003d6:	4663      	mov	r3, ip
 80003d8:	4152      	adcs	r2, r2
 80003da:	105b      	asrs	r3, r3, #1
 80003dc:	4610      	mov	r0, r2
 80003de:	d301      	bcc.n	80003e4 <__divsi3+0x1b4>
 80003e0:	4240      	negs	r0, r0
 80003e2:	2b00      	cmp	r3, #0
 80003e4:	d500      	bpl.n	80003e8 <__divsi3+0x1b8>
 80003e6:	4249      	negs	r1, r1
 80003e8:	4770      	bx	lr
 80003ea:	4663      	mov	r3, ip
 80003ec:	105b      	asrs	r3, r3, #1
 80003ee:	d300      	bcc.n	80003f2 <__divsi3+0x1c2>
 80003f0:	4240      	negs	r0, r0
 80003f2:	b501      	push	{r0, lr}
 80003f4:	2000      	movs	r0, #0
 80003f6:	f000 f805 	bl	8000404 <__aeabi_idiv0>
 80003fa:	bd02      	pop	{r1, pc}

080003fc <__aeabi_idivmod>:
 80003fc:	2900      	cmp	r1, #0
 80003fe:	d0f8      	beq.n	80003f2 <__divsi3+0x1c2>
 8000400:	e716      	b.n	8000230 <__divsi3>
 8000402:	4770      	bx	lr

08000404 <__aeabi_idiv0>:
 8000404:	4770      	bx	lr
 8000406:	46c0      	nop			; (mov r8, r8)

08000408 <__aeabi_llsr>:
 8000408:	40d0      	lsrs	r0, r2
 800040a:	1c0b      	adds	r3, r1, #0
 800040c:	40d1      	lsrs	r1, r2
 800040e:	469c      	mov	ip, r3
 8000410:	3a20      	subs	r2, #32
 8000412:	40d3      	lsrs	r3, r2
 8000414:	4318      	orrs	r0, r3
 8000416:	4252      	negs	r2, r2
 8000418:	4663      	mov	r3, ip
 800041a:	4093      	lsls	r3, r2
 800041c:	4318      	orrs	r0, r3
 800041e:	4770      	bx	lr

08000420 <HAL_InitTick>:
 8000420:	b510      	push	{r4, lr}
 8000422:	0004      	movs	r4, r0
 8000424:	f001 f888 	bl	8001538 <HAL_RCC_GetHCLKFreq>
 8000428:	21fa      	movs	r1, #250	; 0xfa
 800042a:	0089      	lsls	r1, r1, #2
 800042c:	f7ff fe76 	bl	800011c <__udivsi3>
 8000430:	f000 fafe 	bl	8000a30 <HAL_SYSTICK_Config>
 8000434:	2001      	movs	r0, #1
 8000436:	2200      	movs	r2, #0
 8000438:	0021      	movs	r1, r4
 800043a:	4240      	negs	r0, r0
 800043c:	f000 fabe 	bl	80009bc <HAL_NVIC_SetPriority>
 8000440:	2000      	movs	r0, #0
 8000442:	bd10      	pop	{r4, pc}

08000444 <HAL_Init>:
 8000444:	2310      	movs	r3, #16
 8000446:	4a06      	ldr	r2, [pc, #24]	; (8000460 <HAL_Init+0x1c>)
 8000448:	b510      	push	{r4, lr}
 800044a:	6811      	ldr	r1, [r2, #0]
 800044c:	2000      	movs	r0, #0
 800044e:	430b      	orrs	r3, r1
 8000450:	6013      	str	r3, [r2, #0]
 8000452:	f7ff ffe5 	bl	8000420 <HAL_InitTick>
 8000456:	f003 fbf9 	bl	8003c4c <HAL_MspInit>
 800045a:	2000      	movs	r0, #0
 800045c:	bd10      	pop	{r4, pc}
 800045e:	46c0      	nop			; (mov r8, r8)
 8000460:	40022000 	.word	0x40022000

08000464 <HAL_IncTick>:
 8000464:	4a02      	ldr	r2, [pc, #8]	; (8000470 <HAL_IncTick+0xc>)
 8000466:	6813      	ldr	r3, [r2, #0]
 8000468:	3301      	adds	r3, #1
 800046a:	6013      	str	r3, [r2, #0]
 800046c:	4770      	bx	lr
 800046e:	46c0      	nop			; (mov r8, r8)
 8000470:	20000164 	.word	0x20000164

08000474 <HAL_GetTick>:
 8000474:	4b01      	ldr	r3, [pc, #4]	; (800047c <HAL_GetTick+0x8>)
 8000476:	6818      	ldr	r0, [r3, #0]
 8000478:	4770      	bx	lr
 800047a:	46c0      	nop			; (mov r8, r8)
 800047c:	20000164 	.word	0x20000164

08000480 <HAL_Delay>:
 8000480:	b537      	push	{r0, r1, r2, r4, r5, lr}
 8000482:	9001      	str	r0, [sp, #4]
 8000484:	f7ff fff6 	bl	8000474 <HAL_GetTick>
 8000488:	9c01      	ldr	r4, [sp, #4]
 800048a:	0005      	movs	r5, r0
 800048c:	1c63      	adds	r3, r4, #1
 800048e:	1e5a      	subs	r2, r3, #1
 8000490:	4193      	sbcs	r3, r2
 8000492:	18e4      	adds	r4, r4, r3
 8000494:	f7ff ffee 	bl	8000474 <HAL_GetTick>
 8000498:	1b40      	subs	r0, r0, r5
 800049a:	42a0      	cmp	r0, r4
 800049c:	d3fa      	bcc.n	8000494 <HAL_Delay+0x14>
 800049e:	bd37      	pop	{r0, r1, r2, r4, r5, pc}

080004a0 <HAL_ADC_Init>:
 80004a0:	b5f8      	push	{r3, r4, r5, r6, r7, lr}
 80004a2:	0004      	movs	r4, r0
 80004a4:	2001      	movs	r0, #1
 80004a6:	2c00      	cmp	r4, #0
 80004a8:	d072      	beq.n	8000590 <HAL_ADC_Init+0xf0>
 80004aa:	6c63      	ldr	r3, [r4, #68]	; 0x44
 80004ac:	2b00      	cmp	r3, #0
 80004ae:	d106      	bne.n	80004be <HAL_ADC_Init+0x1e>
 80004b0:	0022      	movs	r2, r4
 80004b2:	3240      	adds	r2, #64	; 0x40
 80004b4:	64a3      	str	r3, [r4, #72]	; 0x48
 80004b6:	0020      	movs	r0, r4
 80004b8:	7013      	strb	r3, [r2, #0]
 80004ba:	f003 fbe5 	bl	8003c88 <HAL_ADC_MspInit>
 80004be:	6c63      	ldr	r3, [r4, #68]	; 0x44
 80004c0:	06db      	lsls	r3, r3, #27
 80004c2:	d500      	bpl.n	80004c6 <HAL_ADC_Init+0x26>
 80004c4:	e079      	b.n	80005ba <HAL_ADC_Init+0x11a>
 80004c6:	2204      	movs	r2, #4
 80004c8:	6823      	ldr	r3, [r4, #0]
 80004ca:	6898      	ldr	r0, [r3, #8]
 80004cc:	4010      	ands	r0, r2
 80004ce:	d000      	beq.n	80004d2 <HAL_ADC_Init+0x32>
 80004d0:	e073      	b.n	80005ba <HAL_ADC_Init+0x11a>
 80004d2:	6c62      	ldr	r2, [r4, #68]	; 0x44
 80004d4:	4942      	ldr	r1, [pc, #264]	; (80005e0 <HAL_ADC_Init+0x140>)
 80004d6:	4011      	ands	r1, r2
 80004d8:	2202      	movs	r2, #2
 80004da:	430a      	orrs	r2, r1
 80004dc:	2103      	movs	r1, #3
 80004de:	6462      	str	r2, [r4, #68]	; 0x44
 80004e0:	689a      	ldr	r2, [r3, #8]
 80004e2:	400a      	ands	r2, r1
 80004e4:	2a01      	cmp	r2, #1
 80004e6:	d000      	beq.n	80004ea <HAL_ADC_Init+0x4a>
 80004e8:	e06d      	b.n	80005c6 <HAL_ADC_Init+0x126>
 80004ea:	6819      	ldr	r1, [r3, #0]
 80004ec:	4211      	tst	r1, r2
 80004ee:	d102      	bne.n	80004f6 <HAL_ADC_Init+0x56>
 80004f0:	68da      	ldr	r2, [r3, #12]
 80004f2:	0412      	lsls	r2, r2, #16
 80004f4:	d567      	bpl.n	80005c6 <HAL_ADC_Init+0x126>
 80004f6:	68da      	ldr	r2, [r3, #12]
 80004f8:	493a      	ldr	r1, [pc, #232]	; (80005e4 <HAL_ADC_Init+0x144>)
 80004fa:	6a25      	ldr	r5, [r4, #32]
 80004fc:	400a      	ands	r2, r1
 80004fe:	60da      	str	r2, [r3, #12]
 8000500:	69a2      	ldr	r2, [r4, #24]
 8000502:	036f      	lsls	r7, r5, #13
 8000504:	0391      	lsls	r1, r2, #14
 8000506:	69e2      	ldr	r2, [r4, #28]
 8000508:	03d2      	lsls	r2, r2, #15
 800050a:	4311      	orrs	r1, r2
 800050c:	6b62      	ldr	r2, [r4, #52]	; 0x34
 800050e:	3a01      	subs	r2, #1
 8000510:	1e56      	subs	r6, r2, #1
 8000512:	41b2      	sbcs	r2, r6
 8000514:	0316      	lsls	r6, r2, #12
 8000516:	68e2      	ldr	r2, [r4, #12]
 8000518:	4311      	orrs	r1, r2
 800051a:	6922      	ldr	r2, [r4, #16]
 800051c:	430f      	orrs	r7, r1
 800051e:	2a02      	cmp	r2, #2
 8000520:	d100      	bne.n	8000524 <HAL_ADC_Init+0x84>
 8000522:	2004      	movs	r0, #4
 8000524:	6b22      	ldr	r2, [r4, #48]	; 0x30
 8000526:	6a61      	ldr	r1, [r4, #36]	; 0x24
 8000528:	0052      	lsls	r2, r2, #1
 800052a:	433a      	orrs	r2, r7
 800052c:	4332      	orrs	r2, r6
 800052e:	4302      	orrs	r2, r0
 8000530:	2901      	cmp	r1, #1
 8000532:	d104      	bne.n	800053e <HAL_ADC_Init+0x9e>
 8000534:	2d00      	cmp	r5, #0
 8000536:	d12c      	bne.n	8000592 <HAL_ADC_Init+0xf2>
 8000538:	2180      	movs	r1, #128	; 0x80
 800053a:	0249      	lsls	r1, r1, #9
 800053c:	430a      	orrs	r2, r1
 800053e:	20c2      	movs	r0, #194	; 0xc2
 8000540:	6aa1      	ldr	r1, [r4, #40]	; 0x28
 8000542:	30ff      	adds	r0, #255	; 0xff
 8000544:	4281      	cmp	r1, r0
 8000546:	d002      	beq.n	800054e <HAL_ADC_Init+0xae>
 8000548:	6ae0      	ldr	r0, [r4, #44]	; 0x2c
 800054a:	4301      	orrs	r1, r0
 800054c:	430a      	orrs	r2, r1
 800054e:	2080      	movs	r0, #128	; 0x80
 8000550:	68d9      	ldr	r1, [r3, #12]
 8000552:	0540      	lsls	r0, r0, #21
 8000554:	4311      	orrs	r1, r2
 8000556:	60d9      	str	r1, [r3, #12]
 8000558:	6ba1      	ldr	r1, [r4, #56]	; 0x38
 800055a:	4281      	cmp	r1, r0
 800055c:	d002      	beq.n	8000564 <HAL_ADC_Init+0xc4>
 800055e:	1e48      	subs	r0, r1, #1
 8000560:	2806      	cmp	r0, #6
 8000562:	d807      	bhi.n	8000574 <HAL_ADC_Init+0xd4>
 8000564:	2507      	movs	r5, #7
 8000566:	6958      	ldr	r0, [r3, #20]
 8000568:	4029      	ands	r1, r5
 800056a:	43a8      	bics	r0, r5
 800056c:	6158      	str	r0, [r3, #20]
 800056e:	6958      	ldr	r0, [r3, #20]
 8000570:	4301      	orrs	r1, r0
 8000572:	6159      	str	r1, [r3, #20]
 8000574:	68db      	ldr	r3, [r3, #12]
 8000576:	491c      	ldr	r1, [pc, #112]	; (80005e8 <HAL_ADC_Init+0x148>)
 8000578:	400b      	ands	r3, r1
 800057a:	429a      	cmp	r2, r3
 800057c:	d111      	bne.n	80005a2 <HAL_ADC_Init+0x102>
 800057e:	2000      	movs	r0, #0
 8000580:	2203      	movs	r2, #3
 8000582:	64a0      	str	r0, [r4, #72]	; 0x48
 8000584:	6c63      	ldr	r3, [r4, #68]	; 0x44
 8000586:	4393      	bics	r3, r2
 8000588:	001a      	movs	r2, r3
 800058a:	2301      	movs	r3, #1
 800058c:	4313      	orrs	r3, r2
 800058e:	6463      	str	r3, [r4, #68]	; 0x44
 8000590:	bdf8      	pop	{r3, r4, r5, r6, r7, pc}
 8000592:	2020      	movs	r0, #32
 8000594:	6c65      	ldr	r5, [r4, #68]	; 0x44
 8000596:	4328      	orrs	r0, r5
 8000598:	6460      	str	r0, [r4, #68]	; 0x44
 800059a:	6ca0      	ldr	r0, [r4, #72]	; 0x48
 800059c:	4301      	orrs	r1, r0
 800059e:	64a1      	str	r1, [r4, #72]	; 0x48
 80005a0:	e7cd      	b.n	800053e <HAL_ADC_Init+0x9e>
 80005a2:	2212      	movs	r2, #18
 80005a4:	6c63      	ldr	r3, [r4, #68]	; 0x44
 80005a6:	2001      	movs	r0, #1
 80005a8:	4393      	bics	r3, r2
 80005aa:	001a      	movs	r2, r3
 80005ac:	2310      	movs	r3, #16
 80005ae:	4313      	orrs	r3, r2
 80005b0:	6463      	str	r3, [r4, #68]	; 0x44
 80005b2:	6ca3      	ldr	r3, [r4, #72]	; 0x48
 80005b4:	4303      	orrs	r3, r0
 80005b6:	64a3      	str	r3, [r4, #72]	; 0x48
 80005b8:	e7ea      	b.n	8000590 <HAL_ADC_Init+0xf0>
 80005ba:	2310      	movs	r3, #16
 80005bc:	6c62      	ldr	r2, [r4, #68]	; 0x44
 80005be:	2001      	movs	r0, #1
 80005c0:	4313      	orrs	r3, r2
 80005c2:	6463      	str	r3, [r4, #68]	; 0x44
 80005c4:	e7e4      	b.n	8000590 <HAL_ADC_Init+0xf0>
 80005c6:	2118      	movs	r1, #24
 80005c8:	68da      	ldr	r2, [r3, #12]
 80005ca:	438a      	bics	r2, r1
 80005cc:	68a1      	ldr	r1, [r4, #8]
 80005ce:	430a      	orrs	r2, r1
 80005d0:	60da      	str	r2, [r3, #12]
 80005d2:	6919      	ldr	r1, [r3, #16]
 80005d4:	6862      	ldr	r2, [r4, #4]
 80005d6:	0089      	lsls	r1, r1, #2
 80005d8:	0889      	lsrs	r1, r1, #2
 80005da:	4311      	orrs	r1, r2
 80005dc:	6119      	str	r1, [r3, #16]
 80005de:	e78a      	b.n	80004f6 <HAL_ADC_Init+0x56>
 80005e0:	fffffefd 	.word	0xfffffefd
 80005e4:	fffe0219 	.word	0xfffe0219
 80005e8:	833fffe7 	.word	0x833fffe7

080005ec <HAL_ADC_LevelOutOfWindowCallback>:
 80005ec:	4770      	bx	lr

080005ee <HAL_ADC_ErrorCallback>:
 80005ee:	4770      	bx	lr

080005f0 <HAL_ADC_IRQHandler>:
 80005f0:	2204      	movs	r2, #4
 80005f2:	6803      	ldr	r3, [r0, #0]
 80005f4:	b570      	push	{r4, r5, r6, lr}
 80005f6:	6819      	ldr	r1, [r3, #0]
 80005f8:	0004      	movs	r4, r0
 80005fa:	4211      	tst	r1, r2
 80005fc:	d002      	beq.n	8000604 <HAL_ADC_IRQHandler+0x14>
 80005fe:	6859      	ldr	r1, [r3, #4]
 8000600:	4211      	tst	r1, r2
 8000602:	d106      	bne.n	8000612 <HAL_ADC_IRQHandler+0x22>
 8000604:	2208      	movs	r2, #8
 8000606:	6819      	ldr	r1, [r3, #0]
 8000608:	4211      	tst	r1, r2
 800060a:	d028      	beq.n	800065e <HAL_ADC_IRQHandler+0x6e>
 800060c:	6859      	ldr	r1, [r3, #4]
 800060e:	4211      	tst	r1, r2
 8000610:	d025      	beq.n	800065e <HAL_ADC_IRQHandler+0x6e>
 8000612:	6c62      	ldr	r2, [r4, #68]	; 0x44
 8000614:	06d2      	lsls	r2, r2, #27
 8000616:	d404      	bmi.n	8000622 <HAL_ADC_IRQHandler+0x32>
 8000618:	2280      	movs	r2, #128	; 0x80
 800061a:	6c61      	ldr	r1, [r4, #68]	; 0x44
 800061c:	0092      	lsls	r2, r2, #2
 800061e:	430a      	orrs	r2, r1
 8000620:	6462      	str	r2, [r4, #68]	; 0x44
 8000622:	22c0      	movs	r2, #192	; 0xc0
 8000624:	68d9      	ldr	r1, [r3, #12]
 8000626:	0112      	lsls	r2, r2, #4
 8000628:	4211      	tst	r1, r2
 800062a:	d112      	bne.n	8000652 <HAL_ADC_IRQHandler+0x62>
 800062c:	6a22      	ldr	r2, [r4, #32]
 800062e:	2a00      	cmp	r2, #0
 8000630:	d10f      	bne.n	8000652 <HAL_ADC_IRQHandler+0x62>
 8000632:	681a      	ldr	r2, [r3, #0]
 8000634:	0712      	lsls	r2, r2, #28
 8000636:	d50c      	bpl.n	8000652 <HAL_ADC_IRQHandler+0x62>
 8000638:	689a      	ldr	r2, [r3, #8]
 800063a:	0752      	lsls	r2, r2, #29
 800063c:	d43c      	bmi.n	80006b8 <HAL_ADC_IRQHandler+0xc8>
 800063e:	210c      	movs	r1, #12
 8000640:	685a      	ldr	r2, [r3, #4]
 8000642:	438a      	bics	r2, r1
 8000644:	605a      	str	r2, [r3, #4]
 8000646:	6c63      	ldr	r3, [r4, #68]	; 0x44
 8000648:	4a20      	ldr	r2, [pc, #128]	; (80006cc <HAL_ADC_IRQHandler+0xdc>)
 800064a:	401a      	ands	r2, r3
 800064c:	2301      	movs	r3, #1
 800064e:	4313      	orrs	r3, r2
 8000650:	6463      	str	r3, [r4, #68]	; 0x44
 8000652:	0020      	movs	r0, r4
 8000654:	f002 fb92 	bl	8002d7c <HAL_ADC_ConvCpltCallback>
 8000658:	220c      	movs	r2, #12
 800065a:	6823      	ldr	r3, [r4, #0]
 800065c:	601a      	str	r2, [r3, #0]
 800065e:	2580      	movs	r5, #128	; 0x80
 8000660:	6823      	ldr	r3, [r4, #0]
 8000662:	681a      	ldr	r2, [r3, #0]
 8000664:	422a      	tst	r2, r5
 8000666:	d00c      	beq.n	8000682 <HAL_ADC_IRQHandler+0x92>
 8000668:	685b      	ldr	r3, [r3, #4]
 800066a:	422b      	tst	r3, r5
 800066c:	d009      	beq.n	8000682 <HAL_ADC_IRQHandler+0x92>
 800066e:	2380      	movs	r3, #128	; 0x80
 8000670:	6c62      	ldr	r2, [r4, #68]	; 0x44
 8000672:	025b      	lsls	r3, r3, #9
 8000674:	4313      	orrs	r3, r2
 8000676:	6463      	str	r3, [r4, #68]	; 0x44
 8000678:	0020      	movs	r0, r4
 800067a:	f7ff ffb7 	bl	80005ec <HAL_ADC_LevelOutOfWindowCallback>
 800067e:	6823      	ldr	r3, [r4, #0]
 8000680:	601d      	str	r5, [r3, #0]
 8000682:	2210      	movs	r2, #16
 8000684:	6823      	ldr	r3, [r4, #0]
 8000686:	6819      	ldr	r1, [r3, #0]
 8000688:	4211      	tst	r1, r2
 800068a:	d014      	beq.n	80006b6 <HAL_ADC_IRQHandler+0xc6>
 800068c:	6859      	ldr	r1, [r3, #4]
 800068e:	4211      	tst	r1, r2
 8000690:	d011      	beq.n	80006b6 <HAL_ADC_IRQHandler+0xc6>
 8000692:	6b62      	ldr	r2, [r4, #52]	; 0x34
 8000694:	2a01      	cmp	r2, #1
 8000696:	d002      	beq.n	800069e <HAL_ADC_IRQHandler+0xae>
 8000698:	68da      	ldr	r2, [r3, #12]
 800069a:	07d2      	lsls	r2, r2, #31
 800069c:	d508      	bpl.n	80006b0 <HAL_ADC_IRQHandler+0xc0>
 800069e:	2202      	movs	r2, #2
 80006a0:	6ca1      	ldr	r1, [r4, #72]	; 0x48
 80006a2:	0020      	movs	r0, r4
 80006a4:	430a      	orrs	r2, r1
 80006a6:	64a2      	str	r2, [r4, #72]	; 0x48
 80006a8:	2210      	movs	r2, #16
 80006aa:	601a      	str	r2, [r3, #0]
 80006ac:	f7ff ff9f 	bl	80005ee <HAL_ADC_ErrorCallback>
 80006b0:	2210      	movs	r2, #16
 80006b2:	6823      	ldr	r3, [r4, #0]
 80006b4:	601a      	str	r2, [r3, #0]
 80006b6:	bd70      	pop	{r4, r5, r6, pc}
 80006b8:	2320      	movs	r3, #32
 80006ba:	6c62      	ldr	r2, [r4, #68]	; 0x44
 80006bc:	4313      	orrs	r3, r2
 80006be:	6463      	str	r3, [r4, #68]	; 0x44
 80006c0:	2301      	movs	r3, #1
 80006c2:	6ca2      	ldr	r2, [r4, #72]	; 0x48
 80006c4:	4313      	orrs	r3, r2
 80006c6:	64a3      	str	r3, [r4, #72]	; 0x48
 80006c8:	e7c3      	b.n	8000652 <HAL_ADC_IRQHandler+0x62>
 80006ca:	46c0      	nop			; (mov r8, r8)
 80006cc:	fffffefe 	.word	0xfffffefe

080006d0 <HAL_ADC_ConfigChannel>:
 80006d0:	b5f7      	push	{r0, r1, r2, r4, r5, r6, r7, lr}
 80006d2:	2300      	movs	r3, #0
 80006d4:	0004      	movs	r4, r0
 80006d6:	9301      	str	r3, [sp, #4]
 80006d8:	3440      	adds	r4, #64	; 0x40
 80006da:	7823      	ldrb	r3, [r4, #0]
 80006dc:	0005      	movs	r5, r0
 80006de:	2002      	movs	r0, #2
 80006e0:	2b01      	cmp	r3, #1
 80006e2:	d02b      	beq.n	800073c <HAL_ADC_ConfigChannel+0x6c>
 80006e4:	2301      	movs	r3, #1
 80006e6:	682a      	ldr	r2, [r5, #0]
 80006e8:	6bae      	ldr	r6, [r5, #56]	; 0x38
 80006ea:	6890      	ldr	r0, [r2, #8]
 80006ec:	7023      	strb	r3, [r4, #0]
 80006ee:	0740      	lsls	r0, r0, #29
 80006f0:	d45a      	bmi.n	80007a8 <HAL_ADC_ConfigChannel+0xd8>
 80006f2:	4830      	ldr	r0, [pc, #192]	; (80007b4 <HAL_ADC_ConfigChannel+0xe4>)
 80006f4:	684f      	ldr	r7, [r1, #4]
 80006f6:	680d      	ldr	r5, [r1, #0]
 80006f8:	4287      	cmp	r7, r0
 80006fa:	d03f      	beq.n	800077c <HAL_ADC_ConfigChannel+0xac>
 80006fc:	40ab      	lsls	r3, r5
 80006fe:	0018      	movs	r0, r3
 8000700:	2380      	movs	r3, #128	; 0x80
 8000702:	6a97      	ldr	r7, [r2, #40]	; 0x28
 8000704:	055b      	lsls	r3, r3, #21
 8000706:	4338      	orrs	r0, r7
 8000708:	6290      	str	r0, [r2, #40]	; 0x28
 800070a:	429e      	cmp	r6, r3
 800070c:	d00f      	beq.n	800072e <HAL_ADC_ConfigChannel+0x5e>
 800070e:	3e01      	subs	r6, #1
 8000710:	2e06      	cmp	r6, #6
 8000712:	d90c      	bls.n	800072e <HAL_ADC_ConfigChannel+0x5e>
 8000714:	688b      	ldr	r3, [r1, #8]
 8000716:	2107      	movs	r1, #7
 8000718:	6950      	ldr	r0, [r2, #20]
 800071a:	4008      	ands	r0, r1
 800071c:	4283      	cmp	r3, r0
 800071e:	d006      	beq.n	800072e <HAL_ADC_ConfigChannel+0x5e>
 8000720:	6950      	ldr	r0, [r2, #20]
 8000722:	400b      	ands	r3, r1
 8000724:	4388      	bics	r0, r1
 8000726:	6150      	str	r0, [r2, #20]
 8000728:	6950      	ldr	r0, [r2, #20]
 800072a:	4303      	orrs	r3, r0
 800072c:	6153      	str	r3, [r2, #20]
 800072e:	002b      	movs	r3, r5
 8000730:	3b10      	subs	r3, #16
 8000732:	2b02      	cmp	r3, #2
 8000734:	d903      	bls.n	800073e <HAL_ADC_ConfigChannel+0x6e>
 8000736:	2000      	movs	r0, #0
 8000738:	2300      	movs	r3, #0
 800073a:	7023      	strb	r3, [r4, #0]
 800073c:	bdfe      	pop	{r1, r2, r3, r4, r5, r6, r7, pc}
 800073e:	4a1e      	ldr	r2, [pc, #120]	; (80007b8 <HAL_ADC_ConfigChannel+0xe8>)
 8000740:	2380      	movs	r3, #128	; 0x80
 8000742:	6811      	ldr	r1, [r2, #0]
 8000744:	2d10      	cmp	r5, #16
 8000746:	d015      	beq.n	8000774 <HAL_ADC_ConfigChannel+0xa4>
 8000748:	2d11      	cmp	r5, #17
 800074a:	d015      	beq.n	8000778 <HAL_ADC_ConfigChannel+0xa8>
 800074c:	045b      	lsls	r3, r3, #17
 800074e:	430b      	orrs	r3, r1
 8000750:	6013      	str	r3, [r2, #0]
 8000752:	2d10      	cmp	r5, #16
 8000754:	d1ef      	bne.n	8000736 <HAL_ADC_ConfigChannel+0x66>
 8000756:	4b19      	ldr	r3, [pc, #100]	; (80007bc <HAL_ADC_ConfigChannel+0xec>)
 8000758:	4919      	ldr	r1, [pc, #100]	; (80007c0 <HAL_ADC_ConfigChannel+0xf0>)
 800075a:	6818      	ldr	r0, [r3, #0]
 800075c:	f7ff fcde 	bl	800011c <__udivsi3>
 8000760:	230a      	movs	r3, #10
 8000762:	4358      	muls	r0, r3
 8000764:	9001      	str	r0, [sp, #4]
 8000766:	9b01      	ldr	r3, [sp, #4]
 8000768:	2b00      	cmp	r3, #0
 800076a:	d0e4      	beq.n	8000736 <HAL_ADC_ConfigChannel+0x66>
 800076c:	9b01      	ldr	r3, [sp, #4]
 800076e:	3b01      	subs	r3, #1
 8000770:	9301      	str	r3, [sp, #4]
 8000772:	e7f8      	b.n	8000766 <HAL_ADC_ConfigChannel+0x96>
 8000774:	041b      	lsls	r3, r3, #16
 8000776:	e7ea      	b.n	800074e <HAL_ADC_ConfigChannel+0x7e>
 8000778:	03db      	lsls	r3, r3, #15
 800077a:	e7e8      	b.n	800074e <HAL_ADC_ConfigChannel+0x7e>
 800077c:	40ab      	lsls	r3, r5
 800077e:	6a91      	ldr	r1, [r2, #40]	; 0x28
 8000780:	4399      	bics	r1, r3
 8000782:	002b      	movs	r3, r5
 8000784:	3b10      	subs	r3, #16
 8000786:	6291      	str	r1, [r2, #40]	; 0x28
 8000788:	2b02      	cmp	r3, #2
 800078a:	d8d4      	bhi.n	8000736 <HAL_ADC_ConfigChannel+0x66>
 800078c:	4b0a      	ldr	r3, [pc, #40]	; (80007b8 <HAL_ADC_ConfigChannel+0xe8>)
 800078e:	681a      	ldr	r2, [r3, #0]
 8000790:	2d10      	cmp	r5, #16
 8000792:	d005      	beq.n	80007a0 <HAL_ADC_ConfigChannel+0xd0>
 8000794:	2d11      	cmp	r5, #17
 8000796:	d005      	beq.n	80007a4 <HAL_ADC_ConfigChannel+0xd4>
 8000798:	490a      	ldr	r1, [pc, #40]	; (80007c4 <HAL_ADC_ConfigChannel+0xf4>)
 800079a:	400a      	ands	r2, r1
 800079c:	601a      	str	r2, [r3, #0]
 800079e:	e7ca      	b.n	8000736 <HAL_ADC_ConfigChannel+0x66>
 80007a0:	4909      	ldr	r1, [pc, #36]	; (80007c8 <HAL_ADC_ConfigChannel+0xf8>)
 80007a2:	e7fa      	b.n	800079a <HAL_ADC_ConfigChannel+0xca>
 80007a4:	4909      	ldr	r1, [pc, #36]	; (80007cc <HAL_ADC_ConfigChannel+0xfc>)
 80007a6:	e7f8      	b.n	800079a <HAL_ADC_ConfigChannel+0xca>
 80007a8:	2220      	movs	r2, #32
 80007aa:	6c69      	ldr	r1, [r5, #68]	; 0x44
 80007ac:	0018      	movs	r0, r3
 80007ae:	430a      	orrs	r2, r1
 80007b0:	646a      	str	r2, [r5, #68]	; 0x44
 80007b2:	e7c1      	b.n	8000738 <HAL_ADC_ConfigChannel+0x68>
 80007b4:	00001001 	.word	0x00001001
 80007b8:	40012708 	.word	0x40012708
 80007bc:	20000060 	.word	0x20000060
 80007c0:	000f4240 	.word	0x000f4240
 80007c4:	feffffff 	.word	0xfeffffff
 80007c8:	ff7fffff 	.word	0xff7fffff
 80007cc:	ffbfffff 	.word	0xffbfffff

080007d0 <HAL_COMP_Init>:
 80007d0:	b537      	push	{r0, r1, r2, r4, r5, lr}
 80007d2:	0004      	movs	r4, r0
 80007d4:	2001      	movs	r0, #1
 80007d6:	2c00      	cmp	r4, #0
 80007d8:	d038      	beq.n	800084c <HAL_COMP_Init+0x7c>
 80007da:	6aa3      	ldr	r3, [r4, #40]	; 0x28
 80007dc:	06db      	lsls	r3, r3, #27
 80007de:	d435      	bmi.n	800084c <HAL_COMP_Init+0x7c>
 80007e0:	4b1b      	ldr	r3, [pc, #108]	; (8000850 <HAL_COMP_Init+0x80>)
 80007e2:	6999      	ldr	r1, [r3, #24]
 80007e4:	4301      	orrs	r1, r0
 80007e6:	6199      	str	r1, [r3, #24]
 80007e8:	699b      	ldr	r3, [r3, #24]
 80007ea:	4003      	ands	r3, r0
 80007ec:	9301      	str	r3, [sp, #4]
 80007ee:	0020      	movs	r0, r4
 80007f0:	9b01      	ldr	r3, [sp, #4]
 80007f2:	f003 fa95 	bl	8003d20 <HAL_COMP_MspInit>
 80007f6:	6aa3      	ldr	r3, [r4, #40]	; 0x28
 80007f8:	2b00      	cmp	r3, #0
 80007fa:	d101      	bne.n	8000800 <HAL_COMP_Init+0x30>
 80007fc:	1d62      	adds	r2, r4, #5
 80007fe:	77d3      	strb	r3, [r2, #31]
 8000800:	2302      	movs	r3, #2
 8000802:	4a14      	ldr	r2, [pc, #80]	; (8000854 <HAL_COMP_Init+0x84>)
 8000804:	62a3      	str	r3, [r4, #40]	; 0x28
 8000806:	6823      	ldr	r3, [r4, #0]
 8000808:	68a5      	ldr	r5, [r4, #8]
 800080a:	189a      	adds	r2, r3, r2
 800080c:	4251      	negs	r1, r2
 800080e:	4151      	adcs	r1, r2
 8000810:	6863      	ldr	r3, [r4, #4]
 8000812:	010a      	lsls	r2, r1, #4
 8000814:	432b      	orrs	r3, r5
 8000816:	68e5      	ldr	r5, [r4, #12]
 8000818:	490f      	ldr	r1, [pc, #60]	; (8000858 <HAL_COMP_Init+0x88>)
 800081a:	432b      	orrs	r3, r5
 800081c:	6925      	ldr	r5, [r4, #16]
 800081e:	6808      	ldr	r0, [r1, #0]
 8000820:	432b      	orrs	r3, r5
 8000822:	6965      	ldr	r5, [r4, #20]
 8000824:	432b      	orrs	r3, r5
 8000826:	69a5      	ldr	r5, [r4, #24]
 8000828:	432b      	orrs	r3, r5
 800082a:	4d0c      	ldr	r5, [pc, #48]	; (800085c <HAL_COMP_Init+0x8c>)
 800082c:	4093      	lsls	r3, r2
 800082e:	4095      	lsls	r5, r2
 8000830:	43a8      	bics	r0, r5
 8000832:	4303      	orrs	r3, r0
 8000834:	600b      	str	r3, [r1, #0]
 8000836:	69e3      	ldr	r3, [r4, #28]
 8000838:	2b00      	cmp	r3, #0
 800083a:	d004      	beq.n	8000846 <HAL_COMP_Init+0x76>
 800083c:	2380      	movs	r3, #128	; 0x80
 800083e:	680a      	ldr	r2, [r1, #0]
 8000840:	041b      	lsls	r3, r3, #16
 8000842:	4313      	orrs	r3, r2
 8000844:	600b      	str	r3, [r1, #0]
 8000846:	2301      	movs	r3, #1
 8000848:	2000      	movs	r0, #0
 800084a:	62a3      	str	r3, [r4, #40]	; 0x28
 800084c:	bd3e      	pop	{r1, r2, r3, r4, r5, pc}
 800084e:	46c0      	nop			; (mov r8, r8)
 8000850:	40021000 	.word	0x40021000
 8000854:	bffeffe2 	.word	0xbffeffe2
 8000858:	4001001c 	.word	0x4001001c
 800085c:	00003f7e 	.word	0x00003f7e

08000860 <HAL_COMP_Start>:
 8000860:	b530      	push	{r4, r5, lr}
 8000862:	2301      	movs	r3, #1
 8000864:	2800      	cmp	r0, #0
 8000866:	d016      	beq.n	8000896 <HAL_COMP_Start+0x36>
 8000868:	6a81      	ldr	r1, [r0, #40]	; 0x28
 800086a:	330f      	adds	r3, #15
 800086c:	4019      	ands	r1, r3
 800086e:	3b0f      	subs	r3, #15
 8000870:	2900      	cmp	r1, #0
 8000872:	d110      	bne.n	8000896 <HAL_COMP_Start+0x36>
 8000874:	6a82      	ldr	r2, [r0, #40]	; 0x28
 8000876:	429a      	cmp	r2, r3
 8000878:	d10d      	bne.n	8000896 <HAL_COMP_Start+0x36>
 800087a:	4c08      	ldr	r4, [pc, #32]	; (800089c <HAL_COMP_Start+0x3c>)
 800087c:	6802      	ldr	r2, [r0, #0]
 800087e:	1912      	adds	r2, r2, r4
 8000880:	4255      	negs	r5, r2
 8000882:	4155      	adcs	r5, r2
 8000884:	012a      	lsls	r2, r5, #4
 8000886:	4093      	lsls	r3, r2
 8000888:	4c05      	ldr	r4, [pc, #20]	; (80008a0 <HAL_COMP_Start+0x40>)
 800088a:	6825      	ldr	r5, [r4, #0]
 800088c:	432b      	orrs	r3, r5
 800088e:	6023      	str	r3, [r4, #0]
 8000890:	2302      	movs	r3, #2
 8000892:	6283      	str	r3, [r0, #40]	; 0x28
 8000894:	000b      	movs	r3, r1
 8000896:	0018      	movs	r0, r3
 8000898:	bd30      	pop	{r4, r5, pc}
 800089a:	46c0      	nop			; (mov r8, r8)
 800089c:	bffeffe2 	.word	0xbffeffe2
 80008a0:	4001001c 	.word	0x4001001c

080008a4 <HAL_COMP_Stop>:
 80008a4:	b570      	push	{r4, r5, r6, lr}
 80008a6:	2201      	movs	r2, #1
 80008a8:	2800      	cmp	r0, #0
 80008aa:	d014      	beq.n	80008d6 <HAL_COMP_Stop+0x32>
 80008ac:	2310      	movs	r3, #16
 80008ae:	6a81      	ldr	r1, [r0, #40]	; 0x28
 80008b0:	4019      	ands	r1, r3
 80008b2:	d110      	bne.n	80008d6 <HAL_COMP_Stop+0x32>
 80008b4:	6a83      	ldr	r3, [r0, #40]	; 0x28
 80008b6:	2b02      	cmp	r3, #2
 80008b8:	d10d      	bne.n	80008d6 <HAL_COMP_Stop+0x32>
 80008ba:	4c08      	ldr	r4, [pc, #32]	; (80008dc <HAL_COMP_Stop+0x38>)
 80008bc:	6803      	ldr	r3, [r0, #0]
 80008be:	0016      	movs	r6, r2
 80008c0:	191b      	adds	r3, r3, r4
 80008c2:	425d      	negs	r5, r3
 80008c4:	415d      	adcs	r5, r3
 80008c6:	012b      	lsls	r3, r5, #4
 80008c8:	409e      	lsls	r6, r3
 80008ca:	4d05      	ldr	r5, [pc, #20]	; (80008e0 <HAL_COMP_Stop+0x3c>)
 80008cc:	682c      	ldr	r4, [r5, #0]
 80008ce:	43b4      	bics	r4, r6
 80008d0:	602c      	str	r4, [r5, #0]
 80008d2:	6282      	str	r2, [r0, #40]	; 0x28
 80008d4:	000a      	movs	r2, r1
 80008d6:	0010      	movs	r0, r2
 80008d8:	bd70      	pop	{r4, r5, r6, pc}
 80008da:	46c0      	nop			; (mov r8, r8)
 80008dc:	bffeffe2 	.word	0xbffeffe2
 80008e0:	4001001c 	.word	0x4001001c

080008e4 <HAL_COMP_Start_IT>:
 80008e4:	b510      	push	{r4, lr}
 80008e6:	0004      	movs	r4, r0
 80008e8:	f7ff ffba 	bl	8000860 <HAL_COMP_Start>
 80008ec:	2800      	cmp	r0, #0
 80008ee:	d115      	bne.n	800091c <HAL_COMP_Start_IT+0x38>
 80008f0:	4b0f      	ldr	r3, [pc, #60]	; (8000930 <HAL_COMP_Start_IT+0x4c>)
 80008f2:	6822      	ldr	r2, [r4, #0]
 80008f4:	429a      	cmp	r2, r3
 80008f6:	d012      	beq.n	800091e <HAL_COMP_Start_IT+0x3a>
 80008f8:	2280      	movs	r2, #128	; 0x80
 80008fa:	03d2      	lsls	r2, r2, #15
 80008fc:	6a24      	ldr	r4, [r4, #32]
 80008fe:	4b0d      	ldr	r3, [pc, #52]	; (8000934 <HAL_COMP_Start_IT+0x50>)
 8000900:	07e1      	lsls	r1, r4, #31
 8000902:	d50f      	bpl.n	8000924 <HAL_COMP_Start_IT+0x40>
 8000904:	6899      	ldr	r1, [r3, #8]
 8000906:	4311      	orrs	r1, r2
 8000908:	6099      	str	r1, [r3, #8]
 800090a:	07a1      	lsls	r1, r4, #30
 800090c:	d50d      	bpl.n	800092a <HAL_COMP_Start_IT+0x46>
 800090e:	68d9      	ldr	r1, [r3, #12]
 8000910:	4311      	orrs	r1, r2
 8000912:	60d9      	str	r1, [r3, #12]
 8000914:	615a      	str	r2, [r3, #20]
 8000916:	6819      	ldr	r1, [r3, #0]
 8000918:	430a      	orrs	r2, r1
 800091a:	601a      	str	r2, [r3, #0]
 800091c:	bd10      	pop	{r4, pc}
 800091e:	2280      	movs	r2, #128	; 0x80
 8000920:	0392      	lsls	r2, r2, #14
 8000922:	e7eb      	b.n	80008fc <HAL_COMP_Start_IT+0x18>
 8000924:	6899      	ldr	r1, [r3, #8]
 8000926:	4391      	bics	r1, r2
 8000928:	e7ee      	b.n	8000908 <HAL_COMP_Start_IT+0x24>
 800092a:	68d9      	ldr	r1, [r3, #12]
 800092c:	4391      	bics	r1, r2
 800092e:	e7f0      	b.n	8000912 <HAL_COMP_Start_IT+0x2e>
 8000930:	4001001c 	.word	0x4001001c
 8000934:	40010400 	.word	0x40010400

08000938 <HAL_COMP_Stop_IT>:
 8000938:	b510      	push	{r4, lr}
 800093a:	4b07      	ldr	r3, [pc, #28]	; (8000958 <HAL_COMP_Stop_IT+0x20>)
 800093c:	4907      	ldr	r1, [pc, #28]	; (800095c <HAL_COMP_Stop_IT+0x24>)
 800093e:	6804      	ldr	r4, [r0, #0]
 8000940:	681a      	ldr	r2, [r3, #0]
 8000942:	428c      	cmp	r4, r1
 8000944:	d005      	beq.n	8000952 <HAL_COMP_Stop_IT+0x1a>
 8000946:	4906      	ldr	r1, [pc, #24]	; (8000960 <HAL_COMP_Stop_IT+0x28>)
 8000948:	400a      	ands	r2, r1
 800094a:	601a      	str	r2, [r3, #0]
 800094c:	f7ff ffaa 	bl	80008a4 <HAL_COMP_Stop>
 8000950:	bd10      	pop	{r4, pc}
 8000952:	4904      	ldr	r1, [pc, #16]	; (8000964 <HAL_COMP_Stop_IT+0x2c>)
 8000954:	e7f8      	b.n	8000948 <HAL_COMP_Stop_IT+0x10>
 8000956:	46c0      	nop			; (mov r8, r8)
 8000958:	40010400 	.word	0x40010400
 800095c:	4001001c 	.word	0x4001001c
 8000960:	ffbfffff 	.word	0xffbfffff
 8000964:	ffdfffff 	.word	0xffdfffff

08000968 <HAL_COMP_GetOutputLevel>:
 8000968:	4a07      	ldr	r2, [pc, #28]	; (8000988 <HAL_COMP_GetOutputLevel+0x20>)
 800096a:	6803      	ldr	r3, [r0, #0]
 800096c:	189b      	adds	r3, r3, r2
 800096e:	425a      	negs	r2, r3
 8000970:	4153      	adcs	r3, r2
 8000972:	4a06      	ldr	r2, [pc, #24]	; (800098c <HAL_COMP_GetOutputLevel+0x24>)
 8000974:	011b      	lsls	r3, r3, #4
 8000976:	6810      	ldr	r0, [r2, #0]
 8000978:	2280      	movs	r2, #128	; 0x80
 800097a:	01d2      	lsls	r2, r2, #7
 800097c:	0011      	movs	r1, r2
 800097e:	4099      	lsls	r1, r3
 8000980:	4008      	ands	r0, r1
 8000982:	d000      	beq.n	8000986 <HAL_COMP_GetOutputLevel+0x1e>
 8000984:	0010      	movs	r0, r2
 8000986:	4770      	bx	lr
 8000988:	bffeffe2 	.word	0xbffeffe2
 800098c:	4001001c 	.word	0x4001001c

08000990 <HAL_COMP_IRQHandler>:
 8000990:	4b08      	ldr	r3, [pc, #32]	; (80009b4 <HAL_COMP_IRQHandler+0x24>)
 8000992:	6802      	ldr	r2, [r0, #0]
 8000994:	b510      	push	{r4, lr}
 8000996:	429a      	cmp	r2, r3
 8000998:	d009      	beq.n	80009ae <HAL_COMP_IRQHandler+0x1e>
 800099a:	2380      	movs	r3, #128	; 0x80
 800099c:	03db      	lsls	r3, r3, #15
 800099e:	4a06      	ldr	r2, [pc, #24]	; (80009b8 <HAL_COMP_IRQHandler+0x28>)
 80009a0:	6951      	ldr	r1, [r2, #20]
 80009a2:	4219      	tst	r1, r3
 80009a4:	d002      	beq.n	80009ac <HAL_COMP_IRQHandler+0x1c>
 80009a6:	6153      	str	r3, [r2, #20]
 80009a8:	f002 f8a4 	bl	8002af4 <HAL_COMP_TriggerCallback>
 80009ac:	bd10      	pop	{r4, pc}
 80009ae:	2380      	movs	r3, #128	; 0x80
 80009b0:	039b      	lsls	r3, r3, #14
 80009b2:	e7f4      	b.n	800099e <HAL_COMP_IRQHandler+0xe>
 80009b4:	4001001c 	.word	0x4001001c
 80009b8:	40010400 	.word	0x40010400

080009bc <HAL_NVIC_SetPriority>:
 80009bc:	b570      	push	{r4, r5, r6, lr}
 80009be:	0189      	lsls	r1, r1, #6
 80009c0:	2800      	cmp	r0, #0
 80009c2:	da14      	bge.n	80009ee <HAL_NVIC_SetPriority+0x32>
 80009c4:	230f      	movs	r3, #15
 80009c6:	b2c0      	uxtb	r0, r0
 80009c8:	4003      	ands	r3, r0
 80009ca:	3b08      	subs	r3, #8
 80009cc:	4a11      	ldr	r2, [pc, #68]	; (8000a14 <HAL_NVIC_SetPriority+0x58>)
 80009ce:	089b      	lsrs	r3, r3, #2
 80009d0:	009b      	lsls	r3, r3, #2
 80009d2:	189b      	adds	r3, r3, r2
 80009d4:	2203      	movs	r2, #3
 80009d6:	4010      	ands	r0, r2
 80009d8:	4090      	lsls	r0, r2
 80009da:	32fc      	adds	r2, #252	; 0xfc
 80009dc:	0015      	movs	r5, r2
 80009de:	4011      	ands	r1, r2
 80009e0:	4085      	lsls	r5, r0
 80009e2:	4081      	lsls	r1, r0
 80009e4:	69dc      	ldr	r4, [r3, #28]
 80009e6:	43ac      	bics	r4, r5
 80009e8:	4321      	orrs	r1, r4
 80009ea:	61d9      	str	r1, [r3, #28]
 80009ec:	bd70      	pop	{r4, r5, r6, pc}
 80009ee:	2503      	movs	r5, #3
 80009f0:	0883      	lsrs	r3, r0, #2
 80009f2:	4028      	ands	r0, r5
 80009f4:	40a8      	lsls	r0, r5
 80009f6:	35fc      	adds	r5, #252	; 0xfc
 80009f8:	002e      	movs	r6, r5
 80009fa:	4a07      	ldr	r2, [pc, #28]	; (8000a18 <HAL_NVIC_SetPriority+0x5c>)
 80009fc:	009b      	lsls	r3, r3, #2
 80009fe:	189b      	adds	r3, r3, r2
 8000a00:	22c0      	movs	r2, #192	; 0xc0
 8000a02:	4086      	lsls	r6, r0
 8000a04:	4029      	ands	r1, r5
 8000a06:	4081      	lsls	r1, r0
 8000a08:	0092      	lsls	r2, r2, #2
 8000a0a:	589c      	ldr	r4, [r3, r2]
 8000a0c:	43b4      	bics	r4, r6
 8000a0e:	4321      	orrs	r1, r4
 8000a10:	5099      	str	r1, [r3, r2]
 8000a12:	e7eb      	b.n	80009ec <HAL_NVIC_SetPriority+0x30>
 8000a14:	e000ed00 	.word	0xe000ed00
 8000a18:	e000e100 	.word	0xe000e100

08000a1c <HAL_NVIC_EnableIRQ>:
 8000a1c:	231f      	movs	r3, #31
 8000a1e:	4018      	ands	r0, r3
 8000a20:	3b1e      	subs	r3, #30
 8000a22:	4083      	lsls	r3, r0
 8000a24:	4a01      	ldr	r2, [pc, #4]	; (8000a2c <HAL_NVIC_EnableIRQ+0x10>)
 8000a26:	6013      	str	r3, [r2, #0]
 8000a28:	4770      	bx	lr
 8000a2a:	46c0      	nop			; (mov r8, r8)
 8000a2c:	e000e100 	.word	0xe000e100

08000a30 <HAL_SYSTICK_Config>:
 8000a30:	4a09      	ldr	r2, [pc, #36]	; (8000a58 <HAL_SYSTICK_Config+0x28>)
 8000a32:	1e43      	subs	r3, r0, #1
 8000a34:	2001      	movs	r0, #1
 8000a36:	4293      	cmp	r3, r2
 8000a38:	d80d      	bhi.n	8000a56 <HAL_SYSTICK_Config+0x26>
 8000a3a:	21c0      	movs	r1, #192	; 0xc0
 8000a3c:	4a07      	ldr	r2, [pc, #28]	; (8000a5c <HAL_SYSTICK_Config+0x2c>)
 8000a3e:	4808      	ldr	r0, [pc, #32]	; (8000a60 <HAL_SYSTICK_Config+0x30>)
 8000a40:	6053      	str	r3, [r2, #4]
 8000a42:	6a03      	ldr	r3, [r0, #32]
 8000a44:	0609      	lsls	r1, r1, #24
 8000a46:	021b      	lsls	r3, r3, #8
 8000a48:	0a1b      	lsrs	r3, r3, #8
 8000a4a:	430b      	orrs	r3, r1
 8000a4c:	6203      	str	r3, [r0, #32]
 8000a4e:	2000      	movs	r0, #0
 8000a50:	2307      	movs	r3, #7
 8000a52:	6090      	str	r0, [r2, #8]
 8000a54:	6013      	str	r3, [r2, #0]
 8000a56:	4770      	bx	lr
 8000a58:	00ffffff 	.word	0x00ffffff
 8000a5c:	e000e010 	.word	0xe000e010
 8000a60:	e000ed00 	.word	0xe000ed00

08000a64 <HAL_SYSTICK_CLKSourceConfig>:
 8000a64:	4b05      	ldr	r3, [pc, #20]	; (8000a7c <HAL_SYSTICK_CLKSourceConfig+0x18>)
 8000a66:	681a      	ldr	r2, [r3, #0]
 8000a68:	2804      	cmp	r0, #4
 8000a6a:	d102      	bne.n	8000a72 <HAL_SYSTICK_CLKSourceConfig+0xe>
 8000a6c:	4310      	orrs	r0, r2
 8000a6e:	6018      	str	r0, [r3, #0]
 8000a70:	4770      	bx	lr
 8000a72:	2104      	movs	r1, #4
 8000a74:	438a      	bics	r2, r1
 8000a76:	601a      	str	r2, [r3, #0]
 8000a78:	e7fa      	b.n	8000a70 <HAL_SYSTICK_CLKSourceConfig+0xc>
 8000a7a:	46c0      	nop			; (mov r8, r8)
 8000a7c:	e000e010 	.word	0xe000e010

08000a80 <HAL_SYSTICK_Callback>:
 8000a80:	4770      	bx	lr

08000a82 <HAL_SYSTICK_IRQHandler>:
 8000a82:	b510      	push	{r4, lr}
 8000a84:	f7ff fffc 	bl	8000a80 <HAL_SYSTICK_Callback>
 8000a88:	bd10      	pop	{r4, pc}
	...

08000a8c <HAL_DMA_Init>:
 8000a8c:	b570      	push	{r4, r5, r6, lr}
 8000a8e:	0004      	movs	r4, r0
 8000a90:	2001      	movs	r0, #1
 8000a92:	2c00      	cmp	r4, #0
 8000a94:	d028      	beq.n	8000ae8 <HAL_DMA_Init+0x5c>
 8000a96:	2302      	movs	r3, #2
 8000a98:	6820      	ldr	r0, [r4, #0]
 8000a9a:	1ca5      	adds	r5, r4, #2
 8000a9c:	77eb      	strb	r3, [r5, #31]
 8000a9e:	6802      	ldr	r2, [r0, #0]
 8000aa0:	4b12      	ldr	r3, [pc, #72]	; (8000aec <HAL_DMA_Init+0x60>)
 8000aa2:	68a1      	ldr	r1, [r4, #8]
 8000aa4:	401a      	ands	r2, r3
 8000aa6:	6863      	ldr	r3, [r4, #4]
 8000aa8:	430b      	orrs	r3, r1
 8000aaa:	68e1      	ldr	r1, [r4, #12]
 8000aac:	430b      	orrs	r3, r1
 8000aae:	6921      	ldr	r1, [r4, #16]
 8000ab0:	430b      	orrs	r3, r1
 8000ab2:	6961      	ldr	r1, [r4, #20]
 8000ab4:	430b      	orrs	r3, r1
 8000ab6:	69a1      	ldr	r1, [r4, #24]
 8000ab8:	430b      	orrs	r3, r1
 8000aba:	69e1      	ldr	r1, [r4, #28]
 8000abc:	430b      	orrs	r3, r1
 8000abe:	4313      	orrs	r3, r2
 8000ac0:	6003      	str	r3, [r0, #0]
 8000ac2:	4b0b      	ldr	r3, [pc, #44]	; (8000af0 <HAL_DMA_Init+0x64>)
 8000ac4:	2114      	movs	r1, #20
 8000ac6:	18c0      	adds	r0, r0, r3
 8000ac8:	f7ff fb28 	bl	800011c <__udivsi3>
 8000acc:	4b09      	ldr	r3, [pc, #36]	; (8000af4 <HAL_DMA_Init+0x68>)
 8000ace:	0080      	lsls	r0, r0, #2
 8000ad0:	6420      	str	r0, [r4, #64]	; 0x40
 8000ad2:	63e3      	str	r3, [r4, #60]	; 0x3c
 8000ad4:	2000      	movs	r0, #0
 8000ad6:	2301      	movs	r3, #1
 8000ad8:	62a0      	str	r0, [r4, #40]	; 0x28
 8000ada:	62e0      	str	r0, [r4, #44]	; 0x2c
 8000adc:	6320      	str	r0, [r4, #48]	; 0x30
 8000ade:	6360      	str	r0, [r4, #52]	; 0x34
 8000ae0:	63a0      	str	r0, [r4, #56]	; 0x38
 8000ae2:	18e4      	adds	r4, r4, r3
 8000ae4:	77eb      	strb	r3, [r5, #31]
 8000ae6:	77e0      	strb	r0, [r4, #31]
 8000ae8:	bd70      	pop	{r4, r5, r6, pc}
 8000aea:	46c0      	nop			; (mov r8, r8)
 8000aec:	ffffc00f 	.word	0xffffc00f
 8000af0:	bffdfff8 	.word	0xbffdfff8
 8000af4:	40020000 	.word	0x40020000

08000af8 <HAL_DMA_Start_IT>:
 8000af8:	b5f0      	push	{r4, r5, r6, r7, lr}
 8000afa:	1c46      	adds	r6, r0, #1
 8000afc:	7ff5      	ldrb	r5, [r6, #31]
 8000afe:	2402      	movs	r4, #2
 8000b00:	2d01      	cmp	r5, #1
 8000b02:	d026      	beq.n	8000b52 <HAL_DMA_Start_IT+0x5a>
 8000b04:	2501      	movs	r5, #1
 8000b06:	77f5      	strb	r5, [r6, #31]
 8000b08:	1905      	adds	r5, r0, r4
 8000b0a:	46ac      	mov	ip, r5
 8000b0c:	7fed      	ldrb	r5, [r5, #31]
 8000b0e:	2700      	movs	r7, #0
 8000b10:	b2ed      	uxtb	r5, r5
 8000b12:	2d01      	cmp	r5, #1
 8000b14:	d129      	bne.n	8000b6a <HAL_DMA_Start_IT+0x72>
 8000b16:	4666      	mov	r6, ip
 8000b18:	77f4      	strb	r4, [r6, #31]
 8000b1a:	6804      	ldr	r4, [r0, #0]
 8000b1c:	6387      	str	r7, [r0, #56]	; 0x38
 8000b1e:	6826      	ldr	r6, [r4, #0]
 8000b20:	6c07      	ldr	r7, [r0, #64]	; 0x40
 8000b22:	43ae      	bics	r6, r5
 8000b24:	40bd      	lsls	r5, r7
 8000b26:	6026      	str	r6, [r4, #0]
 8000b28:	6bc6      	ldr	r6, [r0, #60]	; 0x3c
 8000b2a:	6075      	str	r5, [r6, #4]
 8000b2c:	6063      	str	r3, [r4, #4]
 8000b2e:	6843      	ldr	r3, [r0, #4]
 8000b30:	6805      	ldr	r5, [r0, #0]
 8000b32:	2b10      	cmp	r3, #16
 8000b34:	d10f      	bne.n	8000b56 <HAL_DMA_Start_IT+0x5e>
 8000b36:	60a2      	str	r2, [r4, #8]
 8000b38:	60e1      	str	r1, [r4, #12]
 8000b3a:	6ac3      	ldr	r3, [r0, #44]	; 0x2c
 8000b3c:	6822      	ldr	r2, [r4, #0]
 8000b3e:	2b00      	cmp	r3, #0
 8000b40:	d00c      	beq.n	8000b5c <HAL_DMA_Start_IT+0x64>
 8000b42:	230e      	movs	r3, #14
 8000b44:	4313      	orrs	r3, r2
 8000b46:	6023      	str	r3, [r4, #0]
 8000b48:	2301      	movs	r3, #1
 8000b4a:	2400      	movs	r4, #0
 8000b4c:	682a      	ldr	r2, [r5, #0]
 8000b4e:	4313      	orrs	r3, r2
 8000b50:	602b      	str	r3, [r5, #0]
 8000b52:	0020      	movs	r0, r4
 8000b54:	bdf0      	pop	{r4, r5, r6, r7, pc}
 8000b56:	60a1      	str	r1, [r4, #8]
 8000b58:	60e2      	str	r2, [r4, #12]
 8000b5a:	e7ee      	b.n	8000b3a <HAL_DMA_Start_IT+0x42>
 8000b5c:	230a      	movs	r3, #10
 8000b5e:	4313      	orrs	r3, r2
 8000b60:	2204      	movs	r2, #4
 8000b62:	6023      	str	r3, [r4, #0]
 8000b64:	6823      	ldr	r3, [r4, #0]
 8000b66:	4393      	bics	r3, r2
 8000b68:	e7ed      	b.n	8000b46 <HAL_DMA_Start_IT+0x4e>
 8000b6a:	77f7      	strb	r7, [r6, #31]
 8000b6c:	e7f1      	b.n	8000b52 <HAL_DMA_Start_IT+0x5a>

08000b6e <HAL_DMA_IRQHandler>:
 8000b6e:	b5f8      	push	{r3, r4, r5, r6, r7, lr}
 8000b70:	2704      	movs	r7, #4
 8000b72:	003e      	movs	r6, r7
 8000b74:	6c01      	ldr	r1, [r0, #64]	; 0x40
 8000b76:	6bc2      	ldr	r2, [r0, #60]	; 0x3c
 8000b78:	408e      	lsls	r6, r1
 8000b7a:	6815      	ldr	r5, [r2, #0]
 8000b7c:	6803      	ldr	r3, [r0, #0]
 8000b7e:	681c      	ldr	r4, [r3, #0]
 8000b80:	422e      	tst	r6, r5
 8000b82:	d00d      	beq.n	8000ba0 <HAL_DMA_IRQHandler+0x32>
 8000b84:	423c      	tst	r4, r7
 8000b86:	d00b      	beq.n	8000ba0 <HAL_DMA_IRQHandler+0x32>
 8000b88:	6819      	ldr	r1, [r3, #0]
 8000b8a:	0689      	lsls	r1, r1, #26
 8000b8c:	d402      	bmi.n	8000b94 <HAL_DMA_IRQHandler+0x26>
 8000b8e:	6819      	ldr	r1, [r3, #0]
 8000b90:	43b9      	bics	r1, r7
 8000b92:	6019      	str	r1, [r3, #0]
 8000b94:	6ac3      	ldr	r3, [r0, #44]	; 0x2c
 8000b96:	6056      	str	r6, [r2, #4]
 8000b98:	2b00      	cmp	r3, #0
 8000b9a:	d019      	beq.n	8000bd0 <HAL_DMA_IRQHandler+0x62>
 8000b9c:	4798      	blx	r3
 8000b9e:	e017      	b.n	8000bd0 <HAL_DMA_IRQHandler+0x62>
 8000ba0:	2702      	movs	r7, #2
 8000ba2:	003e      	movs	r6, r7
 8000ba4:	408e      	lsls	r6, r1
 8000ba6:	422e      	tst	r6, r5
 8000ba8:	d013      	beq.n	8000bd2 <HAL_DMA_IRQHandler+0x64>
 8000baa:	423c      	tst	r4, r7
 8000bac:	d011      	beq.n	8000bd2 <HAL_DMA_IRQHandler+0x64>
 8000bae:	6819      	ldr	r1, [r3, #0]
 8000bb0:	0689      	lsls	r1, r1, #26
 8000bb2:	d406      	bmi.n	8000bc2 <HAL_DMA_IRQHandler+0x54>
 8000bb4:	240a      	movs	r4, #10
 8000bb6:	6819      	ldr	r1, [r3, #0]
 8000bb8:	43a1      	bics	r1, r4
 8000bba:	6019      	str	r1, [r3, #0]
 8000bbc:	2101      	movs	r1, #1
 8000bbe:	19c3      	adds	r3, r0, r7
 8000bc0:	77d9      	strb	r1, [r3, #31]
 8000bc2:	6056      	str	r6, [r2, #4]
 8000bc4:	2200      	movs	r2, #0
 8000bc6:	1c43      	adds	r3, r0, #1
 8000bc8:	77da      	strb	r2, [r3, #31]
 8000bca:	6a83      	ldr	r3, [r0, #40]	; 0x28
 8000bcc:	4293      	cmp	r3, r2
 8000bce:	d1e5      	bne.n	8000b9c <HAL_DMA_IRQHandler+0x2e>
 8000bd0:	bdf8      	pop	{r3, r4, r5, r6, r7, pc}
 8000bd2:	2608      	movs	r6, #8
 8000bd4:	0037      	movs	r7, r6
 8000bd6:	408f      	lsls	r7, r1
 8000bd8:	423d      	tst	r5, r7
 8000bda:	d0f9      	beq.n	8000bd0 <HAL_DMA_IRQHandler+0x62>
 8000bdc:	4234      	tst	r4, r6
 8000bde:	d0f7      	beq.n	8000bd0 <HAL_DMA_IRQHandler+0x62>
 8000be0:	250e      	movs	r5, #14
 8000be2:	681c      	ldr	r4, [r3, #0]
 8000be4:	43ac      	bics	r4, r5
 8000be6:	601c      	str	r4, [r3, #0]
 8000be8:	2301      	movs	r3, #1
 8000bea:	001c      	movs	r4, r3
 8000bec:	408c      	lsls	r4, r1
 8000bee:	6054      	str	r4, [r2, #4]
 8000bf0:	1c82      	adds	r2, r0, #2
 8000bf2:	6383      	str	r3, [r0, #56]	; 0x38
 8000bf4:	77d3      	strb	r3, [r2, #31]
 8000bf6:	2200      	movs	r2, #0
 8000bf8:	18c3      	adds	r3, r0, r3
 8000bfa:	77da      	strb	r2, [r3, #31]
 8000bfc:	6b03      	ldr	r3, [r0, #48]	; 0x30
 8000bfe:	e7e5      	b.n	8000bcc <HAL_DMA_IRQHandler+0x5e>

08000c00 <FLASH_SetErrorCode>:
 8000c00:	2110      	movs	r1, #16
 8000c02:	4b0c      	ldr	r3, [pc, #48]	; (8000c34 <FLASH_SetErrorCode+0x34>)
 8000c04:	b530      	push	{r4, r5, lr}
 8000c06:	68d8      	ldr	r0, [r3, #12]
 8000c08:	2200      	movs	r2, #0
 8000c0a:	4208      	tst	r0, r1
 8000c0c:	d005      	beq.n	8000c1a <FLASH_SetErrorCode+0x1a>
 8000c0e:	480a      	ldr	r0, [pc, #40]	; (8000c38 <FLASH_SetErrorCode+0x38>)
 8000c10:	3202      	adds	r2, #2
 8000c12:	69c4      	ldr	r4, [r0, #28]
 8000c14:	4322      	orrs	r2, r4
 8000c16:	61c2      	str	r2, [r0, #28]
 8000c18:	000a      	movs	r2, r1
 8000c1a:	2004      	movs	r0, #4
 8000c1c:	68d9      	ldr	r1, [r3, #12]
 8000c1e:	4201      	tst	r1, r0
 8000c20:	d005      	beq.n	8000c2e <FLASH_SetErrorCode+0x2e>
 8000c22:	2101      	movs	r1, #1
 8000c24:	4c04      	ldr	r4, [pc, #16]	; (8000c38 <FLASH_SetErrorCode+0x38>)
 8000c26:	4302      	orrs	r2, r0
 8000c28:	69e5      	ldr	r5, [r4, #28]
 8000c2a:	4329      	orrs	r1, r5
 8000c2c:	61e1      	str	r1, [r4, #28]
 8000c2e:	60da      	str	r2, [r3, #12]
 8000c30:	bd30      	pop	{r4, r5, pc}
 8000c32:	46c0      	nop			; (mov r8, r8)
 8000c34:	40022000 	.word	0x40022000
 8000c38:	20000168 	.word	0x20000168

08000c3c <HAL_FLASH_Unlock>:
 8000c3c:	4b05      	ldr	r3, [pc, #20]	; (8000c54 <HAL_FLASH_Unlock+0x18>)
 8000c3e:	2001      	movs	r0, #1
 8000c40:	691a      	ldr	r2, [r3, #16]
 8000c42:	0612      	lsls	r2, r2, #24
 8000c44:	d504      	bpl.n	8000c50 <HAL_FLASH_Unlock+0x14>
 8000c46:	2000      	movs	r0, #0
 8000c48:	4a03      	ldr	r2, [pc, #12]	; (8000c58 <HAL_FLASH_Unlock+0x1c>)
 8000c4a:	605a      	str	r2, [r3, #4]
 8000c4c:	4a03      	ldr	r2, [pc, #12]	; (8000c5c <HAL_FLASH_Unlock+0x20>)
 8000c4e:	605a      	str	r2, [r3, #4]
 8000c50:	4770      	bx	lr
 8000c52:	46c0      	nop			; (mov r8, r8)
 8000c54:	40022000 	.word	0x40022000
 8000c58:	45670123 	.word	0x45670123
 8000c5c:	cdef89ab 	.word	0xcdef89ab

08000c60 <FLASH_WaitForLastOperation>:
 8000c60:	b570      	push	{r4, r5, r6, lr}
 8000c62:	0004      	movs	r4, r0
 8000c64:	f7ff fc06 	bl	8000474 <HAL_GetTick>
 8000c68:	2501      	movs	r5, #1
 8000c6a:	0006      	movs	r6, r0
 8000c6c:	4b10      	ldr	r3, [pc, #64]	; (8000cb0 <FLASH_WaitForLastOperation+0x50>)
 8000c6e:	001a      	movs	r2, r3
 8000c70:	68d9      	ldr	r1, [r3, #12]
 8000c72:	4229      	tst	r1, r5
 8000c74:	d10f      	bne.n	8000c96 <FLASH_WaitForLastOperation+0x36>
 8000c76:	2120      	movs	r1, #32
 8000c78:	68d8      	ldr	r0, [r3, #12]
 8000c7a:	4208      	tst	r0, r1
 8000c7c:	d000      	beq.n	8000c80 <FLASH_WaitForLastOperation+0x20>
 8000c7e:	60d9      	str	r1, [r3, #12]
 8000c80:	2310      	movs	r3, #16
 8000c82:	68d0      	ldr	r0, [r2, #12]
 8000c84:	4018      	ands	r0, r3
 8000c86:	d102      	bne.n	8000c8e <FLASH_WaitForLastOperation+0x2e>
 8000c88:	68d3      	ldr	r3, [r2, #12]
 8000c8a:	075b      	lsls	r3, r3, #29
 8000c8c:	d508      	bpl.n	8000ca0 <FLASH_WaitForLastOperation+0x40>
 8000c8e:	f7ff ffb7 	bl	8000c00 <FLASH_SetErrorCode>
 8000c92:	2001      	movs	r0, #1
 8000c94:	e004      	b.n	8000ca0 <FLASH_WaitForLastOperation+0x40>
 8000c96:	1c61      	adds	r1, r4, #1
 8000c98:	d0ea      	beq.n	8000c70 <FLASH_WaitForLastOperation+0x10>
 8000c9a:	2c00      	cmp	r4, #0
 8000c9c:	d101      	bne.n	8000ca2 <FLASH_WaitForLastOperation+0x42>
 8000c9e:	2003      	movs	r0, #3
 8000ca0:	bd70      	pop	{r4, r5, r6, pc}
 8000ca2:	f7ff fbe7 	bl	8000474 <HAL_GetTick>
 8000ca6:	1b80      	subs	r0, r0, r6
 8000ca8:	4284      	cmp	r4, r0
 8000caa:	d2df      	bcs.n	8000c6c <FLASH_WaitForLastOperation+0xc>
 8000cac:	e7f7      	b.n	8000c9e <FLASH_WaitForLastOperation+0x3e>
 8000cae:	46c0      	nop			; (mov r8, r8)
 8000cb0:	40022000 	.word	0x40022000

08000cb4 <HAL_FLASH_Program>:
 8000cb4:	b5f0      	push	{r4, r5, r6, r7, lr}
 8000cb6:	b085      	sub	sp, #20
 8000cb8:	9202      	str	r2, [sp, #8]
 8000cba:	9303      	str	r3, [sp, #12]
 8000cbc:	4b1b      	ldr	r3, [pc, #108]	; (8000d2c <HAL_FLASH_Program+0x78>)
 8000cbe:	9101      	str	r1, [sp, #4]
 8000cc0:	7e1a      	ldrb	r2, [r3, #24]
 8000cc2:	0004      	movs	r4, r0
 8000cc4:	2002      	movs	r0, #2
 8000cc6:	2a01      	cmp	r2, #1
 8000cc8:	d02e      	beq.n	8000d28 <HAL_FLASH_Program+0x74>
 8000cca:	2201      	movs	r2, #1
 8000ccc:	4818      	ldr	r0, [pc, #96]	; (8000d30 <HAL_FLASH_Program+0x7c>)
 8000cce:	761a      	strb	r2, [r3, #24]
 8000cd0:	f7ff ffc6 	bl	8000c60 <FLASH_WaitForLastOperation>
 8000cd4:	2800      	cmp	r0, #0
 8000cd6:	d124      	bne.n	8000d22 <HAL_FLASH_Program+0x6e>
 8000cd8:	0026      	movs	r6, r4
 8000cda:	2c01      	cmp	r4, #1
 8000cdc:	d002      	beq.n	8000ce4 <HAL_FLASH_Program+0x30>
 8000cde:	2c02      	cmp	r4, #2
 8000ce0:	d000      	beq.n	8000ce4 <HAL_FLASH_Program+0x30>
 8000ce2:	2604      	movs	r6, #4
 8000ce4:	2400      	movs	r4, #0
 8000ce6:	9802      	ldr	r0, [sp, #8]
 8000ce8:	9903      	ldr	r1, [sp, #12]
 8000cea:	0122      	lsls	r2, r4, #4
 8000cec:	f7ff fb8c 	bl	8000408 <__aeabi_llsr>
 8000cf0:	2200      	movs	r2, #0
 8000cf2:	2701      	movs	r7, #1
 8000cf4:	4b0d      	ldr	r3, [pc, #52]	; (8000d2c <HAL_FLASH_Program+0x78>)
 8000cf6:	4d0f      	ldr	r5, [pc, #60]	; (8000d34 <HAL_FLASH_Program+0x80>)
 8000cf8:	61da      	str	r2, [r3, #28]
 8000cfa:	692b      	ldr	r3, [r5, #16]
 8000cfc:	9a01      	ldr	r2, [sp, #4]
 8000cfe:	433b      	orrs	r3, r7
 8000d00:	612b      	str	r3, [r5, #16]
 8000d02:	0063      	lsls	r3, r4, #1
 8000d04:	189b      	adds	r3, r3, r2
 8000d06:	b280      	uxth	r0, r0
 8000d08:	8018      	strh	r0, [r3, #0]
 8000d0a:	4809      	ldr	r0, [pc, #36]	; (8000d30 <HAL_FLASH_Program+0x7c>)
 8000d0c:	f7ff ffa8 	bl	8000c60 <FLASH_WaitForLastOperation>
 8000d10:	692b      	ldr	r3, [r5, #16]
 8000d12:	43bb      	bics	r3, r7
 8000d14:	612b      	str	r3, [r5, #16]
 8000d16:	2800      	cmp	r0, #0
 8000d18:	d103      	bne.n	8000d22 <HAL_FLASH_Program+0x6e>
 8000d1a:	19e4      	adds	r4, r4, r7
 8000d1c:	b2e3      	uxtb	r3, r4
 8000d1e:	429e      	cmp	r6, r3
 8000d20:	d8e1      	bhi.n	8000ce6 <HAL_FLASH_Program+0x32>
 8000d22:	2200      	movs	r2, #0
 8000d24:	4b01      	ldr	r3, [pc, #4]	; (8000d2c <HAL_FLASH_Program+0x78>)
 8000d26:	761a      	strb	r2, [r3, #24]
 8000d28:	b005      	add	sp, #20
 8000d2a:	bdf0      	pop	{r4, r5, r6, r7, pc}
 8000d2c:	20000168 	.word	0x20000168
 8000d30:	0000c350 	.word	0x0000c350
 8000d34:	40022000 	.word	0x40022000

08000d38 <FLASH_MassErase>:
 8000d38:	2200      	movs	r2, #0
 8000d3a:	4b06      	ldr	r3, [pc, #24]	; (8000d54 <FLASH_MassErase+0x1c>)
 8000d3c:	61da      	str	r2, [r3, #28]
 8000d3e:	4b06      	ldr	r3, [pc, #24]	; (8000d58 <FLASH_MassErase+0x20>)
 8000d40:	3204      	adds	r2, #4
 8000d42:	6919      	ldr	r1, [r3, #16]
 8000d44:	430a      	orrs	r2, r1
 8000d46:	611a      	str	r2, [r3, #16]
 8000d48:	2240      	movs	r2, #64	; 0x40
 8000d4a:	6919      	ldr	r1, [r3, #16]
 8000d4c:	430a      	orrs	r2, r1
 8000d4e:	611a      	str	r2, [r3, #16]
 8000d50:	4770      	bx	lr
 8000d52:	46c0      	nop			; (mov r8, r8)
 8000d54:	20000168 	.word	0x20000168
 8000d58:	40022000 	.word	0x40022000

08000d5c <FLASH_PageErase>:
 8000d5c:	2200      	movs	r2, #0
 8000d5e:	4b06      	ldr	r3, [pc, #24]	; (8000d78 <FLASH_PageErase+0x1c>)
 8000d60:	61da      	str	r2, [r3, #28]
 8000d62:	4b06      	ldr	r3, [pc, #24]	; (8000d7c <FLASH_PageErase+0x20>)
 8000d64:	3202      	adds	r2, #2
 8000d66:	6919      	ldr	r1, [r3, #16]
 8000d68:	430a      	orrs	r2, r1
 8000d6a:	611a      	str	r2, [r3, #16]
 8000d6c:	2240      	movs	r2, #64	; 0x40
 8000d6e:	6158      	str	r0, [r3, #20]
 8000d70:	6919      	ldr	r1, [r3, #16]
 8000d72:	430a      	orrs	r2, r1
 8000d74:	611a      	str	r2, [r3, #16]
 8000d76:	4770      	bx	lr
 8000d78:	20000168 	.word	0x20000168
 8000d7c:	40022000 	.word	0x40022000

08000d80 <HAL_FLASHEx_Erase>:
 8000d80:	b5f8      	push	{r3, r4, r5, r6, r7, lr}
 8000d82:	4e21      	ldr	r6, [pc, #132]	; (8000e08 <HAL_FLASHEx_Erase+0x88>)
 8000d84:	0005      	movs	r5, r0
 8000d86:	7e33      	ldrb	r3, [r6, #24]
 8000d88:	000f      	movs	r7, r1
 8000d8a:	2002      	movs	r0, #2
 8000d8c:	2b01      	cmp	r3, #1
 8000d8e:	d00c      	beq.n	8000daa <HAL_FLASHEx_Erase+0x2a>
 8000d90:	2301      	movs	r3, #1
 8000d92:	7633      	strb	r3, [r6, #24]
 8000d94:	682b      	ldr	r3, [r5, #0]
 8000d96:	481d      	ldr	r0, [pc, #116]	; (8000e0c <HAL_FLASHEx_Erase+0x8c>)
 8000d98:	2b01      	cmp	r3, #1
 8000d9a:	d112      	bne.n	8000dc2 <HAL_FLASHEx_Erase+0x42>
 8000d9c:	f7ff ff60 	bl	8000c60 <FLASH_WaitForLastOperation>
 8000da0:	2800      	cmp	r0, #0
 8000da2:	d003      	beq.n	8000dac <HAL_FLASHEx_Erase+0x2c>
 8000da4:	2001      	movs	r0, #1
 8000da6:	2300      	movs	r3, #0
 8000da8:	7633      	strb	r3, [r6, #24]
 8000daa:	bdf8      	pop	{r3, r4, r5, r6, r7, pc}
 8000dac:	f7ff ffc4 	bl	8000d38 <FLASH_MassErase>
 8000db0:	4816      	ldr	r0, [pc, #88]	; (8000e0c <HAL_FLASHEx_Erase+0x8c>)
 8000db2:	f7ff ff55 	bl	8000c60 <FLASH_WaitForLastOperation>
 8000db6:	2104      	movs	r1, #4
 8000db8:	4a15      	ldr	r2, [pc, #84]	; (8000e10 <HAL_FLASHEx_Erase+0x90>)
 8000dba:	6913      	ldr	r3, [r2, #16]
 8000dbc:	438b      	bics	r3, r1
 8000dbe:	6113      	str	r3, [r2, #16]
 8000dc0:	e7f1      	b.n	8000da6 <HAL_FLASHEx_Erase+0x26>
 8000dc2:	f7ff ff4d 	bl	8000c60 <FLASH_WaitForLastOperation>
 8000dc6:	2800      	cmp	r0, #0
 8000dc8:	d1ec      	bne.n	8000da4 <HAL_FLASHEx_Erase+0x24>
 8000dca:	2301      	movs	r3, #1
 8000dcc:	425b      	negs	r3, r3
 8000dce:	603b      	str	r3, [r7, #0]
 8000dd0:	686c      	ldr	r4, [r5, #4]
 8000dd2:	3001      	adds	r0, #1
 8000dd4:	68ab      	ldr	r3, [r5, #8]
 8000dd6:	686a      	ldr	r2, [r5, #4]
 8000dd8:	029b      	lsls	r3, r3, #10
 8000dda:	189b      	adds	r3, r3, r2
 8000ddc:	429c      	cmp	r4, r3
 8000dde:	d2e2      	bcs.n	8000da6 <HAL_FLASHEx_Erase+0x26>
 8000de0:	0020      	movs	r0, r4
 8000de2:	f7ff ffbb 	bl	8000d5c <FLASH_PageErase>
 8000de6:	4809      	ldr	r0, [pc, #36]	; (8000e0c <HAL_FLASHEx_Erase+0x8c>)
 8000de8:	f7ff ff3a 	bl	8000c60 <FLASH_WaitForLastOperation>
 8000dec:	2102      	movs	r1, #2
 8000dee:	4a08      	ldr	r2, [pc, #32]	; (8000e10 <HAL_FLASHEx_Erase+0x90>)
 8000df0:	6913      	ldr	r3, [r2, #16]
 8000df2:	438b      	bics	r3, r1
 8000df4:	6113      	str	r3, [r2, #16]
 8000df6:	2800      	cmp	r0, #0
 8000df8:	d001      	beq.n	8000dfe <HAL_FLASHEx_Erase+0x7e>
 8000dfa:	603c      	str	r4, [r7, #0]
 8000dfc:	e7d3      	b.n	8000da6 <HAL_FLASHEx_Erase+0x26>
 8000dfe:	2380      	movs	r3, #128	; 0x80
 8000e00:	00db      	lsls	r3, r3, #3
 8000e02:	18e4      	adds	r4, r4, r3
 8000e04:	e7e6      	b.n	8000dd4 <HAL_FLASHEx_Erase+0x54>
 8000e06:	46c0      	nop			; (mov r8, r8)
 8000e08:	20000168 	.word	0x20000168
 8000e0c:	0000c350 	.word	0x0000c350
 8000e10:	40022000 	.word	0x40022000

08000e14 <HAL_GPIO_Init>:
 8000e14:	b5f0      	push	{r4, r5, r6, r7, lr}
 8000e16:	680b      	ldr	r3, [r1, #0]
 8000e18:	b087      	sub	sp, #28
 8000e1a:	9302      	str	r3, [sp, #8]
 8000e1c:	2300      	movs	r3, #0
 8000e1e:	9101      	str	r1, [sp, #4]
 8000e20:	9a02      	ldr	r2, [sp, #8]
 8000e22:	40da      	lsrs	r2, r3
 8000e24:	d101      	bne.n	8000e2a <HAL_GPIO_Init+0x16>
 8000e26:	b007      	add	sp, #28
 8000e28:	bdf0      	pop	{r4, r5, r6, r7, pc}
 8000e2a:	2201      	movs	r2, #1
 8000e2c:	409a      	lsls	r2, r3
 8000e2e:	9203      	str	r2, [sp, #12]
 8000e30:	9903      	ldr	r1, [sp, #12]
 8000e32:	9a02      	ldr	r2, [sp, #8]
 8000e34:	400a      	ands	r2, r1
 8000e36:	9200      	str	r2, [sp, #0]
 8000e38:	d100      	bne.n	8000e3c <HAL_GPIO_Init+0x28>
 8000e3a:	e08c      	b.n	8000f56 <HAL_GPIO_Init+0x142>
 8000e3c:	9a01      	ldr	r2, [sp, #4]
 8000e3e:	2110      	movs	r1, #16
 8000e40:	6852      	ldr	r2, [r2, #4]
 8000e42:	0016      	movs	r6, r2
 8000e44:	438e      	bics	r6, r1
 8000e46:	2e02      	cmp	r6, #2
 8000e48:	d10e      	bne.n	8000e68 <HAL_GPIO_Init+0x54>
 8000e4a:	2507      	movs	r5, #7
 8000e4c:	401d      	ands	r5, r3
 8000e4e:	00ad      	lsls	r5, r5, #2
 8000e50:	3901      	subs	r1, #1
 8000e52:	40a9      	lsls	r1, r5
 8000e54:	08dc      	lsrs	r4, r3, #3
 8000e56:	00a4      	lsls	r4, r4, #2
 8000e58:	1904      	adds	r4, r0, r4
 8000e5a:	6a27      	ldr	r7, [r4, #32]
 8000e5c:	438f      	bics	r7, r1
 8000e5e:	9901      	ldr	r1, [sp, #4]
 8000e60:	6909      	ldr	r1, [r1, #16]
 8000e62:	40a9      	lsls	r1, r5
 8000e64:	430f      	orrs	r7, r1
 8000e66:	6227      	str	r7, [r4, #32]
 8000e68:	2403      	movs	r4, #3
 8000e6a:	005f      	lsls	r7, r3, #1
 8000e6c:	40bc      	lsls	r4, r7
 8000e6e:	43e4      	mvns	r4, r4
 8000e70:	6805      	ldr	r5, [r0, #0]
 8000e72:	3e01      	subs	r6, #1
 8000e74:	4025      	ands	r5, r4
 8000e76:	46ac      	mov	ip, r5
 8000e78:	2503      	movs	r5, #3
 8000e7a:	4015      	ands	r5, r2
 8000e7c:	40bd      	lsls	r5, r7
 8000e7e:	4661      	mov	r1, ip
 8000e80:	430d      	orrs	r5, r1
 8000e82:	6005      	str	r5, [r0, #0]
 8000e84:	2e01      	cmp	r6, #1
 8000e86:	d80f      	bhi.n	8000ea8 <HAL_GPIO_Init+0x94>
 8000e88:	9901      	ldr	r1, [sp, #4]
 8000e8a:	6886      	ldr	r6, [r0, #8]
 8000e8c:	68cd      	ldr	r5, [r1, #12]
 8000e8e:	4026      	ands	r6, r4
 8000e90:	40bd      	lsls	r5, r7
 8000e92:	4335      	orrs	r5, r6
 8000e94:	6085      	str	r5, [r0, #8]
 8000e96:	6846      	ldr	r6, [r0, #4]
 8000e98:	9903      	ldr	r1, [sp, #12]
 8000e9a:	0915      	lsrs	r5, r2, #4
 8000e9c:	438e      	bics	r6, r1
 8000e9e:	2101      	movs	r1, #1
 8000ea0:	400d      	ands	r5, r1
 8000ea2:	409d      	lsls	r5, r3
 8000ea4:	4335      	orrs	r5, r6
 8000ea6:	6045      	str	r5, [r0, #4]
 8000ea8:	68c5      	ldr	r5, [r0, #12]
 8000eaa:	9901      	ldr	r1, [sp, #4]
 8000eac:	402c      	ands	r4, r5
 8000eae:	688d      	ldr	r5, [r1, #8]
 8000eb0:	2180      	movs	r1, #128	; 0x80
 8000eb2:	40bd      	lsls	r5, r7
 8000eb4:	0549      	lsls	r1, r1, #21
 8000eb6:	432c      	orrs	r4, r5
 8000eb8:	60c4      	str	r4, [r0, #12]
 8000eba:	420a      	tst	r2, r1
 8000ebc:	d04b      	beq.n	8000f56 <HAL_GPIO_Init+0x142>
 8000ebe:	2101      	movs	r1, #1
 8000ec0:	4c26      	ldr	r4, [pc, #152]	; (8000f5c <HAL_GPIO_Init+0x148>)
 8000ec2:	2603      	movs	r6, #3
 8000ec4:	69a5      	ldr	r5, [r4, #24]
 8000ec6:	401e      	ands	r6, r3
 8000ec8:	430d      	orrs	r5, r1
 8000eca:	61a5      	str	r5, [r4, #24]
 8000ecc:	69a4      	ldr	r4, [r4, #24]
 8000ece:	089d      	lsrs	r5, r3, #2
 8000ed0:	400c      	ands	r4, r1
 8000ed2:	9405      	str	r4, [sp, #20]
 8000ed4:	9c05      	ldr	r4, [sp, #20]
 8000ed6:	240f      	movs	r4, #15
 8000ed8:	4921      	ldr	r1, [pc, #132]	; (8000f60 <HAL_GPIO_Init+0x14c>)
 8000eda:	00ad      	lsls	r5, r5, #2
 8000edc:	00b6      	lsls	r6, r6, #2
 8000ede:	186d      	adds	r5, r5, r1
 8000ee0:	40b4      	lsls	r4, r6
 8000ee2:	2190      	movs	r1, #144	; 0x90
 8000ee4:	68af      	ldr	r7, [r5, #8]
 8000ee6:	05c9      	lsls	r1, r1, #23
 8000ee8:	43a7      	bics	r7, r4
 8000eea:	2400      	movs	r4, #0
 8000eec:	4288      	cmp	r0, r1
 8000eee:	d00c      	beq.n	8000f0a <HAL_GPIO_Init+0xf6>
 8000ef0:	491c      	ldr	r1, [pc, #112]	; (8000f64 <HAL_GPIO_Init+0x150>)
 8000ef2:	3401      	adds	r4, #1
 8000ef4:	4288      	cmp	r0, r1
 8000ef6:	d008      	beq.n	8000f0a <HAL_GPIO_Init+0xf6>
 8000ef8:	491b      	ldr	r1, [pc, #108]	; (8000f68 <HAL_GPIO_Init+0x154>)
 8000efa:	3401      	adds	r4, #1
 8000efc:	4288      	cmp	r0, r1
 8000efe:	d004      	beq.n	8000f0a <HAL_GPIO_Init+0xf6>
 8000f00:	491a      	ldr	r1, [pc, #104]	; (8000f6c <HAL_GPIO_Init+0x158>)
 8000f02:	3403      	adds	r4, #3
 8000f04:	4288      	cmp	r0, r1
 8000f06:	d100      	bne.n	8000f0a <HAL_GPIO_Init+0xf6>
 8000f08:	3c02      	subs	r4, #2
 8000f0a:	40b4      	lsls	r4, r6
 8000f0c:	9900      	ldr	r1, [sp, #0]
 8000f0e:	433c      	orrs	r4, r7
 8000f10:	000e      	movs	r6, r1
 8000f12:	60ac      	str	r4, [r5, #8]
 8000f14:	4c16      	ldr	r4, [pc, #88]	; (8000f70 <HAL_GPIO_Init+0x15c>)
 8000f16:	43cd      	mvns	r5, r1
 8000f18:	6827      	ldr	r7, [r4, #0]
 8000f1a:	433e      	orrs	r6, r7
 8000f1c:	03d1      	lsls	r1, r2, #15
 8000f1e:	d401      	bmi.n	8000f24 <HAL_GPIO_Init+0x110>
 8000f20:	003e      	movs	r6, r7
 8000f22:	402e      	ands	r6, r5
 8000f24:	6026      	str	r6, [r4, #0]
 8000f26:	6867      	ldr	r7, [r4, #4]
 8000f28:	9e00      	ldr	r6, [sp, #0]
 8000f2a:	433e      	orrs	r6, r7
 8000f2c:	0391      	lsls	r1, r2, #14
 8000f2e:	d401      	bmi.n	8000f34 <HAL_GPIO_Init+0x120>
 8000f30:	003e      	movs	r6, r7
 8000f32:	402e      	ands	r6, r5
 8000f34:	6066      	str	r6, [r4, #4]
 8000f36:	68a7      	ldr	r7, [r4, #8]
 8000f38:	9e00      	ldr	r6, [sp, #0]
 8000f3a:	433e      	orrs	r6, r7
 8000f3c:	02d1      	lsls	r1, r2, #11
 8000f3e:	d401      	bmi.n	8000f44 <HAL_GPIO_Init+0x130>
 8000f40:	003e      	movs	r6, r7
 8000f42:	402e      	ands	r6, r5
 8000f44:	60a6      	str	r6, [r4, #8]
 8000f46:	68e6      	ldr	r6, [r4, #12]
 8000f48:	9f00      	ldr	r7, [sp, #0]
 8000f4a:	4337      	orrs	r7, r6
 8000f4c:	0292      	lsls	r2, r2, #10
 8000f4e:	d401      	bmi.n	8000f54 <HAL_GPIO_Init+0x140>
 8000f50:	402e      	ands	r6, r5
 8000f52:	0037      	movs	r7, r6
 8000f54:	60e7      	str	r7, [r4, #12]
 8000f56:	3301      	adds	r3, #1
 8000f58:	e762      	b.n	8000e20 <HAL_GPIO_Init+0xc>
 8000f5a:	46c0      	nop			; (mov r8, r8)
 8000f5c:	40021000 	.word	0x40021000
 8000f60:	40010000 	.word	0x40010000
 8000f64:	48000400 	.word	0x48000400
 8000f68:	48000800 	.word	0x48000800
 8000f6c:	48000c00 	.word	0x48000c00
 8000f70:	40010400 	.word	0x40010400

08000f74 <HAL_GPIO_TogglePin>:
 8000f74:	6943      	ldr	r3, [r0, #20]
 8000f76:	4059      	eors	r1, r3
 8000f78:	6141      	str	r1, [r0, #20]
 8000f7a:	4770      	bx	lr

08000f7c <HAL_IWDG_Init>:
 8000f7c:	b570      	push	{r4, r5, r6, lr}
 8000f7e:	0004      	movs	r4, r0
 8000f80:	2001      	movs	r0, #1
 8000f82:	2c00      	cmp	r4, #0
 8000f84:	d014      	beq.n	8000fb0 <HAL_IWDG_Init+0x34>
 8000f86:	6823      	ldr	r3, [r4, #0]
 8000f88:	4a0f      	ldr	r2, [pc, #60]	; (8000fc8 <HAL_IWDG_Init+0x4c>)
 8000f8a:	601a      	str	r2, [r3, #0]
 8000f8c:	4a0f      	ldr	r2, [pc, #60]	; (8000fcc <HAL_IWDG_Init+0x50>)
 8000f8e:	601a      	str	r2, [r3, #0]
 8000f90:	6862      	ldr	r2, [r4, #4]
 8000f92:	605a      	str	r2, [r3, #4]
 8000f94:	68a2      	ldr	r2, [r4, #8]
 8000f96:	609a      	str	r2, [r3, #8]
 8000f98:	f7ff fa6c 	bl	8000474 <HAL_GetTick>
 8000f9c:	0005      	movs	r5, r0
 8000f9e:	6823      	ldr	r3, [r4, #0]
 8000fa0:	68d8      	ldr	r0, [r3, #12]
 8000fa2:	2800      	cmp	r0, #0
 8000fa4:	d105      	bne.n	8000fb2 <HAL_IWDG_Init+0x36>
 8000fa6:	6919      	ldr	r1, [r3, #16]
 8000fa8:	68e2      	ldr	r2, [r4, #12]
 8000faa:	4291      	cmp	r1, r2
 8000fac:	d008      	beq.n	8000fc0 <HAL_IWDG_Init+0x44>
 8000fae:	611a      	str	r2, [r3, #16]
 8000fb0:	bd70      	pop	{r4, r5, r6, pc}
 8000fb2:	f7ff fa5f 	bl	8000474 <HAL_GetTick>
 8000fb6:	1b40      	subs	r0, r0, r5
 8000fb8:	2827      	cmp	r0, #39	; 0x27
 8000fba:	d9f0      	bls.n	8000f9e <HAL_IWDG_Init+0x22>
 8000fbc:	2003      	movs	r0, #3
 8000fbe:	e7f7      	b.n	8000fb0 <HAL_IWDG_Init+0x34>
 8000fc0:	4a03      	ldr	r2, [pc, #12]	; (8000fd0 <HAL_IWDG_Init+0x54>)
 8000fc2:	601a      	str	r2, [r3, #0]
 8000fc4:	e7f4      	b.n	8000fb0 <HAL_IWDG_Init+0x34>
 8000fc6:	46c0      	nop			; (mov r8, r8)
 8000fc8:	0000cccc 	.word	0x0000cccc
 8000fcc:	00005555 	.word	0x00005555
 8000fd0:	0000aaaa 	.word	0x0000aaaa

08000fd4 <HAL_IWDG_Refresh>:
 8000fd4:	6803      	ldr	r3, [r0, #0]
 8000fd6:	4a02      	ldr	r2, [pc, #8]	; (8000fe0 <HAL_IWDG_Refresh+0xc>)
 8000fd8:	2000      	movs	r0, #0
 8000fda:	601a      	str	r2, [r3, #0]
 8000fdc:	4770      	bx	lr
 8000fde:	46c0      	nop			; (mov r8, r8)
 8000fe0:	0000aaaa 	.word	0x0000aaaa

08000fe4 <HAL_RCC_OscConfig>:
 8000fe4:	b5f0      	push	{r4, r5, r6, r7, lr}
 8000fe6:	6803      	ldr	r3, [r0, #0]
 8000fe8:	b085      	sub	sp, #20
 8000fea:	0005      	movs	r5, r0
 8000fec:	07db      	lsls	r3, r3, #31
 8000fee:	d42f      	bmi.n	8001050 <HAL_RCC_OscConfig+0x6c>
 8000ff0:	682b      	ldr	r3, [r5, #0]
 8000ff2:	079b      	lsls	r3, r3, #30
 8000ff4:	d500      	bpl.n	8000ff8 <HAL_RCC_OscConfig+0x14>
 8000ff6:	e081      	b.n	80010fc <HAL_RCC_OscConfig+0x118>
 8000ff8:	682b      	ldr	r3, [r5, #0]
 8000ffa:	071b      	lsls	r3, r3, #28
 8000ffc:	d500      	bpl.n	8001000 <HAL_RCC_OscConfig+0x1c>
 8000ffe:	e0bc      	b.n	800117a <HAL_RCC_OscConfig+0x196>
 8001000:	682b      	ldr	r3, [r5, #0]
 8001002:	075b      	lsls	r3, r3, #29
 8001004:	d500      	bpl.n	8001008 <HAL_RCC_OscConfig+0x24>
 8001006:	e0df      	b.n	80011c8 <HAL_RCC_OscConfig+0x1e4>
 8001008:	682b      	ldr	r3, [r5, #0]
 800100a:	06db      	lsls	r3, r3, #27
 800100c:	d51a      	bpl.n	8001044 <HAL_RCC_OscConfig+0x60>
 800100e:	696a      	ldr	r2, [r5, #20]
 8001010:	4cb5      	ldr	r4, [pc, #724]	; (80012e8 <HAL_RCC_OscConfig+0x304>)
 8001012:	2304      	movs	r3, #4
 8001014:	2a01      	cmp	r2, #1
 8001016:	d000      	beq.n	800101a <HAL_RCC_OscConfig+0x36>
 8001018:	e14b      	b.n	80012b2 <HAL_RCC_OscConfig+0x2ce>
 800101a:	6b61      	ldr	r1, [r4, #52]	; 0x34
 800101c:	2602      	movs	r6, #2
 800101e:	430b      	orrs	r3, r1
 8001020:	6363      	str	r3, [r4, #52]	; 0x34
 8001022:	6b63      	ldr	r3, [r4, #52]	; 0x34
 8001024:	431a      	orrs	r2, r3
 8001026:	6362      	str	r2, [r4, #52]	; 0x34
 8001028:	f7ff fa24 	bl	8000474 <HAL_GetTick>
 800102c:	0007      	movs	r7, r0
 800102e:	6b63      	ldr	r3, [r4, #52]	; 0x34
 8001030:	4233      	tst	r3, r6
 8001032:	d100      	bne.n	8001036 <HAL_RCC_OscConfig+0x52>
 8001034:	e136      	b.n	80012a4 <HAL_RCC_OscConfig+0x2c0>
 8001036:	21f8      	movs	r1, #248	; 0xf8
 8001038:	6b62      	ldr	r2, [r4, #52]	; 0x34
 800103a:	69ab      	ldr	r3, [r5, #24]
 800103c:	438a      	bics	r2, r1
 800103e:	00db      	lsls	r3, r3, #3
 8001040:	4313      	orrs	r3, r2
 8001042:	6363      	str	r3, [r4, #52]	; 0x34
 8001044:	6a29      	ldr	r1, [r5, #32]
 8001046:	2900      	cmp	r1, #0
 8001048:	d000      	beq.n	800104c <HAL_RCC_OscConfig+0x68>
 800104a:	e159      	b.n	8001300 <HAL_RCC_OscConfig+0x31c>
 800104c:	2000      	movs	r0, #0
 800104e:	e013      	b.n	8001078 <HAL_RCC_OscConfig+0x94>
 8001050:	210c      	movs	r1, #12
 8001052:	4ca5      	ldr	r4, [pc, #660]	; (80012e8 <HAL_RCC_OscConfig+0x304>)
 8001054:	6862      	ldr	r2, [r4, #4]
 8001056:	400a      	ands	r2, r1
 8001058:	2a04      	cmp	r2, #4
 800105a:	d006      	beq.n	800106a <HAL_RCC_OscConfig+0x86>
 800105c:	6863      	ldr	r3, [r4, #4]
 800105e:	400b      	ands	r3, r1
 8001060:	2b08      	cmp	r3, #8
 8001062:	d10b      	bne.n	800107c <HAL_RCC_OscConfig+0x98>
 8001064:	6863      	ldr	r3, [r4, #4]
 8001066:	03db      	lsls	r3, r3, #15
 8001068:	d508      	bpl.n	800107c <HAL_RCC_OscConfig+0x98>
 800106a:	6823      	ldr	r3, [r4, #0]
 800106c:	039b      	lsls	r3, r3, #14
 800106e:	d5bf      	bpl.n	8000ff0 <HAL_RCC_OscConfig+0xc>
 8001070:	686b      	ldr	r3, [r5, #4]
 8001072:	2b00      	cmp	r3, #0
 8001074:	d1bc      	bne.n	8000ff0 <HAL_RCC_OscConfig+0xc>
 8001076:	2001      	movs	r0, #1
 8001078:	b005      	add	sp, #20
 800107a:	bdf0      	pop	{r4, r5, r6, r7, pc}
 800107c:	686b      	ldr	r3, [r5, #4]
 800107e:	2b01      	cmp	r3, #1
 8001080:	d113      	bne.n	80010aa <HAL_RCC_OscConfig+0xc6>
 8001082:	2380      	movs	r3, #128	; 0x80
 8001084:	6822      	ldr	r2, [r4, #0]
 8001086:	025b      	lsls	r3, r3, #9
 8001088:	4313      	orrs	r3, r2
 800108a:	6023      	str	r3, [r4, #0]
 800108c:	f7ff f9f2 	bl	8000474 <HAL_GetTick>
 8001090:	2680      	movs	r6, #128	; 0x80
 8001092:	0007      	movs	r7, r0
 8001094:	02b6      	lsls	r6, r6, #10
 8001096:	6823      	ldr	r3, [r4, #0]
 8001098:	4233      	tst	r3, r6
 800109a:	d1a9      	bne.n	8000ff0 <HAL_RCC_OscConfig+0xc>
 800109c:	f7ff f9ea 	bl	8000474 <HAL_GetTick>
 80010a0:	1bc0      	subs	r0, r0, r7
 80010a2:	2864      	cmp	r0, #100	; 0x64
 80010a4:	d9f7      	bls.n	8001096 <HAL_RCC_OscConfig+0xb2>
 80010a6:	2003      	movs	r0, #3
 80010a8:	e7e6      	b.n	8001078 <HAL_RCC_OscConfig+0x94>
 80010aa:	2b00      	cmp	r3, #0
 80010ac:	d116      	bne.n	80010dc <HAL_RCC_OscConfig+0xf8>
 80010ae:	6823      	ldr	r3, [r4, #0]
 80010b0:	4a8e      	ldr	r2, [pc, #568]	; (80012ec <HAL_RCC_OscConfig+0x308>)
 80010b2:	2680      	movs	r6, #128	; 0x80
 80010b4:	4013      	ands	r3, r2
 80010b6:	6023      	str	r3, [r4, #0]
 80010b8:	6823      	ldr	r3, [r4, #0]
 80010ba:	4a8d      	ldr	r2, [pc, #564]	; (80012f0 <HAL_RCC_OscConfig+0x30c>)
 80010bc:	02b6      	lsls	r6, r6, #10
 80010be:	4013      	ands	r3, r2
 80010c0:	6023      	str	r3, [r4, #0]
 80010c2:	f7ff f9d7 	bl	8000474 <HAL_GetTick>
 80010c6:	0007      	movs	r7, r0
 80010c8:	6823      	ldr	r3, [r4, #0]
 80010ca:	4233      	tst	r3, r6
 80010cc:	d100      	bne.n	80010d0 <HAL_RCC_OscConfig+0xec>
 80010ce:	e78f      	b.n	8000ff0 <HAL_RCC_OscConfig+0xc>
 80010d0:	f7ff f9d0 	bl	8000474 <HAL_GetTick>
 80010d4:	1bc0      	subs	r0, r0, r7
 80010d6:	2864      	cmp	r0, #100	; 0x64
 80010d8:	d9f6      	bls.n	80010c8 <HAL_RCC_OscConfig+0xe4>
 80010da:	e7e4      	b.n	80010a6 <HAL_RCC_OscConfig+0xc2>
 80010dc:	2b05      	cmp	r3, #5
 80010de:	d105      	bne.n	80010ec <HAL_RCC_OscConfig+0x108>
 80010e0:	2380      	movs	r3, #128	; 0x80
 80010e2:	6822      	ldr	r2, [r4, #0]
 80010e4:	02db      	lsls	r3, r3, #11
 80010e6:	4313      	orrs	r3, r2
 80010e8:	6023      	str	r3, [r4, #0]
 80010ea:	e7ca      	b.n	8001082 <HAL_RCC_OscConfig+0x9e>
 80010ec:	6823      	ldr	r3, [r4, #0]
 80010ee:	4a7f      	ldr	r2, [pc, #508]	; (80012ec <HAL_RCC_OscConfig+0x308>)
 80010f0:	4013      	ands	r3, r2
 80010f2:	6023      	str	r3, [r4, #0]
 80010f4:	6823      	ldr	r3, [r4, #0]
 80010f6:	4a7e      	ldr	r2, [pc, #504]	; (80012f0 <HAL_RCC_OscConfig+0x30c>)
 80010f8:	4013      	ands	r3, r2
 80010fa:	e7c6      	b.n	800108a <HAL_RCC_OscConfig+0xa6>
 80010fc:	220c      	movs	r2, #12
 80010fe:	4c7a      	ldr	r4, [pc, #488]	; (80012e8 <HAL_RCC_OscConfig+0x304>)
 8001100:	6863      	ldr	r3, [r4, #4]
 8001102:	4213      	tst	r3, r2
 8001104:	d006      	beq.n	8001114 <HAL_RCC_OscConfig+0x130>
 8001106:	6863      	ldr	r3, [r4, #4]
 8001108:	4013      	ands	r3, r2
 800110a:	2b08      	cmp	r3, #8
 800110c:	d110      	bne.n	8001130 <HAL_RCC_OscConfig+0x14c>
 800110e:	6863      	ldr	r3, [r4, #4]
 8001110:	03db      	lsls	r3, r3, #15
 8001112:	d40d      	bmi.n	8001130 <HAL_RCC_OscConfig+0x14c>
 8001114:	6823      	ldr	r3, [r4, #0]
 8001116:	079b      	lsls	r3, r3, #30
 8001118:	d502      	bpl.n	8001120 <HAL_RCC_OscConfig+0x13c>
 800111a:	68eb      	ldr	r3, [r5, #12]
 800111c:	2b01      	cmp	r3, #1
 800111e:	d1aa      	bne.n	8001076 <HAL_RCC_OscConfig+0x92>
 8001120:	21f8      	movs	r1, #248	; 0xf8
 8001122:	6822      	ldr	r2, [r4, #0]
 8001124:	692b      	ldr	r3, [r5, #16]
 8001126:	438a      	bics	r2, r1
 8001128:	00db      	lsls	r3, r3, #3
 800112a:	4313      	orrs	r3, r2
 800112c:	6023      	str	r3, [r4, #0]
 800112e:	e763      	b.n	8000ff8 <HAL_RCC_OscConfig+0x14>
 8001130:	68ea      	ldr	r2, [r5, #12]
 8001132:	2301      	movs	r3, #1
 8001134:	2a00      	cmp	r2, #0
 8001136:	d00f      	beq.n	8001158 <HAL_RCC_OscConfig+0x174>
 8001138:	6822      	ldr	r2, [r4, #0]
 800113a:	2602      	movs	r6, #2
 800113c:	4313      	orrs	r3, r2
 800113e:	6023      	str	r3, [r4, #0]
 8001140:	f7ff f998 	bl	8000474 <HAL_GetTick>
 8001144:	0007      	movs	r7, r0
 8001146:	6823      	ldr	r3, [r4, #0]
 8001148:	4233      	tst	r3, r6
 800114a:	d1e9      	bne.n	8001120 <HAL_RCC_OscConfig+0x13c>
 800114c:	f7ff f992 	bl	8000474 <HAL_GetTick>
 8001150:	1bc0      	subs	r0, r0, r7
 8001152:	2802      	cmp	r0, #2
 8001154:	d9f7      	bls.n	8001146 <HAL_RCC_OscConfig+0x162>
 8001156:	e7a6      	b.n	80010a6 <HAL_RCC_OscConfig+0xc2>
 8001158:	6822      	ldr	r2, [r4, #0]
 800115a:	2602      	movs	r6, #2
 800115c:	439a      	bics	r2, r3
 800115e:	6022      	str	r2, [r4, #0]
 8001160:	f7ff f988 	bl	8000474 <HAL_GetTick>
 8001164:	0007      	movs	r7, r0
 8001166:	6823      	ldr	r3, [r4, #0]
 8001168:	4233      	tst	r3, r6
 800116a:	d100      	bne.n	800116e <HAL_RCC_OscConfig+0x18a>
 800116c:	e744      	b.n	8000ff8 <HAL_RCC_OscConfig+0x14>
 800116e:	f7ff f981 	bl	8000474 <HAL_GetTick>
 8001172:	1bc0      	subs	r0, r0, r7
 8001174:	2802      	cmp	r0, #2
 8001176:	d9f6      	bls.n	8001166 <HAL_RCC_OscConfig+0x182>
 8001178:	e795      	b.n	80010a6 <HAL_RCC_OscConfig+0xc2>
 800117a:	69ea      	ldr	r2, [r5, #28]
 800117c:	2301      	movs	r3, #1
 800117e:	4c5a      	ldr	r4, [pc, #360]	; (80012e8 <HAL_RCC_OscConfig+0x304>)
 8001180:	2a00      	cmp	r2, #0
 8001182:	d010      	beq.n	80011a6 <HAL_RCC_OscConfig+0x1c2>
 8001184:	6a62      	ldr	r2, [r4, #36]	; 0x24
 8001186:	2602      	movs	r6, #2
 8001188:	4313      	orrs	r3, r2
 800118a:	6263      	str	r3, [r4, #36]	; 0x24
 800118c:	f7ff f972 	bl	8000474 <HAL_GetTick>
 8001190:	0007      	movs	r7, r0
 8001192:	6a63      	ldr	r3, [r4, #36]	; 0x24
 8001194:	4233      	tst	r3, r6
 8001196:	d000      	beq.n	800119a <HAL_RCC_OscConfig+0x1b6>
 8001198:	e732      	b.n	8001000 <HAL_RCC_OscConfig+0x1c>
 800119a:	f7ff f96b 	bl	8000474 <HAL_GetTick>
 800119e:	1bc0      	subs	r0, r0, r7
 80011a0:	2802      	cmp	r0, #2
 80011a2:	d9f6      	bls.n	8001192 <HAL_RCC_OscConfig+0x1ae>
 80011a4:	e77f      	b.n	80010a6 <HAL_RCC_OscConfig+0xc2>
 80011a6:	6a62      	ldr	r2, [r4, #36]	; 0x24
 80011a8:	2602      	movs	r6, #2
 80011aa:	439a      	bics	r2, r3
 80011ac:	6262      	str	r2, [r4, #36]	; 0x24
 80011ae:	f7ff f961 	bl	8000474 <HAL_GetTick>
 80011b2:	0007      	movs	r7, r0
 80011b4:	6a63      	ldr	r3, [r4, #36]	; 0x24
 80011b6:	4233      	tst	r3, r6
 80011b8:	d100      	bne.n	80011bc <HAL_RCC_OscConfig+0x1d8>
 80011ba:	e721      	b.n	8001000 <HAL_RCC_OscConfig+0x1c>
 80011bc:	f7ff f95a 	bl	8000474 <HAL_GetTick>
 80011c0:	1bc0      	subs	r0, r0, r7
 80011c2:	2802      	cmp	r0, #2
 80011c4:	d9f6      	bls.n	80011b4 <HAL_RCC_OscConfig+0x1d0>
 80011c6:	e76e      	b.n	80010a6 <HAL_RCC_OscConfig+0xc2>
 80011c8:	2280      	movs	r2, #128	; 0x80
 80011ca:	2100      	movs	r1, #0
 80011cc:	4c46      	ldr	r4, [pc, #280]	; (80012e8 <HAL_RCC_OscConfig+0x304>)
 80011ce:	0552      	lsls	r2, r2, #21
 80011d0:	69e3      	ldr	r3, [r4, #28]
 80011d2:	9100      	str	r1, [sp, #0]
 80011d4:	4213      	tst	r3, r2
 80011d6:	d108      	bne.n	80011ea <HAL_RCC_OscConfig+0x206>
 80011d8:	69e3      	ldr	r3, [r4, #28]
 80011da:	4313      	orrs	r3, r2
 80011dc:	61e3      	str	r3, [r4, #28]
 80011de:	69e3      	ldr	r3, [r4, #28]
 80011e0:	4013      	ands	r3, r2
 80011e2:	9303      	str	r3, [sp, #12]
 80011e4:	9b03      	ldr	r3, [sp, #12]
 80011e6:	2301      	movs	r3, #1
 80011e8:	9300      	str	r3, [sp, #0]
 80011ea:	2780      	movs	r7, #128	; 0x80
 80011ec:	4e41      	ldr	r6, [pc, #260]	; (80012f4 <HAL_RCC_OscConfig+0x310>)
 80011ee:	007f      	lsls	r7, r7, #1
 80011f0:	6833      	ldr	r3, [r6, #0]
 80011f2:	423b      	tst	r3, r7
 80011f4:	d006      	beq.n	8001204 <HAL_RCC_OscConfig+0x220>
 80011f6:	68ab      	ldr	r3, [r5, #8]
 80011f8:	2b01      	cmp	r3, #1
 80011fa:	d113      	bne.n	8001224 <HAL_RCC_OscConfig+0x240>
 80011fc:	6a22      	ldr	r2, [r4, #32]
 80011fe:	4313      	orrs	r3, r2
 8001200:	6223      	str	r3, [r4, #32]
 8001202:	e030      	b.n	8001266 <HAL_RCC_OscConfig+0x282>
 8001204:	6833      	ldr	r3, [r6, #0]
 8001206:	433b      	orrs	r3, r7
 8001208:	6033      	str	r3, [r6, #0]
 800120a:	f7ff f933 	bl	8000474 <HAL_GetTick>
 800120e:	9001      	str	r0, [sp, #4]
 8001210:	6833      	ldr	r3, [r6, #0]
 8001212:	423b      	tst	r3, r7
 8001214:	d1ef      	bne.n	80011f6 <HAL_RCC_OscConfig+0x212>
 8001216:	f7ff f92d 	bl	8000474 <HAL_GetTick>
 800121a:	9b01      	ldr	r3, [sp, #4]
 800121c:	1ac0      	subs	r0, r0, r3
 800121e:	2864      	cmp	r0, #100	; 0x64
 8001220:	d9f6      	bls.n	8001210 <HAL_RCC_OscConfig+0x22c>
 8001222:	e740      	b.n	80010a6 <HAL_RCC_OscConfig+0xc2>
 8001224:	2201      	movs	r2, #1
 8001226:	2b00      	cmp	r3, #0
 8001228:	d114      	bne.n	8001254 <HAL_RCC_OscConfig+0x270>
 800122a:	6a23      	ldr	r3, [r4, #32]
 800122c:	2702      	movs	r7, #2
 800122e:	4393      	bics	r3, r2
 8001230:	6223      	str	r3, [r4, #32]
 8001232:	6a23      	ldr	r3, [r4, #32]
 8001234:	3203      	adds	r2, #3
 8001236:	4393      	bics	r3, r2
 8001238:	6223      	str	r3, [r4, #32]
 800123a:	f7ff f91b 	bl	8000474 <HAL_GetTick>
 800123e:	0006      	movs	r6, r0
 8001240:	6a23      	ldr	r3, [r4, #32]
 8001242:	423b      	tst	r3, r7
 8001244:	d025      	beq.n	8001292 <HAL_RCC_OscConfig+0x2ae>
 8001246:	f7ff f915 	bl	8000474 <HAL_GetTick>
 800124a:	4b2b      	ldr	r3, [pc, #172]	; (80012f8 <HAL_RCC_OscConfig+0x314>)
 800124c:	1b80      	subs	r0, r0, r6
 800124e:	4298      	cmp	r0, r3
 8001250:	d9f6      	bls.n	8001240 <HAL_RCC_OscConfig+0x25c>
 8001252:	e728      	b.n	80010a6 <HAL_RCC_OscConfig+0xc2>
 8001254:	2b05      	cmp	r3, #5
 8001256:	d10b      	bne.n	8001270 <HAL_RCC_OscConfig+0x28c>
 8001258:	6a21      	ldr	r1, [r4, #32]
 800125a:	3b01      	subs	r3, #1
 800125c:	430b      	orrs	r3, r1
 800125e:	6223      	str	r3, [r4, #32]
 8001260:	6a23      	ldr	r3, [r4, #32]
 8001262:	431a      	orrs	r2, r3
 8001264:	6222      	str	r2, [r4, #32]
 8001266:	f7ff f905 	bl	8000474 <HAL_GetTick>
 800126a:	2702      	movs	r7, #2
 800126c:	0006      	movs	r6, r0
 800126e:	e00d      	b.n	800128c <HAL_RCC_OscConfig+0x2a8>
 8001270:	6a23      	ldr	r3, [r4, #32]
 8001272:	4393      	bics	r3, r2
 8001274:	2204      	movs	r2, #4
 8001276:	6223      	str	r3, [r4, #32]
 8001278:	6a23      	ldr	r3, [r4, #32]
 800127a:	4393      	bics	r3, r2
 800127c:	e7c0      	b.n	8001200 <HAL_RCC_OscConfig+0x21c>
 800127e:	f7ff f8f9 	bl	8000474 <HAL_GetTick>
 8001282:	4b1d      	ldr	r3, [pc, #116]	; (80012f8 <HAL_RCC_OscConfig+0x314>)
 8001284:	1b80      	subs	r0, r0, r6
 8001286:	4298      	cmp	r0, r3
 8001288:	d900      	bls.n	800128c <HAL_RCC_OscConfig+0x2a8>
 800128a:	e70c      	b.n	80010a6 <HAL_RCC_OscConfig+0xc2>
 800128c:	6a23      	ldr	r3, [r4, #32]
 800128e:	423b      	tst	r3, r7
 8001290:	d0f5      	beq.n	800127e <HAL_RCC_OscConfig+0x29a>
 8001292:	9b00      	ldr	r3, [sp, #0]
 8001294:	2b01      	cmp	r3, #1
 8001296:	d000      	beq.n	800129a <HAL_RCC_OscConfig+0x2b6>
 8001298:	e6b6      	b.n	8001008 <HAL_RCC_OscConfig+0x24>
 800129a:	69e3      	ldr	r3, [r4, #28]
 800129c:	4a17      	ldr	r2, [pc, #92]	; (80012fc <HAL_RCC_OscConfig+0x318>)
 800129e:	4013      	ands	r3, r2
 80012a0:	61e3      	str	r3, [r4, #28]
 80012a2:	e6b1      	b.n	8001008 <HAL_RCC_OscConfig+0x24>
 80012a4:	f7ff f8e6 	bl	8000474 <HAL_GetTick>
 80012a8:	1bc0      	subs	r0, r0, r7
 80012aa:	2802      	cmp	r0, #2
 80012ac:	d800      	bhi.n	80012b0 <HAL_RCC_OscConfig+0x2cc>
 80012ae:	e6be      	b.n	800102e <HAL_RCC_OscConfig+0x4a>
 80012b0:	e6f9      	b.n	80010a6 <HAL_RCC_OscConfig+0xc2>
 80012b2:	3205      	adds	r2, #5
 80012b4:	d103      	bne.n	80012be <HAL_RCC_OscConfig+0x2da>
 80012b6:	6b62      	ldr	r2, [r4, #52]	; 0x34
 80012b8:	439a      	bics	r2, r3
 80012ba:	6362      	str	r2, [r4, #52]	; 0x34
 80012bc:	e6bb      	b.n	8001036 <HAL_RCC_OscConfig+0x52>
 80012be:	6b62      	ldr	r2, [r4, #52]	; 0x34
 80012c0:	2602      	movs	r6, #2
 80012c2:	4313      	orrs	r3, r2
 80012c4:	2201      	movs	r2, #1
 80012c6:	6363      	str	r3, [r4, #52]	; 0x34
 80012c8:	6b63      	ldr	r3, [r4, #52]	; 0x34
 80012ca:	4393      	bics	r3, r2
 80012cc:	6363      	str	r3, [r4, #52]	; 0x34
 80012ce:	f7ff f8d1 	bl	8000474 <HAL_GetTick>
 80012d2:	0007      	movs	r7, r0
 80012d4:	6b63      	ldr	r3, [r4, #52]	; 0x34
 80012d6:	4233      	tst	r3, r6
 80012d8:	d100      	bne.n	80012dc <HAL_RCC_OscConfig+0x2f8>
 80012da:	e6b3      	b.n	8001044 <HAL_RCC_OscConfig+0x60>
 80012dc:	f7ff f8ca 	bl	8000474 <HAL_GetTick>
 80012e0:	1bc0      	subs	r0, r0, r7
 80012e2:	2802      	cmp	r0, #2
 80012e4:	d9f6      	bls.n	80012d4 <HAL_RCC_OscConfig+0x2f0>
 80012e6:	e6de      	b.n	80010a6 <HAL_RCC_OscConfig+0xc2>
 80012e8:	40021000 	.word	0x40021000
 80012ec:	fffeffff 	.word	0xfffeffff
 80012f0:	fffbffff 	.word	0xfffbffff
 80012f4:	40007000 	.word	0x40007000
 80012f8:	00001388 	.word	0x00001388
 80012fc:	efffffff 	.word	0xefffffff
 8001300:	220c      	movs	r2, #12
 8001302:	4c26      	ldr	r4, [pc, #152]	; (800139c <HAL_RCC_OscConfig+0x3b8>)
 8001304:	2001      	movs	r0, #1
 8001306:	6863      	ldr	r3, [r4, #4]
 8001308:	4013      	ands	r3, r2
 800130a:	2b08      	cmp	r3, #8
 800130c:	d100      	bne.n	8001310 <HAL_RCC_OscConfig+0x32c>
 800130e:	e6b3      	b.n	8001078 <HAL_RCC_OscConfig+0x94>
 8001310:	6823      	ldr	r3, [r4, #0]
 8001312:	4a23      	ldr	r2, [pc, #140]	; (80013a0 <HAL_RCC_OscConfig+0x3bc>)
 8001314:	4013      	ands	r3, r2
 8001316:	6023      	str	r3, [r4, #0]
 8001318:	2902      	cmp	r1, #2
 800131a:	d12f      	bne.n	800137c <HAL_RCC_OscConfig+0x398>
 800131c:	f7ff f8aa 	bl	8000474 <HAL_GetTick>
 8001320:	2680      	movs	r6, #128	; 0x80
 8001322:	0007      	movs	r7, r0
 8001324:	04b6      	lsls	r6, r6, #18
 8001326:	6823      	ldr	r3, [r4, #0]
 8001328:	4233      	tst	r3, r6
 800132a:	d121      	bne.n	8001370 <HAL_RCC_OscConfig+0x38c>
 800132c:	220f      	movs	r2, #15
 800132e:	6ae3      	ldr	r3, [r4, #44]	; 0x2c
 8001330:	4393      	bics	r3, r2
 8001332:	6aea      	ldr	r2, [r5, #44]	; 0x2c
 8001334:	4313      	orrs	r3, r2
 8001336:	62e3      	str	r3, [r4, #44]	; 0x2c
 8001338:	6a69      	ldr	r1, [r5, #36]	; 0x24
 800133a:	6aab      	ldr	r3, [r5, #40]	; 0x28
 800133c:	6862      	ldr	r2, [r4, #4]
 800133e:	430b      	orrs	r3, r1
 8001340:	4918      	ldr	r1, [pc, #96]	; (80013a4 <HAL_RCC_OscConfig+0x3c0>)
 8001342:	2580      	movs	r5, #128	; 0x80
 8001344:	400a      	ands	r2, r1
 8001346:	4313      	orrs	r3, r2
 8001348:	6063      	str	r3, [r4, #4]
 800134a:	2380      	movs	r3, #128	; 0x80
 800134c:	6822      	ldr	r2, [r4, #0]
 800134e:	045b      	lsls	r3, r3, #17
 8001350:	4313      	orrs	r3, r2
 8001352:	6023      	str	r3, [r4, #0]
 8001354:	f7ff f88e 	bl	8000474 <HAL_GetTick>
 8001358:	0006      	movs	r6, r0
 800135a:	04ad      	lsls	r5, r5, #18
 800135c:	6823      	ldr	r3, [r4, #0]
 800135e:	422b      	tst	r3, r5
 8001360:	d000      	beq.n	8001364 <HAL_RCC_OscConfig+0x380>
 8001362:	e673      	b.n	800104c <HAL_RCC_OscConfig+0x68>
 8001364:	f7ff f886 	bl	8000474 <HAL_GetTick>
 8001368:	1b80      	subs	r0, r0, r6
 800136a:	2802      	cmp	r0, #2
 800136c:	d9f6      	bls.n	800135c <HAL_RCC_OscConfig+0x378>
 800136e:	e69a      	b.n	80010a6 <HAL_RCC_OscConfig+0xc2>
 8001370:	f7ff f880 	bl	8000474 <HAL_GetTick>
 8001374:	1bc0      	subs	r0, r0, r7
 8001376:	2802      	cmp	r0, #2
 8001378:	d9d5      	bls.n	8001326 <HAL_RCC_OscConfig+0x342>
 800137a:	e694      	b.n	80010a6 <HAL_RCC_OscConfig+0xc2>
 800137c:	f7ff f87a 	bl	8000474 <HAL_GetTick>
 8001380:	2580      	movs	r5, #128	; 0x80
 8001382:	0006      	movs	r6, r0
 8001384:	04ad      	lsls	r5, r5, #18
 8001386:	6823      	ldr	r3, [r4, #0]
 8001388:	422b      	tst	r3, r5
 800138a:	d100      	bne.n	800138e <HAL_RCC_OscConfig+0x3aa>
 800138c:	e65e      	b.n	800104c <HAL_RCC_OscConfig+0x68>
 800138e:	f7ff f871 	bl	8000474 <HAL_GetTick>
 8001392:	1b80      	subs	r0, r0, r6
 8001394:	2802      	cmp	r0, #2
 8001396:	d9f6      	bls.n	8001386 <HAL_RCC_OscConfig+0x3a2>
 8001398:	e685      	b.n	80010a6 <HAL_RCC_OscConfig+0xc2>
 800139a:	46c0      	nop			; (mov r8, r8)
 800139c:	40021000 	.word	0x40021000
 80013a0:	feffffff 	.word	0xfeffffff
 80013a4:	ffc2ffff 	.word	0xffc2ffff

080013a8 <HAL_RCC_GetSysClockFreq>:
 80013a8:	b570      	push	{r4, r5, r6, lr}
 80013aa:	4c14      	ldr	r4, [pc, #80]	; (80013fc <HAL_RCC_GetSysClockFreq+0x54>)
 80013ac:	b088      	sub	sp, #32
 80013ae:	2210      	movs	r2, #16
 80013b0:	0021      	movs	r1, r4
 80013b2:	4668      	mov	r0, sp
 80013b4:	f002 fe30 	bl	8004018 <memcpy>
 80013b8:	0021      	movs	r1, r4
 80013ba:	ad04      	add	r5, sp, #16
 80013bc:	2210      	movs	r2, #16
 80013be:	3110      	adds	r1, #16
 80013c0:	0028      	movs	r0, r5
 80013c2:	f002 fe29 	bl	8004018 <memcpy>
 80013c6:	220c      	movs	r2, #12
 80013c8:	4e0d      	ldr	r6, [pc, #52]	; (8001400 <HAL_RCC_GetSysClockFreq+0x58>)
 80013ca:	6873      	ldr	r3, [r6, #4]
 80013cc:	401a      	ands	r2, r3
 80013ce:	2a08      	cmp	r2, #8
 80013d0:	d111      	bne.n	80013f6 <HAL_RCC_GetSysClockFreq+0x4e>
 80013d2:	200f      	movs	r0, #15
 80013d4:	466a      	mov	r2, sp
 80013d6:	0c99      	lsrs	r1, r3, #18
 80013d8:	4001      	ands	r1, r0
 80013da:	5c54      	ldrb	r4, [r2, r1]
 80013dc:	6af2      	ldr	r2, [r6, #44]	; 0x2c
 80013de:	4002      	ands	r2, r0
 80013e0:	5ca9      	ldrb	r1, [r5, r2]
 80013e2:	03db      	lsls	r3, r3, #15
 80013e4:	d505      	bpl.n	80013f2 <HAL_RCC_GetSysClockFreq+0x4a>
 80013e6:	4807      	ldr	r0, [pc, #28]	; (8001404 <HAL_RCC_GetSysClockFreq+0x5c>)
 80013e8:	f7fe fe98 	bl	800011c <__udivsi3>
 80013ec:	4360      	muls	r0, r4
 80013ee:	b008      	add	sp, #32
 80013f0:	bd70      	pop	{r4, r5, r6, pc}
 80013f2:	4805      	ldr	r0, [pc, #20]	; (8001408 <HAL_RCC_GetSysClockFreq+0x60>)
 80013f4:	e7fa      	b.n	80013ec <HAL_RCC_GetSysClockFreq+0x44>
 80013f6:	4803      	ldr	r0, [pc, #12]	; (8001404 <HAL_RCC_GetSysClockFreq+0x5c>)
 80013f8:	e7f9      	b.n	80013ee <HAL_RCC_GetSysClockFreq+0x46>
 80013fa:	46c0      	nop			; (mov r8, r8)
 80013fc:	08004044 	.word	0x08004044
 8001400:	40021000 	.word	0x40021000
 8001404:	007a1200 	.word	0x007a1200
 8001408:	003d0900 	.word	0x003d0900

0800140c <HAL_RCC_ClockConfig>:
 800140c:	b5f7      	push	{r0, r1, r2, r4, r5, r6, r7, lr}
 800140e:	2201      	movs	r2, #1
 8001410:	4c43      	ldr	r4, [pc, #268]	; (8001520 <HAL_RCC_ClockConfig+0x114>)
 8001412:	0006      	movs	r6, r0
 8001414:	6823      	ldr	r3, [r4, #0]
 8001416:	000f      	movs	r7, r1
 8001418:	4013      	ands	r3, r2
 800141a:	428b      	cmp	r3, r1
 800141c:	d31c      	bcc.n	8001458 <HAL_RCC_ClockConfig+0x4c>
 800141e:	6832      	ldr	r2, [r6, #0]
 8001420:	0793      	lsls	r3, r2, #30
 8001422:	d423      	bmi.n	800146c <HAL_RCC_ClockConfig+0x60>
 8001424:	07d3      	lsls	r3, r2, #31
 8001426:	d429      	bmi.n	800147c <HAL_RCC_ClockConfig+0x70>
 8001428:	2301      	movs	r3, #1
 800142a:	6822      	ldr	r2, [r4, #0]
 800142c:	401a      	ands	r2, r3
 800142e:	4297      	cmp	r7, r2
 8001430:	d367      	bcc.n	8001502 <HAL_RCC_ClockConfig+0xf6>
 8001432:	6833      	ldr	r3, [r6, #0]
 8001434:	4c3b      	ldr	r4, [pc, #236]	; (8001524 <HAL_RCC_ClockConfig+0x118>)
 8001436:	075b      	lsls	r3, r3, #29
 8001438:	d46a      	bmi.n	8001510 <HAL_RCC_ClockConfig+0x104>
 800143a:	f7ff ffb5 	bl	80013a8 <HAL_RCC_GetSysClockFreq>
 800143e:	6863      	ldr	r3, [r4, #4]
 8001440:	4a39      	ldr	r2, [pc, #228]	; (8001528 <HAL_RCC_ClockConfig+0x11c>)
 8001442:	061b      	lsls	r3, r3, #24
 8001444:	0f1b      	lsrs	r3, r3, #28
 8001446:	5cd3      	ldrb	r3, [r2, r3]
 8001448:	40d8      	lsrs	r0, r3
 800144a:	4b38      	ldr	r3, [pc, #224]	; (800152c <HAL_RCC_ClockConfig+0x120>)
 800144c:	6018      	str	r0, [r3, #0]
 800144e:	2000      	movs	r0, #0
 8001450:	f7fe ffe6 	bl	8000420 <HAL_InitTick>
 8001454:	2000      	movs	r0, #0
 8001456:	e008      	b.n	800146a <HAL_RCC_ClockConfig+0x5e>
 8001458:	6823      	ldr	r3, [r4, #0]
 800145a:	4393      	bics	r3, r2
 800145c:	430b      	orrs	r3, r1
 800145e:	6023      	str	r3, [r4, #0]
 8001460:	6823      	ldr	r3, [r4, #0]
 8001462:	4013      	ands	r3, r2
 8001464:	4299      	cmp	r1, r3
 8001466:	d0da      	beq.n	800141e <HAL_RCC_ClockConfig+0x12>
 8001468:	2001      	movs	r0, #1
 800146a:	bdfe      	pop	{r1, r2, r3, r4, r5, r6, r7, pc}
 800146c:	20f0      	movs	r0, #240	; 0xf0
 800146e:	492d      	ldr	r1, [pc, #180]	; (8001524 <HAL_RCC_ClockConfig+0x118>)
 8001470:	684b      	ldr	r3, [r1, #4]
 8001472:	4383      	bics	r3, r0
 8001474:	68b0      	ldr	r0, [r6, #8]
 8001476:	4303      	orrs	r3, r0
 8001478:	604b      	str	r3, [r1, #4]
 800147a:	e7d3      	b.n	8001424 <HAL_RCC_ClockConfig+0x18>
 800147c:	4d29      	ldr	r5, [pc, #164]	; (8001524 <HAL_RCC_ClockConfig+0x118>)
 800147e:	6872      	ldr	r2, [r6, #4]
 8001480:	682b      	ldr	r3, [r5, #0]
 8001482:	2a01      	cmp	r2, #1
 8001484:	d11a      	bne.n	80014bc <HAL_RCC_ClockConfig+0xb0>
 8001486:	039b      	lsls	r3, r3, #14
 8001488:	d5ee      	bpl.n	8001468 <HAL_RCC_ClockConfig+0x5c>
 800148a:	2103      	movs	r1, #3
 800148c:	686b      	ldr	r3, [r5, #4]
 800148e:	438b      	bics	r3, r1
 8001490:	4313      	orrs	r3, r2
 8001492:	606b      	str	r3, [r5, #4]
 8001494:	f7fe ffee 	bl	8000474 <HAL_GetTick>
 8001498:	6873      	ldr	r3, [r6, #4]
 800149a:	9001      	str	r0, [sp, #4]
 800149c:	2b01      	cmp	r3, #1
 800149e:	d115      	bne.n	80014cc <HAL_RCC_ClockConfig+0xc0>
 80014a0:	220c      	movs	r2, #12
 80014a2:	686b      	ldr	r3, [r5, #4]
 80014a4:	4013      	ands	r3, r2
 80014a6:	2b04      	cmp	r3, #4
 80014a8:	d0be      	beq.n	8001428 <HAL_RCC_ClockConfig+0x1c>
 80014aa:	f7fe ffe3 	bl	8000474 <HAL_GetTick>
 80014ae:	9b01      	ldr	r3, [sp, #4]
 80014b0:	1ac0      	subs	r0, r0, r3
 80014b2:	4b1f      	ldr	r3, [pc, #124]	; (8001530 <HAL_RCC_ClockConfig+0x124>)
 80014b4:	4298      	cmp	r0, r3
 80014b6:	d9f3      	bls.n	80014a0 <HAL_RCC_ClockConfig+0x94>
 80014b8:	2003      	movs	r0, #3
 80014ba:	e7d6      	b.n	800146a <HAL_RCC_ClockConfig+0x5e>
 80014bc:	2a02      	cmp	r2, #2
 80014be:	d102      	bne.n	80014c6 <HAL_RCC_ClockConfig+0xba>
 80014c0:	019b      	lsls	r3, r3, #6
 80014c2:	d4e2      	bmi.n	800148a <HAL_RCC_ClockConfig+0x7e>
 80014c4:	e7d0      	b.n	8001468 <HAL_RCC_ClockConfig+0x5c>
 80014c6:	079b      	lsls	r3, r3, #30
 80014c8:	d4df      	bmi.n	800148a <HAL_RCC_ClockConfig+0x7e>
 80014ca:	e7cd      	b.n	8001468 <HAL_RCC_ClockConfig+0x5c>
 80014cc:	2b02      	cmp	r3, #2
 80014ce:	d012      	beq.n	80014f6 <HAL_RCC_ClockConfig+0xea>
 80014d0:	220c      	movs	r2, #12
 80014d2:	686b      	ldr	r3, [r5, #4]
 80014d4:	4213      	tst	r3, r2
 80014d6:	d0a7      	beq.n	8001428 <HAL_RCC_ClockConfig+0x1c>
 80014d8:	f7fe ffcc 	bl	8000474 <HAL_GetTick>
 80014dc:	9b01      	ldr	r3, [sp, #4]
 80014de:	1ac0      	subs	r0, r0, r3
 80014e0:	4b13      	ldr	r3, [pc, #76]	; (8001530 <HAL_RCC_ClockConfig+0x124>)
 80014e2:	4298      	cmp	r0, r3
 80014e4:	d9f4      	bls.n	80014d0 <HAL_RCC_ClockConfig+0xc4>
 80014e6:	e7e7      	b.n	80014b8 <HAL_RCC_ClockConfig+0xac>
 80014e8:	f7fe ffc4 	bl	8000474 <HAL_GetTick>
 80014ec:	9b01      	ldr	r3, [sp, #4]
 80014ee:	1ac0      	subs	r0, r0, r3
 80014f0:	4b0f      	ldr	r3, [pc, #60]	; (8001530 <HAL_RCC_ClockConfig+0x124>)
 80014f2:	4298      	cmp	r0, r3
 80014f4:	d8e0      	bhi.n	80014b8 <HAL_RCC_ClockConfig+0xac>
 80014f6:	220c      	movs	r2, #12
 80014f8:	686b      	ldr	r3, [r5, #4]
 80014fa:	4013      	ands	r3, r2
 80014fc:	2b08      	cmp	r3, #8
 80014fe:	d1f3      	bne.n	80014e8 <HAL_RCC_ClockConfig+0xdc>
 8001500:	e792      	b.n	8001428 <HAL_RCC_ClockConfig+0x1c>
 8001502:	6822      	ldr	r2, [r4, #0]
 8001504:	439a      	bics	r2, r3
 8001506:	6022      	str	r2, [r4, #0]
 8001508:	6822      	ldr	r2, [r4, #0]
 800150a:	421a      	tst	r2, r3
 800150c:	d1ac      	bne.n	8001468 <HAL_RCC_ClockConfig+0x5c>
 800150e:	e790      	b.n	8001432 <HAL_RCC_ClockConfig+0x26>
 8001510:	6863      	ldr	r3, [r4, #4]
 8001512:	4a08      	ldr	r2, [pc, #32]	; (8001534 <HAL_RCC_ClockConfig+0x128>)
 8001514:	4013      	ands	r3, r2
 8001516:	68f2      	ldr	r2, [r6, #12]
 8001518:	4313      	orrs	r3, r2
 800151a:	6063      	str	r3, [r4, #4]
 800151c:	e78d      	b.n	800143a <HAL_RCC_ClockConfig+0x2e>
 800151e:	46c0      	nop			; (mov r8, r8)
 8001520:	40022000 	.word	0x40022000
 8001524:	40021000 	.word	0x40021000
 8001528:	0800407f 	.word	0x0800407f
 800152c:	20000060 	.word	0x20000060
 8001530:	00001388 	.word	0x00001388
 8001534:	fffff8ff 	.word	0xfffff8ff

08001538 <HAL_RCC_GetHCLKFreq>:
 8001538:	4b01      	ldr	r3, [pc, #4]	; (8001540 <HAL_RCC_GetHCLKFreq+0x8>)
 800153a:	6818      	ldr	r0, [r3, #0]
 800153c:	4770      	bx	lr
 800153e:	46c0      	nop			; (mov r8, r8)
 8001540:	20000060 	.word	0x20000060

08001544 <TIM_OC1_SetConfig>:
 8001544:	2201      	movs	r2, #1
 8001546:	6a03      	ldr	r3, [r0, #32]
 8001548:	b570      	push	{r4, r5, r6, lr}
 800154a:	4393      	bics	r3, r2
 800154c:	6203      	str	r3, [r0, #32]
 800154e:	6a03      	ldr	r3, [r0, #32]
 8001550:	6844      	ldr	r4, [r0, #4]
 8001552:	6985      	ldr	r5, [r0, #24]
 8001554:	3272      	adds	r2, #114	; 0x72
 8001556:	4395      	bics	r5, r2
 8001558:	680a      	ldr	r2, [r1, #0]
 800155a:	4315      	orrs	r5, r2
 800155c:	2202      	movs	r2, #2
 800155e:	4393      	bics	r3, r2
 8001560:	688a      	ldr	r2, [r1, #8]
 8001562:	4313      	orrs	r3, r2
 8001564:	4a14      	ldr	r2, [pc, #80]	; (80015b8 <TIM_OC1_SetConfig+0x74>)
 8001566:	4290      	cmp	r0, r2
 8001568:	d008      	beq.n	800157c <TIM_OC1_SetConfig+0x38>
 800156a:	4e14      	ldr	r6, [pc, #80]	; (80015bc <TIM_OC1_SetConfig+0x78>)
 800156c:	42b0      	cmp	r0, r6
 800156e:	d005      	beq.n	800157c <TIM_OC1_SetConfig+0x38>
 8001570:	4e13      	ldr	r6, [pc, #76]	; (80015c0 <TIM_OC1_SetConfig+0x7c>)
 8001572:	42b0      	cmp	r0, r6
 8001574:	d002      	beq.n	800157c <TIM_OC1_SetConfig+0x38>
 8001576:	4e13      	ldr	r6, [pc, #76]	; (80015c4 <TIM_OC1_SetConfig+0x80>)
 8001578:	42b0      	cmp	r0, r6
 800157a:	d116      	bne.n	80015aa <TIM_OC1_SetConfig+0x66>
 800157c:	2608      	movs	r6, #8
 800157e:	43b3      	bics	r3, r6
 8001580:	68ce      	ldr	r6, [r1, #12]
 8001582:	4333      	orrs	r3, r6
 8001584:	2604      	movs	r6, #4
 8001586:	43b3      	bics	r3, r6
 8001588:	4290      	cmp	r0, r2
 800158a:	d008      	beq.n	800159e <TIM_OC1_SetConfig+0x5a>
 800158c:	4a0b      	ldr	r2, [pc, #44]	; (80015bc <TIM_OC1_SetConfig+0x78>)
 800158e:	4290      	cmp	r0, r2
 8001590:	d005      	beq.n	800159e <TIM_OC1_SetConfig+0x5a>
 8001592:	4a0b      	ldr	r2, [pc, #44]	; (80015c0 <TIM_OC1_SetConfig+0x7c>)
 8001594:	4290      	cmp	r0, r2
 8001596:	d002      	beq.n	800159e <TIM_OC1_SetConfig+0x5a>
 8001598:	4a0a      	ldr	r2, [pc, #40]	; (80015c4 <TIM_OC1_SetConfig+0x80>)
 800159a:	4290      	cmp	r0, r2
 800159c:	d105      	bne.n	80015aa <TIM_OC1_SetConfig+0x66>
 800159e:	4a0a      	ldr	r2, [pc, #40]	; (80015c8 <TIM_OC1_SetConfig+0x84>)
 80015a0:	698e      	ldr	r6, [r1, #24]
 80015a2:	4022      	ands	r2, r4
 80015a4:	694c      	ldr	r4, [r1, #20]
 80015a6:	4334      	orrs	r4, r6
 80015a8:	4314      	orrs	r4, r2
 80015aa:	684a      	ldr	r2, [r1, #4]
 80015ac:	6044      	str	r4, [r0, #4]
 80015ae:	6185      	str	r5, [r0, #24]
 80015b0:	6342      	str	r2, [r0, #52]	; 0x34
 80015b2:	6203      	str	r3, [r0, #32]
 80015b4:	bd70      	pop	{r4, r5, r6, pc}
 80015b6:	46c0      	nop			; (mov r8, r8)
 80015b8:	40012c00 	.word	0x40012c00
 80015bc:	40014000 	.word	0x40014000
 80015c0:	40014400 	.word	0x40014400
 80015c4:	40014800 	.word	0x40014800
 80015c8:	fffffcff 	.word	0xfffffcff

080015cc <TIM_OC3_SetConfig>:
 80015cc:	b570      	push	{r4, r5, r6, lr}
 80015ce:	2573      	movs	r5, #115	; 0x73
 80015d0:	6a03      	ldr	r3, [r0, #32]
 80015d2:	4a17      	ldr	r2, [pc, #92]	; (8001630 <TIM_OC3_SetConfig+0x64>)
 80015d4:	4013      	ands	r3, r2
 80015d6:	6203      	str	r3, [r0, #32]
 80015d8:	6a03      	ldr	r3, [r0, #32]
 80015da:	6842      	ldr	r2, [r0, #4]
 80015dc:	69c4      	ldr	r4, [r0, #28]
 80015de:	43ac      	bics	r4, r5
 80015e0:	680d      	ldr	r5, [r1, #0]
 80015e2:	432c      	orrs	r4, r5
 80015e4:	4d13      	ldr	r5, [pc, #76]	; (8001634 <TIM_OC3_SetConfig+0x68>)
 80015e6:	402b      	ands	r3, r5
 80015e8:	688d      	ldr	r5, [r1, #8]
 80015ea:	022d      	lsls	r5, r5, #8
 80015ec:	432b      	orrs	r3, r5
 80015ee:	4d12      	ldr	r5, [pc, #72]	; (8001638 <TIM_OC3_SetConfig+0x6c>)
 80015f0:	42a8      	cmp	r0, r5
 80015f2:	d10e      	bne.n	8001612 <TIM_OC3_SetConfig+0x46>
 80015f4:	4d11      	ldr	r5, [pc, #68]	; (800163c <TIM_OC3_SetConfig+0x70>)
 80015f6:	401d      	ands	r5, r3
 80015f8:	68cb      	ldr	r3, [r1, #12]
 80015fa:	021b      	lsls	r3, r3, #8
 80015fc:	432b      	orrs	r3, r5
 80015fe:	4d10      	ldr	r5, [pc, #64]	; (8001640 <TIM_OC3_SetConfig+0x74>)
 8001600:	402b      	ands	r3, r5
 8001602:	4d10      	ldr	r5, [pc, #64]	; (8001644 <TIM_OC3_SetConfig+0x78>)
 8001604:	694e      	ldr	r6, [r1, #20]
 8001606:	4015      	ands	r5, r2
 8001608:	698a      	ldr	r2, [r1, #24]
 800160a:	4332      	orrs	r2, r6
 800160c:	0112      	lsls	r2, r2, #4
 800160e:	432a      	orrs	r2, r5
 8001610:	e008      	b.n	8001624 <TIM_OC3_SetConfig+0x58>
 8001612:	4d0d      	ldr	r5, [pc, #52]	; (8001648 <TIM_OC3_SetConfig+0x7c>)
 8001614:	42a8      	cmp	r0, r5
 8001616:	d0f4      	beq.n	8001602 <TIM_OC3_SetConfig+0x36>
 8001618:	4d0c      	ldr	r5, [pc, #48]	; (800164c <TIM_OC3_SetConfig+0x80>)
 800161a:	42a8      	cmp	r0, r5
 800161c:	d0f1      	beq.n	8001602 <TIM_OC3_SetConfig+0x36>
 800161e:	4d0c      	ldr	r5, [pc, #48]	; (8001650 <TIM_OC3_SetConfig+0x84>)
 8001620:	42a8      	cmp	r0, r5
 8001622:	d0ee      	beq.n	8001602 <TIM_OC3_SetConfig+0x36>
 8001624:	6042      	str	r2, [r0, #4]
 8001626:	684a      	ldr	r2, [r1, #4]
 8001628:	61c4      	str	r4, [r0, #28]
 800162a:	63c2      	str	r2, [r0, #60]	; 0x3c
 800162c:	6203      	str	r3, [r0, #32]
 800162e:	bd70      	pop	{r4, r5, r6, pc}
 8001630:	fffffeff 	.word	0xfffffeff
 8001634:	fffffdff 	.word	0xfffffdff
 8001638:	40012c00 	.word	0x40012c00
 800163c:	fffff7ff 	.word	0xfffff7ff
 8001640:	fffffbff 	.word	0xfffffbff
 8001644:	ffffcfff 	.word	0xffffcfff
 8001648:	40014000 	.word	0x40014000
 800164c:	40014400 	.word	0x40014400
 8001650:	40014800 	.word	0x40014800

08001654 <TIM_OC4_SetConfig>:
 8001654:	6a03      	ldr	r3, [r0, #32]
 8001656:	4a14      	ldr	r2, [pc, #80]	; (80016a8 <TIM_OC4_SetConfig+0x54>)
 8001658:	b530      	push	{r4, r5, lr}
 800165a:	4013      	ands	r3, r2
 800165c:	6203      	str	r3, [r0, #32]
 800165e:	6a02      	ldr	r2, [r0, #32]
 8001660:	4c12      	ldr	r4, [pc, #72]	; (80016ac <TIM_OC4_SetConfig+0x58>)
 8001662:	6843      	ldr	r3, [r0, #4]
 8001664:	69c5      	ldr	r5, [r0, #28]
 8001666:	4025      	ands	r5, r4
 8001668:	680c      	ldr	r4, [r1, #0]
 800166a:	0224      	lsls	r4, r4, #8
 800166c:	4325      	orrs	r5, r4
 800166e:	4c10      	ldr	r4, [pc, #64]	; (80016b0 <TIM_OC4_SetConfig+0x5c>)
 8001670:	4022      	ands	r2, r4
 8001672:	688c      	ldr	r4, [r1, #8]
 8001674:	0324      	lsls	r4, r4, #12
 8001676:	4322      	orrs	r2, r4
 8001678:	4c0e      	ldr	r4, [pc, #56]	; (80016b4 <TIM_OC4_SetConfig+0x60>)
 800167a:	42a0      	cmp	r0, r4
 800167c:	d008      	beq.n	8001690 <TIM_OC4_SetConfig+0x3c>
 800167e:	4c0e      	ldr	r4, [pc, #56]	; (80016b8 <TIM_OC4_SetConfig+0x64>)
 8001680:	42a0      	cmp	r0, r4
 8001682:	d005      	beq.n	8001690 <TIM_OC4_SetConfig+0x3c>
 8001684:	4c0d      	ldr	r4, [pc, #52]	; (80016bc <TIM_OC4_SetConfig+0x68>)
 8001686:	42a0      	cmp	r0, r4
 8001688:	d002      	beq.n	8001690 <TIM_OC4_SetConfig+0x3c>
 800168a:	4c0d      	ldr	r4, [pc, #52]	; (80016c0 <TIM_OC4_SetConfig+0x6c>)
 800168c:	42a0      	cmp	r0, r4
 800168e:	d104      	bne.n	800169a <TIM_OC4_SetConfig+0x46>
 8001690:	4c0c      	ldr	r4, [pc, #48]	; (80016c4 <TIM_OC4_SetConfig+0x70>)
 8001692:	4023      	ands	r3, r4
 8001694:	694c      	ldr	r4, [r1, #20]
 8001696:	01a4      	lsls	r4, r4, #6
 8001698:	4323      	orrs	r3, r4
 800169a:	6043      	str	r3, [r0, #4]
 800169c:	684b      	ldr	r3, [r1, #4]
 800169e:	61c5      	str	r5, [r0, #28]
 80016a0:	6403      	str	r3, [r0, #64]	; 0x40
 80016a2:	6202      	str	r2, [r0, #32]
 80016a4:	bd30      	pop	{r4, r5, pc}
 80016a6:	46c0      	nop			; (mov r8, r8)
 80016a8:	ffffefff 	.word	0xffffefff
 80016ac:	ffff8cff 	.word	0xffff8cff
 80016b0:	ffffdfff 	.word	0xffffdfff
 80016b4:	40012c00 	.word	0x40012c00
 80016b8:	40014000 	.word	0x40014000
 80016bc:	40014400 	.word	0x40014400
 80016c0:	40014800 	.word	0x40014800
 80016c4:	ffffbfff 	.word	0xffffbfff

080016c8 <HAL_TIM_Base_Start>:
 80016c8:	0002      	movs	r2, r0
 80016ca:	2302      	movs	r3, #2
 80016cc:	2101      	movs	r1, #1
 80016ce:	6800      	ldr	r0, [r0, #0]
 80016d0:	323d      	adds	r2, #61	; 0x3d
 80016d2:	7013      	strb	r3, [r2, #0]
 80016d4:	6803      	ldr	r3, [r0, #0]
 80016d6:	430b      	orrs	r3, r1
 80016d8:	6003      	str	r3, [r0, #0]
 80016da:	2000      	movs	r0, #0
 80016dc:	7011      	strb	r1, [r2, #0]
 80016de:	4770      	bx	lr

080016e0 <HAL_TIM_Base_Start_IT>:
 80016e0:	2201      	movs	r2, #1
 80016e2:	6803      	ldr	r3, [r0, #0]
 80016e4:	68d9      	ldr	r1, [r3, #12]
 80016e6:	2000      	movs	r0, #0
 80016e8:	4311      	orrs	r1, r2
 80016ea:	60d9      	str	r1, [r3, #12]
 80016ec:	6819      	ldr	r1, [r3, #0]
 80016ee:	430a      	orrs	r2, r1
 80016f0:	601a      	str	r2, [r3, #0]
 80016f2:	4770      	bx	lr

080016f4 <HAL_TIM_PWM_MspInit>:
 80016f4:	4770      	bx	lr

080016f6 <HAL_TIM_IC_MspInit>:
 80016f6:	4770      	bx	lr

080016f8 <HAL_TIM_OC_DelayElapsedCallback>:
 80016f8:	4770      	bx	lr

080016fa <HAL_TIM_IC_CaptureCallback>:
 80016fa:	4770      	bx	lr

080016fc <TIM_DMACaptureCplt>:
 80016fc:	b510      	push	{r4, lr}
 80016fe:	6a44      	ldr	r4, [r0, #36]	; 0x24
 8001700:	2301      	movs	r3, #1
 8001702:	0022      	movs	r2, r4
 8001704:	323d      	adds	r2, #61	; 0x3d
 8001706:	7013      	strb	r3, [r2, #0]
 8001708:	6a62      	ldr	r2, [r4, #36]	; 0x24
 800170a:	4290      	cmp	r0, r2
 800170c:	d106      	bne.n	800171c <TIM_DMACaptureCplt+0x20>
 800170e:	7723      	strb	r3, [r4, #28]
 8001710:	0020      	movs	r0, r4
 8001712:	f7ff fff2 	bl	80016fa <HAL_TIM_IC_CaptureCallback>
 8001716:	2300      	movs	r3, #0
 8001718:	7723      	strb	r3, [r4, #28]
 800171a:	bd10      	pop	{r4, pc}
 800171c:	6aa3      	ldr	r3, [r4, #40]	; 0x28
 800171e:	4298      	cmp	r0, r3
 8001720:	d101      	bne.n	8001726 <TIM_DMACaptureCplt+0x2a>
 8001722:	2302      	movs	r3, #2
 8001724:	e7f3      	b.n	800170e <TIM_DMACaptureCplt+0x12>
 8001726:	6ae3      	ldr	r3, [r4, #44]	; 0x2c
 8001728:	4298      	cmp	r0, r3
 800172a:	d101      	bne.n	8001730 <TIM_DMACaptureCplt+0x34>
 800172c:	2304      	movs	r3, #4
 800172e:	e7ee      	b.n	800170e <TIM_DMACaptureCplt+0x12>
 8001730:	6b23      	ldr	r3, [r4, #48]	; 0x30
 8001732:	4298      	cmp	r0, r3
 8001734:	d1ec      	bne.n	8001710 <TIM_DMACaptureCplt+0x14>
 8001736:	2308      	movs	r3, #8
 8001738:	e7e9      	b.n	800170e <TIM_DMACaptureCplt+0x12>

0800173a <HAL_TIM_PWM_PulseFinishedCallback>:
 800173a:	4770      	bx	lr

0800173c <HAL_TIM_TriggerCallback>:
 800173c:	4770      	bx	lr

0800173e <HAL_TIM_IRQHandler>:
 800173e:	2202      	movs	r2, #2
 8001740:	6803      	ldr	r3, [r0, #0]
 8001742:	b510      	push	{r4, lr}
 8001744:	6919      	ldr	r1, [r3, #16]
 8001746:	0004      	movs	r4, r0
 8001748:	4211      	tst	r1, r2
 800174a:	d00e      	beq.n	800176a <HAL_TIM_IRQHandler+0x2c>
 800174c:	68d9      	ldr	r1, [r3, #12]
 800174e:	4211      	tst	r1, r2
 8001750:	d00b      	beq.n	800176a <HAL_TIM_IRQHandler+0x2c>
 8001752:	3a05      	subs	r2, #5
 8001754:	611a      	str	r2, [r3, #16]
 8001756:	699b      	ldr	r3, [r3, #24]
 8001758:	3204      	adds	r2, #4
 800175a:	7702      	strb	r2, [r0, #28]
 800175c:	079b      	lsls	r3, r3, #30
 800175e:	d100      	bne.n	8001762 <HAL_TIM_IRQHandler+0x24>
 8001760:	e079      	b.n	8001856 <HAL_TIM_IRQHandler+0x118>
 8001762:	f7ff ffca 	bl	80016fa <HAL_TIM_IC_CaptureCallback>
 8001766:	2300      	movs	r3, #0
 8001768:	7723      	strb	r3, [r4, #28]
 800176a:	2204      	movs	r2, #4
 800176c:	6823      	ldr	r3, [r4, #0]
 800176e:	6919      	ldr	r1, [r3, #16]
 8001770:	4211      	tst	r1, r2
 8001772:	d010      	beq.n	8001796 <HAL_TIM_IRQHandler+0x58>
 8001774:	68d9      	ldr	r1, [r3, #12]
 8001776:	4211      	tst	r1, r2
 8001778:	d00d      	beq.n	8001796 <HAL_TIM_IRQHandler+0x58>
 800177a:	3a09      	subs	r2, #9
 800177c:	611a      	str	r2, [r3, #16]
 800177e:	3207      	adds	r2, #7
 8001780:	7722      	strb	r2, [r4, #28]
 8001782:	699a      	ldr	r2, [r3, #24]
 8001784:	23c0      	movs	r3, #192	; 0xc0
 8001786:	009b      	lsls	r3, r3, #2
 8001788:	0020      	movs	r0, r4
 800178a:	421a      	tst	r2, r3
 800178c:	d069      	beq.n	8001862 <HAL_TIM_IRQHandler+0x124>
 800178e:	f7ff ffb4 	bl	80016fa <HAL_TIM_IC_CaptureCallback>
 8001792:	2300      	movs	r3, #0
 8001794:	7723      	strb	r3, [r4, #28]
 8001796:	2208      	movs	r2, #8
 8001798:	6823      	ldr	r3, [r4, #0]
 800179a:	6919      	ldr	r1, [r3, #16]
 800179c:	4211      	tst	r1, r2
 800179e:	d00e      	beq.n	80017be <HAL_TIM_IRQHandler+0x80>
 80017a0:	68d9      	ldr	r1, [r3, #12]
 80017a2:	4211      	tst	r1, r2
 80017a4:	d00b      	beq.n	80017be <HAL_TIM_IRQHandler+0x80>
 80017a6:	3a11      	subs	r2, #17
 80017a8:	611a      	str	r2, [r3, #16]
 80017aa:	69db      	ldr	r3, [r3, #28]
 80017ac:	320d      	adds	r2, #13
 80017ae:	7722      	strb	r2, [r4, #28]
 80017b0:	0020      	movs	r0, r4
 80017b2:	079b      	lsls	r3, r3, #30
 80017b4:	d05b      	beq.n	800186e <HAL_TIM_IRQHandler+0x130>
 80017b6:	f7ff ffa0 	bl	80016fa <HAL_TIM_IC_CaptureCallback>
 80017ba:	2300      	movs	r3, #0
 80017bc:	7723      	strb	r3, [r4, #28]
 80017be:	2210      	movs	r2, #16
 80017c0:	6823      	ldr	r3, [r4, #0]
 80017c2:	6919      	ldr	r1, [r3, #16]
 80017c4:	4211      	tst	r1, r2
 80017c6:	d010      	beq.n	80017ea <HAL_TIM_IRQHandler+0xac>
 80017c8:	68d9      	ldr	r1, [r3, #12]
 80017ca:	4211      	tst	r1, r2
 80017cc:	d00d      	beq.n	80017ea <HAL_TIM_IRQHandler+0xac>
 80017ce:	3a21      	subs	r2, #33	; 0x21
 80017d0:	611a      	str	r2, [r3, #16]
 80017d2:	3219      	adds	r2, #25
 80017d4:	7722      	strb	r2, [r4, #28]
 80017d6:	69da      	ldr	r2, [r3, #28]
 80017d8:	23c0      	movs	r3, #192	; 0xc0
 80017da:	009b      	lsls	r3, r3, #2
 80017dc:	0020      	movs	r0, r4
 80017de:	421a      	tst	r2, r3
 80017e0:	d04b      	beq.n	800187a <HAL_TIM_IRQHandler+0x13c>
 80017e2:	f7ff ff8a 	bl	80016fa <HAL_TIM_IC_CaptureCallback>
 80017e6:	2300      	movs	r3, #0
 80017e8:	7723      	strb	r3, [r4, #28]
 80017ea:	2201      	movs	r2, #1
 80017ec:	6823      	ldr	r3, [r4, #0]
 80017ee:	6919      	ldr	r1, [r3, #16]
 80017f0:	4211      	tst	r1, r2
 80017f2:	d007      	beq.n	8001804 <HAL_TIM_IRQHandler+0xc6>
 80017f4:	68d9      	ldr	r1, [r3, #12]
 80017f6:	4211      	tst	r1, r2
 80017f8:	d004      	beq.n	8001804 <HAL_TIM_IRQHandler+0xc6>
 80017fa:	3a03      	subs	r2, #3
 80017fc:	611a      	str	r2, [r3, #16]
 80017fe:	0020      	movs	r0, r4
 8001800:	f001 f932 	bl	8002a68 <HAL_TIM_PeriodElapsedCallback>
 8001804:	2280      	movs	r2, #128	; 0x80
 8001806:	6823      	ldr	r3, [r4, #0]
 8001808:	6919      	ldr	r1, [r3, #16]
 800180a:	4211      	tst	r1, r2
 800180c:	d008      	beq.n	8001820 <HAL_TIM_IRQHandler+0xe2>
 800180e:	68d9      	ldr	r1, [r3, #12]
 8001810:	4211      	tst	r1, r2
 8001812:	d005      	beq.n	8001820 <HAL_TIM_IRQHandler+0xe2>
 8001814:	3a02      	subs	r2, #2
 8001816:	3aff      	subs	r2, #255	; 0xff
 8001818:	611a      	str	r2, [r3, #16]
 800181a:	0020      	movs	r0, r4
 800181c:	f000 fc71 	bl	8002102 <HAL_TIMEx_BreakCallback>
 8001820:	2240      	movs	r2, #64	; 0x40
 8001822:	6823      	ldr	r3, [r4, #0]
 8001824:	6919      	ldr	r1, [r3, #16]
 8001826:	4211      	tst	r1, r2
 8001828:	d007      	beq.n	800183a <HAL_TIM_IRQHandler+0xfc>
 800182a:	68d9      	ldr	r1, [r3, #12]
 800182c:	4211      	tst	r1, r2
 800182e:	d004      	beq.n	800183a <HAL_TIM_IRQHandler+0xfc>
 8001830:	3a81      	subs	r2, #129	; 0x81
 8001832:	611a      	str	r2, [r3, #16]
 8001834:	0020      	movs	r0, r4
 8001836:	f7ff ff81 	bl	800173c <HAL_TIM_TriggerCallback>
 800183a:	2220      	movs	r2, #32
 800183c:	6823      	ldr	r3, [r4, #0]
 800183e:	6919      	ldr	r1, [r3, #16]
 8001840:	4211      	tst	r1, r2
 8001842:	d007      	beq.n	8001854 <HAL_TIM_IRQHandler+0x116>
 8001844:	68d9      	ldr	r1, [r3, #12]
 8001846:	4211      	tst	r1, r2
 8001848:	d004      	beq.n	8001854 <HAL_TIM_IRQHandler+0x116>
 800184a:	3a41      	subs	r2, #65	; 0x41
 800184c:	611a      	str	r2, [r3, #16]
 800184e:	0020      	movs	r0, r4
 8001850:	f000 fc56 	bl	8002100 <HAL_TIMEx_CommutationCallback>
 8001854:	bd10      	pop	{r4, pc}
 8001856:	f7ff ff4f 	bl	80016f8 <HAL_TIM_OC_DelayElapsedCallback>
 800185a:	0020      	movs	r0, r4
 800185c:	f7ff ff6d 	bl	800173a <HAL_TIM_PWM_PulseFinishedCallback>
 8001860:	e781      	b.n	8001766 <HAL_TIM_IRQHandler+0x28>
 8001862:	f7ff ff49 	bl	80016f8 <HAL_TIM_OC_DelayElapsedCallback>
 8001866:	0020      	movs	r0, r4
 8001868:	f7ff ff67 	bl	800173a <HAL_TIM_PWM_PulseFinishedCallback>
 800186c:	e791      	b.n	8001792 <HAL_TIM_IRQHandler+0x54>
 800186e:	f7ff ff43 	bl	80016f8 <HAL_TIM_OC_DelayElapsedCallback>
 8001872:	0020      	movs	r0, r4
 8001874:	f7ff ff61 	bl	800173a <HAL_TIM_PWM_PulseFinishedCallback>
 8001878:	e79f      	b.n	80017ba <HAL_TIM_IRQHandler+0x7c>
 800187a:	f7ff ff3d 	bl	80016f8 <HAL_TIM_OC_DelayElapsedCallback>
 800187e:	0020      	movs	r0, r4
 8001880:	f7ff ff5b 	bl	800173a <HAL_TIM_PWM_PulseFinishedCallback>
 8001884:	e7af      	b.n	80017e6 <HAL_TIM_IRQHandler+0xa8>

08001886 <HAL_TIM_ErrorCallback>:
 8001886:	4770      	bx	lr

08001888 <TIM_DMAError>:
 8001888:	6a40      	ldr	r0, [r0, #36]	; 0x24
 800188a:	2201      	movs	r2, #1
 800188c:	0003      	movs	r3, r0
 800188e:	b510      	push	{r4, lr}
 8001890:	333d      	adds	r3, #61	; 0x3d
 8001892:	701a      	strb	r2, [r3, #0]
 8001894:	f7ff fff7 	bl	8001886 <HAL_TIM_ErrorCallback>
 8001898:	bd10      	pop	{r4, pc}
	...

0800189c <TIM_Base_SetConfig>:
 800189c:	4a20      	ldr	r2, [pc, #128]	; (8001920 <TIM_Base_SetConfig+0x84>)
 800189e:	b510      	push	{r4, lr}
 80018a0:	6803      	ldr	r3, [r0, #0]
 80018a2:	4290      	cmp	r0, r2
 80018a4:	d006      	beq.n	80018b4 <TIM_Base_SetConfig+0x18>
 80018a6:	2480      	movs	r4, #128	; 0x80
 80018a8:	05e4      	lsls	r4, r4, #23
 80018aa:	42a0      	cmp	r0, r4
 80018ac:	d002      	beq.n	80018b4 <TIM_Base_SetConfig+0x18>
 80018ae:	4c1d      	ldr	r4, [pc, #116]	; (8001924 <TIM_Base_SetConfig+0x88>)
 80018b0:	42a0      	cmp	r0, r4
 80018b2:	d10c      	bne.n	80018ce <TIM_Base_SetConfig+0x32>
 80018b4:	2470      	movs	r4, #112	; 0x70
 80018b6:	43a3      	bics	r3, r4
 80018b8:	684c      	ldr	r4, [r1, #4]
 80018ba:	4323      	orrs	r3, r4
 80018bc:	4290      	cmp	r0, r2
 80018be:	d012      	beq.n	80018e6 <TIM_Base_SetConfig+0x4a>
 80018c0:	2480      	movs	r4, #128	; 0x80
 80018c2:	05e4      	lsls	r4, r4, #23
 80018c4:	42a0      	cmp	r0, r4
 80018c6:	d00e      	beq.n	80018e6 <TIM_Base_SetConfig+0x4a>
 80018c8:	4c16      	ldr	r4, [pc, #88]	; (8001924 <TIM_Base_SetConfig+0x88>)
 80018ca:	42a0      	cmp	r0, r4
 80018cc:	d00b      	beq.n	80018e6 <TIM_Base_SetConfig+0x4a>
 80018ce:	4c16      	ldr	r4, [pc, #88]	; (8001928 <TIM_Base_SetConfig+0x8c>)
 80018d0:	42a0      	cmp	r0, r4
 80018d2:	d008      	beq.n	80018e6 <TIM_Base_SetConfig+0x4a>
 80018d4:	4c15      	ldr	r4, [pc, #84]	; (800192c <TIM_Base_SetConfig+0x90>)
 80018d6:	42a0      	cmp	r0, r4
 80018d8:	d005      	beq.n	80018e6 <TIM_Base_SetConfig+0x4a>
 80018da:	4c15      	ldr	r4, [pc, #84]	; (8001930 <TIM_Base_SetConfig+0x94>)
 80018dc:	42a0      	cmp	r0, r4
 80018de:	d002      	beq.n	80018e6 <TIM_Base_SetConfig+0x4a>
 80018e0:	4c14      	ldr	r4, [pc, #80]	; (8001934 <TIM_Base_SetConfig+0x98>)
 80018e2:	42a0      	cmp	r0, r4
 80018e4:	d103      	bne.n	80018ee <TIM_Base_SetConfig+0x52>
 80018e6:	4c14      	ldr	r4, [pc, #80]	; (8001938 <TIM_Base_SetConfig+0x9c>)
 80018e8:	4023      	ands	r3, r4
 80018ea:	68cc      	ldr	r4, [r1, #12]
 80018ec:	4323      	orrs	r3, r4
 80018ee:	2480      	movs	r4, #128	; 0x80
 80018f0:	43a3      	bics	r3, r4
 80018f2:	694c      	ldr	r4, [r1, #20]
 80018f4:	4323      	orrs	r3, r4
 80018f6:	6003      	str	r3, [r0, #0]
 80018f8:	688b      	ldr	r3, [r1, #8]
 80018fa:	62c3      	str	r3, [r0, #44]	; 0x2c
 80018fc:	680b      	ldr	r3, [r1, #0]
 80018fe:	6283      	str	r3, [r0, #40]	; 0x28
 8001900:	4290      	cmp	r0, r2
 8001902:	d008      	beq.n	8001916 <TIM_Base_SetConfig+0x7a>
 8001904:	4b09      	ldr	r3, [pc, #36]	; (800192c <TIM_Base_SetConfig+0x90>)
 8001906:	4298      	cmp	r0, r3
 8001908:	d005      	beq.n	8001916 <TIM_Base_SetConfig+0x7a>
 800190a:	4b09      	ldr	r3, [pc, #36]	; (8001930 <TIM_Base_SetConfig+0x94>)
 800190c:	4298      	cmp	r0, r3
 800190e:	d002      	beq.n	8001916 <TIM_Base_SetConfig+0x7a>
 8001910:	4b08      	ldr	r3, [pc, #32]	; (8001934 <TIM_Base_SetConfig+0x98>)
 8001912:	4298      	cmp	r0, r3
 8001914:	d101      	bne.n	800191a <TIM_Base_SetConfig+0x7e>
 8001916:	690b      	ldr	r3, [r1, #16]
 8001918:	6303      	str	r3, [r0, #48]	; 0x30
 800191a:	2301      	movs	r3, #1
 800191c:	6143      	str	r3, [r0, #20]
 800191e:	bd10      	pop	{r4, pc}
 8001920:	40012c00 	.word	0x40012c00
 8001924:	40000400 	.word	0x40000400
 8001928:	40002000 	.word	0x40002000
 800192c:	40014000 	.word	0x40014000
 8001930:	40014400 	.word	0x40014400
 8001934:	40014800 	.word	0x40014800
 8001938:	fffffcff 	.word	0xfffffcff

0800193c <HAL_TIM_Base_Init>:
 800193c:	b570      	push	{r4, r5, r6, lr}
 800193e:	0004      	movs	r4, r0
 8001940:	2001      	movs	r0, #1
 8001942:	2c00      	cmp	r4, #0
 8001944:	d014      	beq.n	8001970 <HAL_TIM_Base_Init+0x34>
 8001946:	0025      	movs	r5, r4
 8001948:	353d      	adds	r5, #61	; 0x3d
 800194a:	782b      	ldrb	r3, [r5, #0]
 800194c:	b2db      	uxtb	r3, r3
 800194e:	2b00      	cmp	r3, #0
 8001950:	d105      	bne.n	800195e <HAL_TIM_Base_Init+0x22>
 8001952:	0022      	movs	r2, r4
 8001954:	323c      	adds	r2, #60	; 0x3c
 8001956:	7013      	strb	r3, [r2, #0]
 8001958:	0020      	movs	r0, r4
 800195a:	f002 f9ff 	bl	8003d5c <HAL_TIM_Base_MspInit>
 800195e:	2302      	movs	r3, #2
 8001960:	6820      	ldr	r0, [r4, #0]
 8001962:	702b      	strb	r3, [r5, #0]
 8001964:	1d21      	adds	r1, r4, #4
 8001966:	f7ff ff99 	bl	800189c <TIM_Base_SetConfig>
 800196a:	2301      	movs	r3, #1
 800196c:	2000      	movs	r0, #0
 800196e:	702b      	strb	r3, [r5, #0]
 8001970:	bd70      	pop	{r4, r5, r6, pc}

08001972 <HAL_TIM_PWM_Init>:
 8001972:	b570      	push	{r4, r5, r6, lr}
 8001974:	0004      	movs	r4, r0
 8001976:	2001      	movs	r0, #1
 8001978:	2c00      	cmp	r4, #0
 800197a:	d014      	beq.n	80019a6 <HAL_TIM_PWM_Init+0x34>
 800197c:	0025      	movs	r5, r4
 800197e:	353d      	adds	r5, #61	; 0x3d
 8001980:	782b      	ldrb	r3, [r5, #0]
 8001982:	b2db      	uxtb	r3, r3
 8001984:	2b00      	cmp	r3, #0
 8001986:	d105      	bne.n	8001994 <HAL_TIM_PWM_Init+0x22>
 8001988:	0022      	movs	r2, r4
 800198a:	323c      	adds	r2, #60	; 0x3c
 800198c:	7013      	strb	r3, [r2, #0]
 800198e:	0020      	movs	r0, r4
 8001990:	f7ff feb0 	bl	80016f4 <HAL_TIM_PWM_MspInit>
 8001994:	2302      	movs	r3, #2
 8001996:	6820      	ldr	r0, [r4, #0]
 8001998:	702b      	strb	r3, [r5, #0]
 800199a:	1d21      	adds	r1, r4, #4
 800199c:	f7ff ff7e 	bl	800189c <TIM_Base_SetConfig>
 80019a0:	2301      	movs	r3, #1
 80019a2:	2000      	movs	r0, #0
 80019a4:	702b      	strb	r3, [r5, #0]
 80019a6:	bd70      	pop	{r4, r5, r6, pc}

080019a8 <HAL_TIM_IC_Init>:
 80019a8:	b570      	push	{r4, r5, r6, lr}
 80019aa:	0004      	movs	r4, r0
 80019ac:	2001      	movs	r0, #1
 80019ae:	2c00      	cmp	r4, #0
 80019b0:	d014      	beq.n	80019dc <HAL_TIM_IC_Init+0x34>
 80019b2:	0025      	movs	r5, r4
 80019b4:	353d      	adds	r5, #61	; 0x3d
 80019b6:	782b      	ldrb	r3, [r5, #0]
 80019b8:	b2db      	uxtb	r3, r3
 80019ba:	2b00      	cmp	r3, #0
 80019bc:	d105      	bne.n	80019ca <HAL_TIM_IC_Init+0x22>
 80019be:	0022      	movs	r2, r4
 80019c0:	323c      	adds	r2, #60	; 0x3c
 80019c2:	7013      	strb	r3, [r2, #0]
 80019c4:	0020      	movs	r0, r4
 80019c6:	f7ff fe96 	bl	80016f6 <HAL_TIM_IC_MspInit>
 80019ca:	2302      	movs	r3, #2
 80019cc:	6820      	ldr	r0, [r4, #0]
 80019ce:	702b      	strb	r3, [r5, #0]
 80019d0:	1d21      	adds	r1, r4, #4
 80019d2:	f7ff ff63 	bl	800189c <TIM_Base_SetConfig>
 80019d6:	2301      	movs	r3, #1
 80019d8:	2000      	movs	r0, #0
 80019da:	702b      	strb	r3, [r5, #0]
 80019dc:	bd70      	pop	{r4, r5, r6, pc}
	...

080019e0 <TIM_OC2_SetConfig>:
 80019e0:	2210      	movs	r2, #16
 80019e2:	6a03      	ldr	r3, [r0, #32]
 80019e4:	b570      	push	{r4, r5, r6, lr}
 80019e6:	4393      	bics	r3, r2
 80019e8:	6203      	str	r3, [r0, #32]
 80019ea:	6a02      	ldr	r2, [r0, #32]
 80019ec:	4d16      	ldr	r5, [pc, #88]	; (8001a48 <TIM_OC2_SetConfig+0x68>)
 80019ee:	6843      	ldr	r3, [r0, #4]
 80019f0:	6984      	ldr	r4, [r0, #24]
 80019f2:	402c      	ands	r4, r5
 80019f4:	680d      	ldr	r5, [r1, #0]
 80019f6:	022d      	lsls	r5, r5, #8
 80019f8:	432c      	orrs	r4, r5
 80019fa:	2520      	movs	r5, #32
 80019fc:	43aa      	bics	r2, r5
 80019fe:	688d      	ldr	r5, [r1, #8]
 8001a00:	012d      	lsls	r5, r5, #4
 8001a02:	432a      	orrs	r2, r5
 8001a04:	4d11      	ldr	r5, [pc, #68]	; (8001a4c <TIM_OC2_SetConfig+0x6c>)
 8001a06:	42a8      	cmp	r0, r5
 8001a08:	d10f      	bne.n	8001a2a <TIM_OC2_SetConfig+0x4a>
 8001a0a:	2580      	movs	r5, #128	; 0x80
 8001a0c:	43aa      	bics	r2, r5
 8001a0e:	0015      	movs	r5, r2
 8001a10:	68ca      	ldr	r2, [r1, #12]
 8001a12:	0112      	lsls	r2, r2, #4
 8001a14:	432a      	orrs	r2, r5
 8001a16:	2540      	movs	r5, #64	; 0x40
 8001a18:	43aa      	bics	r2, r5
 8001a1a:	4d0d      	ldr	r5, [pc, #52]	; (8001a50 <TIM_OC2_SetConfig+0x70>)
 8001a1c:	694e      	ldr	r6, [r1, #20]
 8001a1e:	401d      	ands	r5, r3
 8001a20:	698b      	ldr	r3, [r1, #24]
 8001a22:	4333      	orrs	r3, r6
 8001a24:	009b      	lsls	r3, r3, #2
 8001a26:	432b      	orrs	r3, r5
 8001a28:	e008      	b.n	8001a3c <TIM_OC2_SetConfig+0x5c>
 8001a2a:	4d0a      	ldr	r5, [pc, #40]	; (8001a54 <TIM_OC2_SetConfig+0x74>)
 8001a2c:	42a8      	cmp	r0, r5
 8001a2e:	d0f4      	beq.n	8001a1a <TIM_OC2_SetConfig+0x3a>
 8001a30:	4d09      	ldr	r5, [pc, #36]	; (8001a58 <TIM_OC2_SetConfig+0x78>)
 8001a32:	42a8      	cmp	r0, r5
 8001a34:	d0f1      	beq.n	8001a1a <TIM_OC2_SetConfig+0x3a>
 8001a36:	4d09      	ldr	r5, [pc, #36]	; (8001a5c <TIM_OC2_SetConfig+0x7c>)
 8001a38:	42a8      	cmp	r0, r5
 8001a3a:	d0ee      	beq.n	8001a1a <TIM_OC2_SetConfig+0x3a>
 8001a3c:	6043      	str	r3, [r0, #4]
 8001a3e:	684b      	ldr	r3, [r1, #4]
 8001a40:	6184      	str	r4, [r0, #24]
 8001a42:	6383      	str	r3, [r0, #56]	; 0x38
 8001a44:	6202      	str	r2, [r0, #32]
 8001a46:	bd70      	pop	{r4, r5, r6, pc}
 8001a48:	ffff8cff 	.word	0xffff8cff
 8001a4c:	40012c00 	.word	0x40012c00
 8001a50:	fffff3ff 	.word	0xfffff3ff
 8001a54:	40014000 	.word	0x40014000
 8001a58:	40014400 	.word	0x40014400
 8001a5c:	40014800 	.word	0x40014800

08001a60 <HAL_TIM_PWM_ConfigChannel>:
 8001a60:	b5f8      	push	{r3, r4, r5, r6, r7, lr}
 8001a62:	0006      	movs	r6, r0
 8001a64:	2302      	movs	r3, #2
 8001a66:	363c      	adds	r6, #60	; 0x3c
 8001a68:	000d      	movs	r5, r1
 8001a6a:	7831      	ldrb	r1, [r6, #0]
 8001a6c:	0004      	movs	r4, r0
 8001a6e:	0018      	movs	r0, r3
 8001a70:	2901      	cmp	r1, #1
 8001a72:	d025      	beq.n	8001ac0 <HAL_TIM_PWM_ConfigChannel+0x60>
 8001a74:	0027      	movs	r7, r4
 8001a76:	2101      	movs	r1, #1
 8001a78:	373d      	adds	r7, #61	; 0x3d
 8001a7a:	7031      	strb	r1, [r6, #0]
 8001a7c:	703b      	strb	r3, [r7, #0]
 8001a7e:	2a0c      	cmp	r2, #12
 8001a80:	d81a      	bhi.n	8001ab8 <HAL_TIM_PWM_ConfigChannel+0x58>
 8001a82:	0010      	movs	r0, r2
 8001a84:	f7fe fb40 	bl	8000108 <__gnu_thumb1_case_uqi>
 8001a88:	18181807 	.word	0x18181807
 8001a8c:	1818181d 	.word	0x1818181d
 8001a90:	1818182f 	.word	0x1818182f
 8001a94:	41          	.byte	0x41
 8001a95:	00          	.byte	0x00
 8001a96:	0029      	movs	r1, r5
 8001a98:	6820      	ldr	r0, [r4, #0]
 8001a9a:	f7ff fd53 	bl	8001544 <TIM_OC1_SetConfig>
 8001a9e:	2208      	movs	r2, #8
 8001aa0:	6823      	ldr	r3, [r4, #0]
 8001aa2:	6999      	ldr	r1, [r3, #24]
 8001aa4:	430a      	orrs	r2, r1
 8001aa6:	2104      	movs	r1, #4
 8001aa8:	619a      	str	r2, [r3, #24]
 8001aaa:	699a      	ldr	r2, [r3, #24]
 8001aac:	438a      	bics	r2, r1
 8001aae:	619a      	str	r2, [r3, #24]
 8001ab0:	699a      	ldr	r2, [r3, #24]
 8001ab2:	6929      	ldr	r1, [r5, #16]
 8001ab4:	430a      	orrs	r2, r1
 8001ab6:	619a      	str	r2, [r3, #24]
 8001ab8:	2301      	movs	r3, #1
 8001aba:	2000      	movs	r0, #0
 8001abc:	703b      	strb	r3, [r7, #0]
 8001abe:	7030      	strb	r0, [r6, #0]
 8001ac0:	bdf8      	pop	{r3, r4, r5, r6, r7, pc}
 8001ac2:	0029      	movs	r1, r5
 8001ac4:	6820      	ldr	r0, [r4, #0]
 8001ac6:	f7ff ff8b 	bl	80019e0 <TIM_OC2_SetConfig>
 8001aca:	2280      	movs	r2, #128	; 0x80
 8001acc:	6823      	ldr	r3, [r4, #0]
 8001ace:	0112      	lsls	r2, r2, #4
 8001ad0:	6999      	ldr	r1, [r3, #24]
 8001ad2:	430a      	orrs	r2, r1
 8001ad4:	619a      	str	r2, [r3, #24]
 8001ad6:	699a      	ldr	r2, [r3, #24]
 8001ad8:	4915      	ldr	r1, [pc, #84]	; (8001b30 <HAL_TIM_PWM_ConfigChannel+0xd0>)
 8001ada:	400a      	ands	r2, r1
 8001adc:	619a      	str	r2, [r3, #24]
 8001ade:	692a      	ldr	r2, [r5, #16]
 8001ae0:	6999      	ldr	r1, [r3, #24]
 8001ae2:	0212      	lsls	r2, r2, #8
 8001ae4:	e7e6      	b.n	8001ab4 <HAL_TIM_PWM_ConfigChannel+0x54>
 8001ae6:	0029      	movs	r1, r5
 8001ae8:	6820      	ldr	r0, [r4, #0]
 8001aea:	f7ff fd6f 	bl	80015cc <TIM_OC3_SetConfig>
 8001aee:	2208      	movs	r2, #8
 8001af0:	6823      	ldr	r3, [r4, #0]
 8001af2:	69d9      	ldr	r1, [r3, #28]
 8001af4:	430a      	orrs	r2, r1
 8001af6:	2104      	movs	r1, #4
 8001af8:	61da      	str	r2, [r3, #28]
 8001afa:	69da      	ldr	r2, [r3, #28]
 8001afc:	438a      	bics	r2, r1
 8001afe:	61da      	str	r2, [r3, #28]
 8001b00:	69da      	ldr	r2, [r3, #28]
 8001b02:	6929      	ldr	r1, [r5, #16]
 8001b04:	430a      	orrs	r2, r1
 8001b06:	61da      	str	r2, [r3, #28]
 8001b08:	e7d6      	b.n	8001ab8 <HAL_TIM_PWM_ConfigChannel+0x58>
 8001b0a:	0029      	movs	r1, r5
 8001b0c:	6820      	ldr	r0, [r4, #0]
 8001b0e:	f7ff fda1 	bl	8001654 <TIM_OC4_SetConfig>
 8001b12:	2280      	movs	r2, #128	; 0x80
 8001b14:	6823      	ldr	r3, [r4, #0]
 8001b16:	0112      	lsls	r2, r2, #4
 8001b18:	69d9      	ldr	r1, [r3, #28]
 8001b1a:	430a      	orrs	r2, r1
 8001b1c:	61da      	str	r2, [r3, #28]
 8001b1e:	69da      	ldr	r2, [r3, #28]
 8001b20:	4903      	ldr	r1, [pc, #12]	; (8001b30 <HAL_TIM_PWM_ConfigChannel+0xd0>)
 8001b22:	400a      	ands	r2, r1
 8001b24:	61da      	str	r2, [r3, #28]
 8001b26:	692a      	ldr	r2, [r5, #16]
 8001b28:	69d9      	ldr	r1, [r3, #28]
 8001b2a:	0212      	lsls	r2, r2, #8
 8001b2c:	e7ea      	b.n	8001b04 <HAL_TIM_PWM_ConfigChannel+0xa4>
 8001b2e:	46c0      	nop			; (mov r8, r8)
 8001b30:	fffffbff 	.word	0xfffffbff

08001b34 <TIM_TI1_SetConfig>:
 8001b34:	b5f0      	push	{r4, r5, r6, r7, lr}
 8001b36:	2401      	movs	r4, #1
 8001b38:	6a05      	ldr	r5, [r0, #32]
 8001b3a:	4f11      	ldr	r7, [pc, #68]	; (8001b80 <TIM_TI1_SetConfig+0x4c>)
 8001b3c:	43a5      	bics	r5, r4
 8001b3e:	6205      	str	r5, [r0, #32]
 8001b40:	6986      	ldr	r6, [r0, #24]
 8001b42:	6a05      	ldr	r5, [r0, #32]
 8001b44:	42b8      	cmp	r0, r7
 8001b46:	d009      	beq.n	8001b5c <TIM_TI1_SetConfig+0x28>
 8001b48:	2780      	movs	r7, #128	; 0x80
 8001b4a:	05ff      	lsls	r7, r7, #23
 8001b4c:	42b8      	cmp	r0, r7
 8001b4e:	d005      	beq.n	8001b5c <TIM_TI1_SetConfig+0x28>
 8001b50:	4f0c      	ldr	r7, [pc, #48]	; (8001b84 <TIM_TI1_SetConfig+0x50>)
 8001b52:	42b8      	cmp	r0, r7
 8001b54:	d002      	beq.n	8001b5c <TIM_TI1_SetConfig+0x28>
 8001b56:	4f0c      	ldr	r7, [pc, #48]	; (8001b88 <TIM_TI1_SetConfig+0x54>)
 8001b58:	42b8      	cmp	r0, r7
 8001b5a:	d10f      	bne.n	8001b7c <TIM_TI1_SetConfig+0x48>
 8001b5c:	2403      	movs	r4, #3
 8001b5e:	43a6      	bics	r6, r4
 8001b60:	24f0      	movs	r4, #240	; 0xf0
 8001b62:	4332      	orrs	r2, r6
 8001b64:	43a2      	bics	r2, r4
 8001b66:	011b      	lsls	r3, r3, #4
 8001b68:	340f      	adds	r4, #15
 8001b6a:	4023      	ands	r3, r4
 8001b6c:	3cf5      	subs	r4, #245	; 0xf5
 8001b6e:	43a5      	bics	r5, r4
 8001b70:	4021      	ands	r1, r4
 8001b72:	4329      	orrs	r1, r5
 8001b74:	431a      	orrs	r2, r3
 8001b76:	6182      	str	r2, [r0, #24]
 8001b78:	6201      	str	r1, [r0, #32]
 8001b7a:	bdf0      	pop	{r4, r5, r6, r7, pc}
 8001b7c:	0022      	movs	r2, r4
 8001b7e:	e7ef      	b.n	8001b60 <TIM_TI1_SetConfig+0x2c>
 8001b80:	40012c00 	.word	0x40012c00
 8001b84:	40000400 	.word	0x40000400
 8001b88:	40014000 	.word	0x40014000

08001b8c <HAL_TIM_IC_ConfigChannel>:
 8001b8c:	b5f7      	push	{r0, r1, r2, r4, r5, r6, r7, lr}
 8001b8e:	000d      	movs	r5, r1
 8001b90:	0001      	movs	r1, r0
 8001b92:	2302      	movs	r3, #2
 8001b94:	313c      	adds	r1, #60	; 0x3c
 8001b96:	780e      	ldrb	r6, [r1, #0]
 8001b98:	0004      	movs	r4, r0
 8001b9a:	0018      	movs	r0, r3
 8001b9c:	2e01      	cmp	r6, #1
 8001b9e:	d01a      	beq.n	8001bd6 <HAL_TIM_IC_ConfigChannel+0x4a>
 8001ba0:	3801      	subs	r0, #1
 8001ba2:	7008      	strb	r0, [r1, #0]
 8001ba4:	704b      	strb	r3, [r1, #1]
 8001ba6:	2a00      	cmp	r2, #0
 8001ba8:	d116      	bne.n	8001bd8 <HAL_TIM_IC_ConfigChannel+0x4c>
 8001baa:	68eb      	ldr	r3, [r5, #12]
 8001bac:	686a      	ldr	r2, [r5, #4]
 8001bae:	6829      	ldr	r1, [r5, #0]
 8001bb0:	6820      	ldr	r0, [r4, #0]
 8001bb2:	f7ff ffbf 	bl	8001b34 <TIM_TI1_SetConfig>
 8001bb6:	210c      	movs	r1, #12
 8001bb8:	6823      	ldr	r3, [r4, #0]
 8001bba:	699a      	ldr	r2, [r3, #24]
 8001bbc:	438a      	bics	r2, r1
 8001bbe:	619a      	str	r2, [r3, #24]
 8001bc0:	699a      	ldr	r2, [r3, #24]
 8001bc2:	68a9      	ldr	r1, [r5, #8]
 8001bc4:	430a      	orrs	r2, r1
 8001bc6:	619a      	str	r2, [r3, #24]
 8001bc8:	0023      	movs	r3, r4
 8001bca:	2201      	movs	r2, #1
 8001bcc:	2000      	movs	r0, #0
 8001bce:	333d      	adds	r3, #61	; 0x3d
 8001bd0:	343c      	adds	r4, #60	; 0x3c
 8001bd2:	701a      	strb	r2, [r3, #0]
 8001bd4:	7020      	strb	r0, [r4, #0]
 8001bd6:	bdfe      	pop	{r1, r2, r3, r4, r5, r6, r7, pc}
 8001bd8:	6829      	ldr	r1, [r5, #0]
 8001bda:	6823      	ldr	r3, [r4, #0]
 8001bdc:	9101      	str	r1, [sp, #4]
 8001bde:	686e      	ldr	r6, [r5, #4]
 8001be0:	68e8      	ldr	r0, [r5, #12]
 8001be2:	2a04      	cmp	r2, #4
 8001be4:	d11e      	bne.n	8001c24 <HAL_TIM_IC_ConfigChannel+0x98>
 8001be6:	2710      	movs	r7, #16
 8001be8:	6a1a      	ldr	r2, [r3, #32]
 8001bea:	4930      	ldr	r1, [pc, #192]	; (8001cac <HAL_TIM_IC_ConfigChannel+0x120>)
 8001bec:	43ba      	bics	r2, r7
 8001bee:	621a      	str	r2, [r3, #32]
 8001bf0:	699f      	ldr	r7, [r3, #24]
 8001bf2:	0236      	lsls	r6, r6, #8
 8001bf4:	400f      	ands	r7, r1
 8001bf6:	433e      	orrs	r6, r7
 8001bf8:	4f2d      	ldr	r7, [pc, #180]	; (8001cb0 <HAL_TIM_IC_ConfigChannel+0x124>)
 8001bfa:	0700      	lsls	r0, r0, #28
 8001bfc:	403e      	ands	r6, r7
 8001bfe:	0c00      	lsrs	r0, r0, #16
 8001c00:	4330      	orrs	r0, r6
 8001c02:	26a0      	movs	r6, #160	; 0xa0
 8001c04:	9901      	ldr	r1, [sp, #4]
 8001c06:	6a1a      	ldr	r2, [r3, #32]
 8001c08:	0109      	lsls	r1, r1, #4
 8001c0a:	43b2      	bics	r2, r6
 8001c0c:	4031      	ands	r1, r6
 8001c0e:	4311      	orrs	r1, r2
 8001c10:	6198      	str	r0, [r3, #24]
 8001c12:	6219      	str	r1, [r3, #32]
 8001c14:	699a      	ldr	r2, [r3, #24]
 8001c16:	4927      	ldr	r1, [pc, #156]	; (8001cb4 <HAL_TIM_IC_ConfigChannel+0x128>)
 8001c18:	400a      	ands	r2, r1
 8001c1a:	619a      	str	r2, [r3, #24]
 8001c1c:	68aa      	ldr	r2, [r5, #8]
 8001c1e:	6999      	ldr	r1, [r3, #24]
 8001c20:	0212      	lsls	r2, r2, #8
 8001c22:	e7cf      	b.n	8001bc4 <HAL_TIM_IC_ConfigChannel+0x38>
 8001c24:	68ad      	ldr	r5, [r5, #8]
 8001c26:	2a08      	cmp	r2, #8
 8001c28:	d120      	bne.n	8001c6c <HAL_TIM_IC_ConfigChannel+0xe0>
 8001c2a:	2103      	movs	r1, #3
 8001c2c:	6a1a      	ldr	r2, [r3, #32]
 8001c2e:	4f22      	ldr	r7, [pc, #136]	; (8001cb8 <HAL_TIM_IC_ConfigChannel+0x12c>)
 8001c30:	0100      	lsls	r0, r0, #4
 8001c32:	403a      	ands	r2, r7
 8001c34:	621a      	str	r2, [r3, #32]
 8001c36:	69df      	ldr	r7, [r3, #28]
 8001c38:	6a1a      	ldr	r2, [r3, #32]
 8001c3a:	438f      	bics	r7, r1
 8001c3c:	433e      	orrs	r6, r7
 8001c3e:	27f0      	movs	r7, #240	; 0xf0
 8001c40:	43be      	bics	r6, r7
 8001c42:	370f      	adds	r7, #15
 8001c44:	4038      	ands	r0, r7
 8001c46:	4306      	orrs	r6, r0
 8001c48:	481c      	ldr	r0, [pc, #112]	; (8001cbc <HAL_TIM_IC_ConfigChannel+0x130>)
 8001c4a:	9901      	ldr	r1, [sp, #4]
 8001c4c:	4002      	ands	r2, r0
 8001c4e:	20a0      	movs	r0, #160	; 0xa0
 8001c50:	0209      	lsls	r1, r1, #8
 8001c52:	0100      	lsls	r0, r0, #4
 8001c54:	4001      	ands	r1, r0
 8001c56:	4311      	orrs	r1, r2
 8001c58:	61de      	str	r6, [r3, #28]
 8001c5a:	6219      	str	r1, [r3, #32]
 8001c5c:	210c      	movs	r1, #12
 8001c5e:	69da      	ldr	r2, [r3, #28]
 8001c60:	438a      	bics	r2, r1
 8001c62:	61da      	str	r2, [r3, #28]
 8001c64:	69da      	ldr	r2, [r3, #28]
 8001c66:	4315      	orrs	r5, r2
 8001c68:	61dd      	str	r5, [r3, #28]
 8001c6a:	e7ad      	b.n	8001bc8 <HAL_TIM_IC_ConfigChannel+0x3c>
 8001c6c:	6a1a      	ldr	r2, [r3, #32]
 8001c6e:	4f14      	ldr	r7, [pc, #80]	; (8001cc0 <HAL_TIM_IC_ConfigChannel+0x134>)
 8001c70:	490e      	ldr	r1, [pc, #56]	; (8001cac <HAL_TIM_IC_ConfigChannel+0x120>)
 8001c72:	403a      	ands	r2, r7
 8001c74:	621a      	str	r2, [r3, #32]
 8001c76:	69df      	ldr	r7, [r3, #28]
 8001c78:	0236      	lsls	r6, r6, #8
 8001c7a:	400f      	ands	r7, r1
 8001c7c:	433e      	orrs	r6, r7
 8001c7e:	4f0c      	ldr	r7, [pc, #48]	; (8001cb0 <HAL_TIM_IC_ConfigChannel+0x124>)
 8001c80:	0700      	lsls	r0, r0, #28
 8001c82:	403e      	ands	r6, r7
 8001c84:	0c00      	lsrs	r0, r0, #16
 8001c86:	6a1a      	ldr	r2, [r3, #32]
 8001c88:	4330      	orrs	r0, r6
 8001c8a:	4e0e      	ldr	r6, [pc, #56]	; (8001cc4 <HAL_TIM_IC_ConfigChannel+0x138>)
 8001c8c:	9901      	ldr	r1, [sp, #4]
 8001c8e:	4032      	ands	r2, r6
 8001c90:	26a0      	movs	r6, #160	; 0xa0
 8001c92:	0309      	lsls	r1, r1, #12
 8001c94:	0236      	lsls	r6, r6, #8
 8001c96:	4031      	ands	r1, r6
 8001c98:	4311      	orrs	r1, r2
 8001c9a:	61d8      	str	r0, [r3, #28]
 8001c9c:	6219      	str	r1, [r3, #32]
 8001c9e:	69da      	ldr	r2, [r3, #28]
 8001ca0:	4904      	ldr	r1, [pc, #16]	; (8001cb4 <HAL_TIM_IC_ConfigChannel+0x128>)
 8001ca2:	022d      	lsls	r5, r5, #8
 8001ca4:	400a      	ands	r2, r1
 8001ca6:	61da      	str	r2, [r3, #28]
 8001ca8:	69da      	ldr	r2, [r3, #28]
 8001caa:	e7dc      	b.n	8001c66 <HAL_TIM_IC_ConfigChannel+0xda>
 8001cac:	fffffcff 	.word	0xfffffcff
 8001cb0:	ffff0fff 	.word	0xffff0fff
 8001cb4:	fffff3ff 	.word	0xfffff3ff
 8001cb8:	fffffeff 	.word	0xfffffeff
 8001cbc:	fffff5ff 	.word	0xfffff5ff
 8001cc0:	ffffefff 	.word	0xffffefff
 8001cc4:	ffff5fff 	.word	0xffff5fff

08001cc8 <TIM_ETR_SetConfig>:
 8001cc8:	b530      	push	{r4, r5, lr}
 8001cca:	6884      	ldr	r4, [r0, #8]
 8001ccc:	4d03      	ldr	r5, [pc, #12]	; (8001cdc <TIM_ETR_SetConfig+0x14>)
 8001cce:	430a      	orrs	r2, r1
 8001cd0:	021b      	lsls	r3, r3, #8
 8001cd2:	402c      	ands	r4, r5
 8001cd4:	4313      	orrs	r3, r2
 8001cd6:	4323      	orrs	r3, r4
 8001cd8:	6083      	str	r3, [r0, #8]
 8001cda:	bd30      	pop	{r4, r5, pc}
 8001cdc:	ffff00ff 	.word	0xffff00ff

08001ce0 <HAL_TIM_ConfigClockSource>:
 8001ce0:	b5f8      	push	{r3, r4, r5, r6, r7, lr}
 8001ce2:	0005      	movs	r5, r0
 8001ce4:	2302      	movs	r3, #2
 8001ce6:	353c      	adds	r5, #60	; 0x3c
 8001ce8:	782a      	ldrb	r2, [r5, #0]
 8001cea:	0004      	movs	r4, r0
 8001cec:	0018      	movs	r0, r3
 8001cee:	2a01      	cmp	r2, #1
 8001cf0:	d019      	beq.n	8001d26 <HAL_TIM_ConfigClockSource+0x46>
 8001cf2:	0026      	movs	r6, r4
 8001cf4:	2701      	movs	r7, #1
 8001cf6:	6820      	ldr	r0, [r4, #0]
 8001cf8:	363d      	adds	r6, #61	; 0x3d
 8001cfa:	702f      	strb	r7, [r5, #0]
 8001cfc:	7033      	strb	r3, [r6, #0]
 8001cfe:	6883      	ldr	r3, [r0, #8]
 8001d00:	4a4f      	ldr	r2, [pc, #316]	; (8001e40 <HAL_TIM_ConfigClockSource+0x160>)
 8001d02:	4013      	ands	r3, r2
 8001d04:	6083      	str	r3, [r0, #8]
 8001d06:	680b      	ldr	r3, [r1, #0]
 8001d08:	2b40      	cmp	r3, #64	; 0x40
 8001d0a:	d100      	bne.n	8001d0e <HAL_TIM_ConfigClockSource+0x2e>
 8001d0c:	e06f      	b.n	8001dee <HAL_TIM_ConfigClockSource+0x10e>
 8001d0e:	d816      	bhi.n	8001d3e <HAL_TIM_ConfigClockSource+0x5e>
 8001d10:	2b10      	cmp	r3, #16
 8001d12:	d100      	bne.n	8001d16 <HAL_TIM_ConfigClockSource+0x36>
 8001d14:	e087      	b.n	8001e26 <HAL_TIM_ConfigClockSource+0x146>
 8001d16:	d807      	bhi.n	8001d28 <HAL_TIM_ConfigClockSource+0x48>
 8001d18:	2b00      	cmp	r3, #0
 8001d1a:	d100      	bne.n	8001d1e <HAL_TIM_ConfigClockSource+0x3e>
 8001d1c:	e07d      	b.n	8001e1a <HAL_TIM_ConfigClockSource+0x13a>
 8001d1e:	2301      	movs	r3, #1
 8001d20:	2000      	movs	r0, #0
 8001d22:	7033      	strb	r3, [r6, #0]
 8001d24:	7028      	strb	r0, [r5, #0]
 8001d26:	bdf8      	pop	{r3, r4, r5, r6, r7, pc}
 8001d28:	2b20      	cmp	r3, #32
 8001d2a:	d100      	bne.n	8001d2e <HAL_TIM_ConfigClockSource+0x4e>
 8001d2c:	e081      	b.n	8001e32 <HAL_TIM_ConfigClockSource+0x152>
 8001d2e:	2b30      	cmp	r3, #48	; 0x30
 8001d30:	d1f5      	bne.n	8001d1e <HAL_TIM_ConfigClockSource+0x3e>
 8001d32:	2270      	movs	r2, #112	; 0x70
 8001d34:	6883      	ldr	r3, [r0, #8]
 8001d36:	4393      	bics	r3, r2
 8001d38:	001a      	movs	r2, r3
 8001d3a:	2337      	movs	r3, #55	; 0x37
 8001d3c:	e055      	b.n	8001dea <HAL_TIM_ConfigClockSource+0x10a>
 8001d3e:	2b70      	cmp	r3, #112	; 0x70
 8001d40:	d033      	beq.n	8001daa <HAL_TIM_ConfigClockSource+0xca>
 8001d42:	d81b      	bhi.n	8001d7c <HAL_TIM_ConfigClockSource+0x9c>
 8001d44:	2b50      	cmp	r3, #80	; 0x50
 8001d46:	d03b      	beq.n	8001dc0 <HAL_TIM_ConfigClockSource+0xe0>
 8001d48:	2b60      	cmp	r3, #96	; 0x60
 8001d4a:	d1e8      	bne.n	8001d1e <HAL_TIM_ConfigClockSource+0x3e>
 8001d4c:	2410      	movs	r4, #16
 8001d4e:	684b      	ldr	r3, [r1, #4]
 8001d50:	68ca      	ldr	r2, [r1, #12]
 8001d52:	6a01      	ldr	r1, [r0, #32]
 8001d54:	4f3b      	ldr	r7, [pc, #236]	; (8001e44 <HAL_TIM_ConfigClockSource+0x164>)
 8001d56:	43a1      	bics	r1, r4
 8001d58:	6201      	str	r1, [r0, #32]
 8001d5a:	6984      	ldr	r4, [r0, #24]
 8001d5c:	0312      	lsls	r2, r2, #12
 8001d5e:	403c      	ands	r4, r7
 8001d60:	4322      	orrs	r2, r4
 8001d62:	24a0      	movs	r4, #160	; 0xa0
 8001d64:	6a01      	ldr	r1, [r0, #32]
 8001d66:	6182      	str	r2, [r0, #24]
 8001d68:	2270      	movs	r2, #112	; 0x70
 8001d6a:	43a1      	bics	r1, r4
 8001d6c:	011b      	lsls	r3, r3, #4
 8001d6e:	430b      	orrs	r3, r1
 8001d70:	6203      	str	r3, [r0, #32]
 8001d72:	6883      	ldr	r3, [r0, #8]
 8001d74:	4393      	bics	r3, r2
 8001d76:	001a      	movs	r2, r3
 8001d78:	2367      	movs	r3, #103	; 0x67
 8001d7a:	e036      	b.n	8001dea <HAL_TIM_ConfigClockSource+0x10a>
 8001d7c:	2280      	movs	r2, #128	; 0x80
 8001d7e:	0152      	lsls	r2, r2, #5
 8001d80:	4293      	cmp	r3, r2
 8001d82:	d00d      	beq.n	8001da0 <HAL_TIM_ConfigClockSource+0xc0>
 8001d84:	2280      	movs	r2, #128	; 0x80
 8001d86:	0192      	lsls	r2, r2, #6
 8001d88:	4293      	cmp	r3, r2
 8001d8a:	d1c8      	bne.n	8001d1e <HAL_TIM_ConfigClockSource+0x3e>
 8001d8c:	68cb      	ldr	r3, [r1, #12]
 8001d8e:	684a      	ldr	r2, [r1, #4]
 8001d90:	6889      	ldr	r1, [r1, #8]
 8001d92:	f7ff ff99 	bl	8001cc8 <TIM_ETR_SetConfig>
 8001d96:	2380      	movs	r3, #128	; 0x80
 8001d98:	6822      	ldr	r2, [r4, #0]
 8001d9a:	01db      	lsls	r3, r3, #7
 8001d9c:	6891      	ldr	r1, [r2, #8]
 8001d9e:	e00c      	b.n	8001dba <HAL_TIM_ConfigClockSource+0xda>
 8001da0:	2207      	movs	r2, #7
 8001da2:	6883      	ldr	r3, [r0, #8]
 8001da4:	4393      	bics	r3, r2
 8001da6:	6083      	str	r3, [r0, #8]
 8001da8:	e7b9      	b.n	8001d1e <HAL_TIM_ConfigClockSource+0x3e>
 8001daa:	68cb      	ldr	r3, [r1, #12]
 8001dac:	684a      	ldr	r2, [r1, #4]
 8001dae:	6889      	ldr	r1, [r1, #8]
 8001db0:	f7ff ff8a 	bl	8001cc8 <TIM_ETR_SetConfig>
 8001db4:	2177      	movs	r1, #119	; 0x77
 8001db6:	6822      	ldr	r2, [r4, #0]
 8001db8:	6893      	ldr	r3, [r2, #8]
 8001dba:	430b      	orrs	r3, r1
 8001dbc:	6093      	str	r3, [r2, #8]
 8001dbe:	e7ae      	b.n	8001d1e <HAL_TIM_ConfigClockSource+0x3e>
 8001dc0:	684a      	ldr	r2, [r1, #4]
 8001dc2:	68cb      	ldr	r3, [r1, #12]
 8001dc4:	6a01      	ldr	r1, [r0, #32]
 8001dc6:	6a04      	ldr	r4, [r0, #32]
 8001dc8:	011b      	lsls	r3, r3, #4
 8001dca:	43bc      	bics	r4, r7
 8001dcc:	27f0      	movs	r7, #240	; 0xf0
 8001dce:	6204      	str	r4, [r0, #32]
 8001dd0:	6984      	ldr	r4, [r0, #24]
 8001dd2:	43bc      	bics	r4, r7
 8001dd4:	4323      	orrs	r3, r4
 8001dd6:	240a      	movs	r4, #10
 8001dd8:	43a1      	bics	r1, r4
 8001dda:	430a      	orrs	r2, r1
 8001ddc:	6183      	str	r3, [r0, #24]
 8001dde:	6202      	str	r2, [r0, #32]
 8001de0:	2270      	movs	r2, #112	; 0x70
 8001de2:	6883      	ldr	r3, [r0, #8]
 8001de4:	4393      	bics	r3, r2
 8001de6:	001a      	movs	r2, r3
 8001de8:	2357      	movs	r3, #87	; 0x57
 8001dea:	4313      	orrs	r3, r2
 8001dec:	e7db      	b.n	8001da6 <HAL_TIM_ConfigClockSource+0xc6>
 8001dee:	684a      	ldr	r2, [r1, #4]
 8001df0:	68cb      	ldr	r3, [r1, #12]
 8001df2:	6a01      	ldr	r1, [r0, #32]
 8001df4:	6a04      	ldr	r4, [r0, #32]
 8001df6:	011b      	lsls	r3, r3, #4
 8001df8:	43bc      	bics	r4, r7
 8001dfa:	27f0      	movs	r7, #240	; 0xf0
 8001dfc:	6204      	str	r4, [r0, #32]
 8001dfe:	6984      	ldr	r4, [r0, #24]
 8001e00:	43bc      	bics	r4, r7
 8001e02:	4323      	orrs	r3, r4
 8001e04:	240a      	movs	r4, #10
 8001e06:	43a1      	bics	r1, r4
 8001e08:	430a      	orrs	r2, r1
 8001e0a:	6183      	str	r3, [r0, #24]
 8001e0c:	6202      	str	r2, [r0, #32]
 8001e0e:	2270      	movs	r2, #112	; 0x70
 8001e10:	6883      	ldr	r3, [r0, #8]
 8001e12:	4393      	bics	r3, r2
 8001e14:	001a      	movs	r2, r3
 8001e16:	2347      	movs	r3, #71	; 0x47
 8001e18:	e7e7      	b.n	8001dea <HAL_TIM_ConfigClockSource+0x10a>
 8001e1a:	2270      	movs	r2, #112	; 0x70
 8001e1c:	6883      	ldr	r3, [r0, #8]
 8001e1e:	4393      	bics	r3, r2
 8001e20:	001a      	movs	r2, r3
 8001e22:	2307      	movs	r3, #7
 8001e24:	e7e1      	b.n	8001dea <HAL_TIM_ConfigClockSource+0x10a>
 8001e26:	2270      	movs	r2, #112	; 0x70
 8001e28:	6883      	ldr	r3, [r0, #8]
 8001e2a:	4393      	bics	r3, r2
 8001e2c:	001a      	movs	r2, r3
 8001e2e:	2317      	movs	r3, #23
 8001e30:	e7db      	b.n	8001dea <HAL_TIM_ConfigClockSource+0x10a>
 8001e32:	2270      	movs	r2, #112	; 0x70
 8001e34:	6883      	ldr	r3, [r0, #8]
 8001e36:	4393      	bics	r3, r2
 8001e38:	001a      	movs	r2, r3
 8001e3a:	2327      	movs	r3, #39	; 0x27
 8001e3c:	e7d5      	b.n	8001dea <HAL_TIM_ConfigClockSource+0x10a>
 8001e3e:	46c0      	nop			; (mov r8, r8)
 8001e40:	ffff0088 	.word	0xffff0088
 8001e44:	ffff0fff 	.word	0xffff0fff

08001e48 <TIM_CCxChannelCmd>:
 8001e48:	b510      	push	{r4, lr}
 8001e4a:	2401      	movs	r4, #1
 8001e4c:	408c      	lsls	r4, r1
 8001e4e:	408a      	lsls	r2, r1
 8001e50:	6a03      	ldr	r3, [r0, #32]
 8001e52:	43a3      	bics	r3, r4
 8001e54:	6203      	str	r3, [r0, #32]
 8001e56:	6a03      	ldr	r3, [r0, #32]
 8001e58:	431a      	orrs	r2, r3
 8001e5a:	6202      	str	r2, [r0, #32]
 8001e5c:	bd10      	pop	{r4, pc}
	...

08001e60 <HAL_TIM_PWM_Start>:
 8001e60:	b510      	push	{r4, lr}
 8001e62:	0004      	movs	r4, r0
 8001e64:	2201      	movs	r2, #1
 8001e66:	6800      	ldr	r0, [r0, #0]
 8001e68:	f7ff ffee 	bl	8001e48 <TIM_CCxChannelCmd>
 8001e6c:	6823      	ldr	r3, [r4, #0]
 8001e6e:	4a0b      	ldr	r2, [pc, #44]	; (8001e9c <HAL_TIM_PWM_Start+0x3c>)
 8001e70:	4293      	cmp	r3, r2
 8001e72:	d008      	beq.n	8001e86 <HAL_TIM_PWM_Start+0x26>
 8001e74:	4a0a      	ldr	r2, [pc, #40]	; (8001ea0 <HAL_TIM_PWM_Start+0x40>)
 8001e76:	4293      	cmp	r3, r2
 8001e78:	d005      	beq.n	8001e86 <HAL_TIM_PWM_Start+0x26>
 8001e7a:	4a0a      	ldr	r2, [pc, #40]	; (8001ea4 <HAL_TIM_PWM_Start+0x44>)
 8001e7c:	4293      	cmp	r3, r2
 8001e7e:	d002      	beq.n	8001e86 <HAL_TIM_PWM_Start+0x26>
 8001e80:	4a09      	ldr	r2, [pc, #36]	; (8001ea8 <HAL_TIM_PWM_Start+0x48>)
 8001e82:	4293      	cmp	r3, r2
 8001e84:	d104      	bne.n	8001e90 <HAL_TIM_PWM_Start+0x30>
 8001e86:	2280      	movs	r2, #128	; 0x80
 8001e88:	6c59      	ldr	r1, [r3, #68]	; 0x44
 8001e8a:	0212      	lsls	r2, r2, #8
 8001e8c:	430a      	orrs	r2, r1
 8001e8e:	645a      	str	r2, [r3, #68]	; 0x44
 8001e90:	2201      	movs	r2, #1
 8001e92:	6819      	ldr	r1, [r3, #0]
 8001e94:	2000      	movs	r0, #0
 8001e96:	430a      	orrs	r2, r1
 8001e98:	601a      	str	r2, [r3, #0]
 8001e9a:	bd10      	pop	{r4, pc}
 8001e9c:	40012c00 	.word	0x40012c00
 8001ea0:	40014000 	.word	0x40014000
 8001ea4:	40014400 	.word	0x40014400
 8001ea8:	40014800 	.word	0x40014800

08001eac <HAL_TIM_PWM_Start_IT>:
 8001eac:	b510      	push	{r4, lr}
 8001eae:	0004      	movs	r4, r0
 8001eb0:	290c      	cmp	r1, #12
 8001eb2:	d80e      	bhi.n	8001ed2 <HAL_TIM_PWM_Start_IT+0x26>
 8001eb4:	0008      	movs	r0, r1
 8001eb6:	f7fe f927 	bl	8000108 <__gnu_thumb1_case_uqi>
 8001eba:	0c07      	.short	0x0c07
 8001ebc:	0c280c0c 	.word	0x0c280c0c
 8001ec0:	0c2c0c0c 	.word	0x0c2c0c0c
 8001ec4:	0c0c      	.short	0x0c0c
 8001ec6:	30          	.byte	0x30
 8001ec7:	00          	.byte	0x00
 8001ec8:	2302      	movs	r3, #2
 8001eca:	6822      	ldr	r2, [r4, #0]
 8001ecc:	68d0      	ldr	r0, [r2, #12]
 8001ece:	4303      	orrs	r3, r0
 8001ed0:	60d3      	str	r3, [r2, #12]
 8001ed2:	2201      	movs	r2, #1
 8001ed4:	6820      	ldr	r0, [r4, #0]
 8001ed6:	f7ff ffb7 	bl	8001e48 <TIM_CCxChannelCmd>
 8001eda:	6823      	ldr	r3, [r4, #0]
 8001edc:	4a11      	ldr	r2, [pc, #68]	; (8001f24 <HAL_TIM_PWM_Start_IT+0x78>)
 8001ede:	4293      	cmp	r3, r2
 8001ee0:	d008      	beq.n	8001ef4 <HAL_TIM_PWM_Start_IT+0x48>
 8001ee2:	4a11      	ldr	r2, [pc, #68]	; (8001f28 <HAL_TIM_PWM_Start_IT+0x7c>)
 8001ee4:	4293      	cmp	r3, r2
 8001ee6:	d005      	beq.n	8001ef4 <HAL_TIM_PWM_Start_IT+0x48>
 8001ee8:	4a10      	ldr	r2, [pc, #64]	; (8001f2c <HAL_TIM_PWM_Start_IT+0x80>)
 8001eea:	4293      	cmp	r3, r2
 8001eec:	d002      	beq.n	8001ef4 <HAL_TIM_PWM_Start_IT+0x48>
 8001eee:	4a10      	ldr	r2, [pc, #64]	; (8001f30 <HAL_TIM_PWM_Start_IT+0x84>)
 8001ef0:	4293      	cmp	r3, r2
 8001ef2:	d104      	bne.n	8001efe <HAL_TIM_PWM_Start_IT+0x52>
 8001ef4:	2280      	movs	r2, #128	; 0x80
 8001ef6:	6c59      	ldr	r1, [r3, #68]	; 0x44
 8001ef8:	0212      	lsls	r2, r2, #8
 8001efa:	430a      	orrs	r2, r1
 8001efc:	645a      	str	r2, [r3, #68]	; 0x44
 8001efe:	2201      	movs	r2, #1
 8001f00:	6819      	ldr	r1, [r3, #0]
 8001f02:	2000      	movs	r0, #0
 8001f04:	430a      	orrs	r2, r1
 8001f06:	601a      	str	r2, [r3, #0]
 8001f08:	bd10      	pop	{r4, pc}
 8001f0a:	6822      	ldr	r2, [r4, #0]
 8001f0c:	2304      	movs	r3, #4
 8001f0e:	68d0      	ldr	r0, [r2, #12]
 8001f10:	e7dd      	b.n	8001ece <HAL_TIM_PWM_Start_IT+0x22>
 8001f12:	6822      	ldr	r2, [r4, #0]
 8001f14:	2308      	movs	r3, #8
 8001f16:	68d0      	ldr	r0, [r2, #12]
 8001f18:	e7d9      	b.n	8001ece <HAL_TIM_PWM_Start_IT+0x22>
 8001f1a:	6822      	ldr	r2, [r4, #0]
 8001f1c:	2310      	movs	r3, #16
 8001f1e:	68d0      	ldr	r0, [r2, #12]
 8001f20:	e7d5      	b.n	8001ece <HAL_TIM_PWM_Start_IT+0x22>
 8001f22:	46c0      	nop			; (mov r8, r8)
 8001f24:	40012c00 	.word	0x40012c00
 8001f28:	40014000 	.word	0x40014000
 8001f2c:	40014400 	.word	0x40014400
 8001f30:	40014800 	.word	0x40014800

08001f34 <HAL_TIM_OC_Start_IT>:
 8001f34:	b510      	push	{r4, lr}
 8001f36:	f7ff ffb9 	bl	8001eac <HAL_TIM_PWM_Start_IT>
 8001f3a:	bd10      	pop	{r4, pc}

08001f3c <HAL_TIM_IC_Start_DMA>:
 8001f3c:	b570      	push	{r4, r5, r6, lr}
 8001f3e:	000d      	movs	r5, r1
 8001f40:	0001      	movs	r1, r0
 8001f42:	0004      	movs	r4, r0
 8001f44:	2002      	movs	r0, #2
 8001f46:	313d      	adds	r1, #61	; 0x3d
 8001f48:	780e      	ldrb	r6, [r1, #0]
 8001f4a:	4286      	cmp	r6, r0
 8001f4c:	d02f      	beq.n	8001fae <HAL_TIM_IC_Start_DMA+0x72>
 8001f4e:	7808      	ldrb	r0, [r1, #0]
 8001f50:	b2c0      	uxtb	r0, r0
 8001f52:	2801      	cmp	r0, #1
 8001f54:	d105      	bne.n	8001f62 <HAL_TIM_IC_Start_DMA+0x26>
 8001f56:	2a00      	cmp	r2, #0
 8001f58:	d101      	bne.n	8001f5e <HAL_TIM_IC_Start_DMA+0x22>
 8001f5a:	2b00      	cmp	r3, #0
 8001f5c:	d127      	bne.n	8001fae <HAL_TIM_IC_Start_DMA+0x72>
 8001f5e:	2002      	movs	r0, #2
 8001f60:	7008      	strb	r0, [r1, #0]
 8001f62:	2d0c      	cmp	r5, #12
 8001f64:	d818      	bhi.n	8001f98 <HAL_TIM_IC_Start_DMA+0x5c>
 8001f66:	0028      	movs	r0, r5
 8001f68:	f7fe f8ce 	bl	8000108 <__gnu_thumb1_case_uqi>
 8001f6c:	16161607 	.word	0x16161607
 8001f70:	16161622 	.word	0x16161622
 8001f74:	16161630 	.word	0x16161630
 8001f78:	3e          	.byte	0x3e
 8001f79:	00          	.byte	0x00
 8001f7a:	6a60      	ldr	r0, [r4, #36]	; 0x24
 8001f7c:	4921      	ldr	r1, [pc, #132]	; (8002004 <HAL_TIM_IC_Start_DMA+0xc8>)
 8001f7e:	6281      	str	r1, [r0, #40]	; 0x28
 8001f80:	4921      	ldr	r1, [pc, #132]	; (8002008 <HAL_TIM_IC_Start_DMA+0xcc>)
 8001f82:	6301      	str	r1, [r0, #48]	; 0x30
 8001f84:	6821      	ldr	r1, [r4, #0]
 8001f86:	3134      	adds	r1, #52	; 0x34
 8001f88:	f7fe fdb6 	bl	8000af8 <HAL_DMA_Start_IT>
 8001f8c:	2380      	movs	r3, #128	; 0x80
 8001f8e:	6822      	ldr	r2, [r4, #0]
 8001f90:	009b      	lsls	r3, r3, #2
 8001f92:	68d1      	ldr	r1, [r2, #12]
 8001f94:	430b      	orrs	r3, r1
 8001f96:	60d3      	str	r3, [r2, #12]
 8001f98:	2201      	movs	r2, #1
 8001f9a:	0029      	movs	r1, r5
 8001f9c:	6820      	ldr	r0, [r4, #0]
 8001f9e:	f7ff ff53 	bl	8001e48 <TIM_CCxChannelCmd>
 8001fa2:	2301      	movs	r3, #1
 8001fa4:	2000      	movs	r0, #0
 8001fa6:	6822      	ldr	r2, [r4, #0]
 8001fa8:	6811      	ldr	r1, [r2, #0]
 8001faa:	430b      	orrs	r3, r1
 8001fac:	6013      	str	r3, [r2, #0]
 8001fae:	bd70      	pop	{r4, r5, r6, pc}
 8001fb0:	6aa0      	ldr	r0, [r4, #40]	; 0x28
 8001fb2:	4914      	ldr	r1, [pc, #80]	; (8002004 <HAL_TIM_IC_Start_DMA+0xc8>)
 8001fb4:	6281      	str	r1, [r0, #40]	; 0x28
 8001fb6:	4914      	ldr	r1, [pc, #80]	; (8002008 <HAL_TIM_IC_Start_DMA+0xcc>)
 8001fb8:	6301      	str	r1, [r0, #48]	; 0x30
 8001fba:	6821      	ldr	r1, [r4, #0]
 8001fbc:	3138      	adds	r1, #56	; 0x38
 8001fbe:	f7fe fd9b 	bl	8000af8 <HAL_DMA_Start_IT>
 8001fc2:	2380      	movs	r3, #128	; 0x80
 8001fc4:	6822      	ldr	r2, [r4, #0]
 8001fc6:	00db      	lsls	r3, r3, #3
 8001fc8:	68d1      	ldr	r1, [r2, #12]
 8001fca:	e7e3      	b.n	8001f94 <HAL_TIM_IC_Start_DMA+0x58>
 8001fcc:	6ae0      	ldr	r0, [r4, #44]	; 0x2c
 8001fce:	490d      	ldr	r1, [pc, #52]	; (8002004 <HAL_TIM_IC_Start_DMA+0xc8>)
 8001fd0:	6281      	str	r1, [r0, #40]	; 0x28
 8001fd2:	490d      	ldr	r1, [pc, #52]	; (8002008 <HAL_TIM_IC_Start_DMA+0xcc>)
 8001fd4:	6301      	str	r1, [r0, #48]	; 0x30
 8001fd6:	6821      	ldr	r1, [r4, #0]
 8001fd8:	313c      	adds	r1, #60	; 0x3c
 8001fda:	f7fe fd8d 	bl	8000af8 <HAL_DMA_Start_IT>
 8001fde:	2380      	movs	r3, #128	; 0x80
 8001fe0:	6822      	ldr	r2, [r4, #0]
 8001fe2:	011b      	lsls	r3, r3, #4
 8001fe4:	68d1      	ldr	r1, [r2, #12]
 8001fe6:	e7d5      	b.n	8001f94 <HAL_TIM_IC_Start_DMA+0x58>
 8001fe8:	6b20      	ldr	r0, [r4, #48]	; 0x30
 8001fea:	4906      	ldr	r1, [pc, #24]	; (8002004 <HAL_TIM_IC_Start_DMA+0xc8>)
 8001fec:	6281      	str	r1, [r0, #40]	; 0x28
 8001fee:	4906      	ldr	r1, [pc, #24]	; (8002008 <HAL_TIM_IC_Start_DMA+0xcc>)
 8001ff0:	6301      	str	r1, [r0, #48]	; 0x30
 8001ff2:	6821      	ldr	r1, [r4, #0]
 8001ff4:	3140      	adds	r1, #64	; 0x40
 8001ff6:	f7fe fd7f 	bl	8000af8 <HAL_DMA_Start_IT>
 8001ffa:	2380      	movs	r3, #128	; 0x80
 8001ffc:	6822      	ldr	r2, [r4, #0]
 8001ffe:	015b      	lsls	r3, r3, #5
 8002000:	68d1      	ldr	r1, [r2, #12]
 8002002:	e7c7      	b.n	8001f94 <HAL_TIM_IC_Start_DMA+0x58>
 8002004:	080016fd 	.word	0x080016fd
 8002008:	08001889 	.word	0x08001889

0800200c <TIM_CCxNChannelCmd>:
 800200c:	b510      	push	{r4, lr}
 800200e:	2404      	movs	r4, #4
 8002010:	408c      	lsls	r4, r1
 8002012:	408a      	lsls	r2, r1
 8002014:	6a03      	ldr	r3, [r0, #32]
 8002016:	43a3      	bics	r3, r4
 8002018:	6203      	str	r3, [r0, #32]
 800201a:	6a03      	ldr	r3, [r0, #32]
 800201c:	431a      	orrs	r2, r3
 800201e:	6202      	str	r2, [r0, #32]
 8002020:	bd10      	pop	{r4, pc}

08002022 <HAL_TIMEx_PWMN_Start>:
 8002022:	b510      	push	{r4, lr}
 8002024:	0004      	movs	r4, r0
 8002026:	2204      	movs	r2, #4
 8002028:	6800      	ldr	r0, [r0, #0]
 800202a:	f7ff ffef 	bl	800200c <TIM_CCxNChannelCmd>
 800202e:	2280      	movs	r2, #128	; 0x80
 8002030:	6823      	ldr	r3, [r4, #0]
 8002032:	0212      	lsls	r2, r2, #8
 8002034:	6c59      	ldr	r1, [r3, #68]	; 0x44
 8002036:	2000      	movs	r0, #0
 8002038:	430a      	orrs	r2, r1
 800203a:	645a      	str	r2, [r3, #68]	; 0x44
 800203c:	2201      	movs	r2, #1
 800203e:	6819      	ldr	r1, [r3, #0]
 8002040:	430a      	orrs	r2, r1
 8002042:	601a      	str	r2, [r3, #0]
 8002044:	bd10      	pop	{r4, pc}

08002046 <HAL_TIMEx_MasterConfigSynchronization>:
 8002046:	b530      	push	{r4, r5, lr}
 8002048:	0004      	movs	r4, r0
 800204a:	343c      	adds	r4, #60	; 0x3c
 800204c:	7822      	ldrb	r2, [r4, #0]
 800204e:	0003      	movs	r3, r0
 8002050:	2002      	movs	r0, #2
 8002052:	2a01      	cmp	r2, #1
 8002054:	d017      	beq.n	8002086 <HAL_TIMEx_MasterConfigSynchronization+0x40>
 8002056:	001d      	movs	r5, r3
 8002058:	681b      	ldr	r3, [r3, #0]
 800205a:	353d      	adds	r5, #61	; 0x3d
 800205c:	7028      	strb	r0, [r5, #0]
 800205e:	685a      	ldr	r2, [r3, #4]
 8002060:	306e      	adds	r0, #110	; 0x6e
 8002062:	4382      	bics	r2, r0
 8002064:	605a      	str	r2, [r3, #4]
 8002066:	685a      	ldr	r2, [r3, #4]
 8002068:	6808      	ldr	r0, [r1, #0]
 800206a:	6849      	ldr	r1, [r1, #4]
 800206c:	4302      	orrs	r2, r0
 800206e:	2080      	movs	r0, #128	; 0x80
 8002070:	605a      	str	r2, [r3, #4]
 8002072:	689a      	ldr	r2, [r3, #8]
 8002074:	4382      	bics	r2, r0
 8002076:	609a      	str	r2, [r3, #8]
 8002078:	689a      	ldr	r2, [r3, #8]
 800207a:	2000      	movs	r0, #0
 800207c:	430a      	orrs	r2, r1
 800207e:	609a      	str	r2, [r3, #8]
 8002080:	2301      	movs	r3, #1
 8002082:	702b      	strb	r3, [r5, #0]
 8002084:	7020      	strb	r0, [r4, #0]
 8002086:	bd30      	pop	{r4, r5, pc}

08002088 <HAL_TIMEx_ConfigBreakDeadTime>:
 8002088:	b530      	push	{r4, r5, lr}
 800208a:	0004      	movs	r4, r0
 800208c:	343c      	adds	r4, #60	; 0x3c
 800208e:	7823      	ldrb	r3, [r4, #0]
 8002090:	0002      	movs	r2, r0
 8002092:	2002      	movs	r0, #2
 8002094:	2b01      	cmp	r3, #1
 8002096:	d024      	beq.n	80020e2 <HAL_TIMEx_ConfigBreakDeadTime+0x5a>
 8002098:	0015      	movs	r5, r2
 800209a:	353d      	adds	r5, #61	; 0x3d
 800209c:	7028      	strb	r0, [r5, #0]
 800209e:	4b11      	ldr	r3, [pc, #68]	; (80020e4 <HAL_TIMEx_ConfigBreakDeadTime+0x5c>)
 80020a0:	68c8      	ldr	r0, [r1, #12]
 80020a2:	6812      	ldr	r2, [r2, #0]
 80020a4:	4003      	ands	r3, r0
 80020a6:	6888      	ldr	r0, [r1, #8]
 80020a8:	4303      	orrs	r3, r0
 80020aa:	480f      	ldr	r0, [pc, #60]	; (80020e8 <HAL_TIMEx_ConfigBreakDeadTime+0x60>)
 80020ac:	4003      	ands	r3, r0
 80020ae:	6848      	ldr	r0, [r1, #4]
 80020b0:	4303      	orrs	r3, r0
 80020b2:	480e      	ldr	r0, [pc, #56]	; (80020ec <HAL_TIMEx_ConfigBreakDeadTime+0x64>)
 80020b4:	4003      	ands	r3, r0
 80020b6:	6808      	ldr	r0, [r1, #0]
 80020b8:	4303      	orrs	r3, r0
 80020ba:	480d      	ldr	r0, [pc, #52]	; (80020f0 <HAL_TIMEx_ConfigBreakDeadTime+0x68>)
 80020bc:	4003      	ands	r3, r0
 80020be:	6908      	ldr	r0, [r1, #16]
 80020c0:	4303      	orrs	r3, r0
 80020c2:	480c      	ldr	r0, [pc, #48]	; (80020f4 <HAL_TIMEx_ConfigBreakDeadTime+0x6c>)
 80020c4:	4003      	ands	r3, r0
 80020c6:	6948      	ldr	r0, [r1, #20]
 80020c8:	6989      	ldr	r1, [r1, #24]
 80020ca:	4303      	orrs	r3, r0
 80020cc:	480a      	ldr	r0, [pc, #40]	; (80020f8 <HAL_TIMEx_ConfigBreakDeadTime+0x70>)
 80020ce:	4003      	ands	r3, r0
 80020d0:	480a      	ldr	r0, [pc, #40]	; (80020fc <HAL_TIMEx_ConfigBreakDeadTime+0x74>)
 80020d2:	430b      	orrs	r3, r1
 80020d4:	4003      	ands	r3, r0
 80020d6:	430b      	orrs	r3, r1
 80020d8:	6453      	str	r3, [r2, #68]	; 0x44
 80020da:	2000      	movs	r0, #0
 80020dc:	2301      	movs	r3, #1
 80020de:	702b      	strb	r3, [r5, #0]
 80020e0:	7020      	strb	r0, [r4, #0]
 80020e2:	bd30      	pop	{r4, r5, pc}
 80020e4:	fffffcff 	.word	0xfffffcff
 80020e8:	fffffbff 	.word	0xfffffbff
 80020ec:	fffff7ff 	.word	0xfffff7ff
 80020f0:	ffffefff 	.word	0xffffefff
 80020f4:	ffffdfff 	.word	0xffffdfff
 80020f8:	ffffbfff 	.word	0xffffbfff
 80020fc:	ffff7fff 	.word	0xffff7fff

08002100 <HAL_TIMEx_CommutationCallback>:
 8002100:	4770      	bx	lr

08002102 <HAL_TIMEx_BreakCallback>:
 8002102:	4770      	bx	lr

08002104 <LL_GPIO_Init>:
 8002104:	b5f0      	push	{r4, r5, r6, r7, lr}
 8002106:	2600      	movs	r6, #0
 8002108:	680f      	ldr	r7, [r1, #0]
 800210a:	b085      	sub	sp, #20
 800210c:	003b      	movs	r3, r7
 800210e:	40f3      	lsrs	r3, r6
 8002110:	d10c      	bne.n	800212c <LL_GPIO_Init+0x28>
 8002112:	684b      	ldr	r3, [r1, #4]
 8002114:	3b01      	subs	r3, #1
 8002116:	2b01      	cmp	r3, #1
 8002118:	d805      	bhi.n	8002126 <LL_GPIO_Init+0x22>
 800211a:	68ca      	ldr	r2, [r1, #12]
 800211c:	6843      	ldr	r3, [r0, #4]
 800211e:	437a      	muls	r2, r7
 8002120:	43bb      	bics	r3, r7
 8002122:	4313      	orrs	r3, r2
 8002124:	6043      	str	r3, [r0, #4]
 8002126:	2001      	movs	r0, #1
 8002128:	b005      	add	sp, #20
 800212a:	bdf0      	pop	{r4, r5, r6, r7, pc}
 800212c:	2301      	movs	r3, #1
 800212e:	40b3      	lsls	r3, r6
 8002130:	403b      	ands	r3, r7
 8002132:	d036      	beq.n	80021a2 <LL_GPIO_Init+0x9e>
 8002134:	684a      	ldr	r2, [r1, #4]
 8002136:	2503      	movs	r5, #3
 8002138:	9201      	str	r2, [sp, #4]
 800213a:	001a      	movs	r2, r3
 800213c:	435a      	muls	r2, r3
 800213e:	4355      	muls	r5, r2
 8002140:	43ed      	mvns	r5, r5
 8002142:	6804      	ldr	r4, [r0, #0]
 8002144:	9502      	str	r5, [sp, #8]
 8002146:	402c      	ands	r4, r5
 8002148:	9d01      	ldr	r5, [sp, #4]
 800214a:	4355      	muls	r5, r2
 800214c:	432c      	orrs	r4, r5
 800214e:	6004      	str	r4, [r0, #0]
 8002150:	9c01      	ldr	r4, [sp, #4]
 8002152:	3c01      	subs	r4, #1
 8002154:	2c01      	cmp	r4, #1
 8002156:	d80a      	bhi.n	800216e <LL_GPIO_Init+0x6a>
 8002158:	6884      	ldr	r4, [r0, #8]
 800215a:	46a4      	mov	ip, r4
 800215c:	4665      	mov	r5, ip
 800215e:	688c      	ldr	r4, [r1, #8]
 8002160:	4354      	muls	r4, r2
 8002162:	9403      	str	r4, [sp, #12]
 8002164:	9c02      	ldr	r4, [sp, #8]
 8002166:	4025      	ands	r5, r4
 8002168:	9c03      	ldr	r4, [sp, #12]
 800216a:	432c      	orrs	r4, r5
 800216c:	6084      	str	r4, [r0, #8]
 800216e:	68c4      	ldr	r4, [r0, #12]
 8002170:	46a4      	mov	ip, r4
 8002172:	4665      	mov	r5, ip
 8002174:	690c      	ldr	r4, [r1, #16]
 8002176:	4354      	muls	r4, r2
 8002178:	9403      	str	r4, [sp, #12]
 800217a:	9c02      	ldr	r4, [sp, #8]
 800217c:	402c      	ands	r4, r5
 800217e:	0025      	movs	r5, r4
 8002180:	9c03      	ldr	r4, [sp, #12]
 8002182:	4325      	orrs	r5, r4
 8002184:	9c01      	ldr	r4, [sp, #4]
 8002186:	60c5      	str	r5, [r0, #12]
 8002188:	2c02      	cmp	r4, #2
 800218a:	d10a      	bne.n	80021a2 <LL_GPIO_Init+0x9e>
 800218c:	694c      	ldr	r4, [r1, #20]
 800218e:	2bff      	cmp	r3, #255	; 0xff
 8002190:	d809      	bhi.n	80021a6 <LL_GPIO_Init+0xa2>
 8002192:	250f      	movs	r5, #15
 8002194:	4352      	muls	r2, r2
 8002196:	4355      	muls	r5, r2
 8002198:	4362      	muls	r2, r4
 800219a:	6a03      	ldr	r3, [r0, #32]
 800219c:	43ab      	bics	r3, r5
 800219e:	4313      	orrs	r3, r2
 80021a0:	6203      	str	r3, [r0, #32]
 80021a2:	3601      	adds	r6, #1
 80021a4:	e7b2      	b.n	800210c <LL_GPIO_Init+0x8>
 80021a6:	220f      	movs	r2, #15
 80021a8:	0a1b      	lsrs	r3, r3, #8
 80021aa:	435b      	muls	r3, r3
 80021ac:	435b      	muls	r3, r3
 80021ae:	435a      	muls	r2, r3
 80021b0:	4363      	muls	r3, r4
 80021b2:	6a45      	ldr	r5, [r0, #36]	; 0x24
 80021b4:	4395      	bics	r5, r2
 80021b6:	431d      	orrs	r5, r3
 80021b8:	6245      	str	r5, [r0, #36]	; 0x24
 80021ba:	e7f2      	b.n	80021a2 <LL_GPIO_Init+0x9e>

080021bc <EE_VerifyPageFullyErased>:
 80021bc:	4b06      	ldr	r3, [pc, #24]	; (80021d8 <EE_VerifyPageFullyErased+0x1c>)
 80021be:	4a07      	ldr	r2, [pc, #28]	; (80021dc <EE_VerifyPageFullyErased+0x20>)
 80021c0:	4298      	cmp	r0, r3
 80021c2:	d902      	bls.n	80021ca <EE_VerifyPageFullyErased+0xe>
 80021c4:	2001      	movs	r0, #1
 80021c6:	b280      	uxth	r0, r0
 80021c8:	4770      	bx	lr
 80021ca:	8801      	ldrh	r1, [r0, #0]
 80021cc:	4291      	cmp	r1, r2
 80021ce:	d101      	bne.n	80021d4 <EE_VerifyPageFullyErased+0x18>
 80021d0:	3004      	adds	r0, #4
 80021d2:	e7f5      	b.n	80021c0 <EE_VerifyPageFullyErased+0x4>
 80021d4:	2000      	movs	r0, #0
 80021d6:	e7f6      	b.n	80021c6 <EE_VerifyPageFullyErased+0xa>
 80021d8:	080073ff 	.word	0x080073ff
 80021dc:	0000ffff 	.word	0x0000ffff

080021e0 <EE_VerifyPageFullWriteVariable>:
 80021e0:	4b1b      	ldr	r3, [pc, #108]	; (8002250 <EE_VerifyPageFullWriteVariable+0x70>)
 80021e2:	b570      	push	{r4, r5, r6, lr}
 80021e4:	881c      	ldrh	r4, [r3, #0]
 80021e6:	4b1b      	ldr	r3, [pc, #108]	; (8002254 <EE_VerifyPageFullWriteVariable+0x74>)
 80021e8:	0005      	movs	r5, r0
 80021ea:	881b      	ldrh	r3, [r3, #0]
 80021ec:	000a      	movs	r2, r1
 80021ee:	b29b      	uxth	r3, r3
 80021f0:	b2a4      	uxth	r4, r4
 80021f2:	2b00      	cmp	r3, #0
 80021f4:	d10b      	bne.n	800220e <EE_VerifyPageFullWriteVariable+0x2e>
 80021f6:	4b18      	ldr	r3, [pc, #96]	; (8002258 <EE_VerifyPageFullWriteVariable+0x78>)
 80021f8:	18e4      	adds	r4, r4, r3
 80021fa:	1e63      	subs	r3, r4, #1
 80021fc:	419c      	sbcs	r4, r3
 80021fe:	0164      	lsls	r4, r4, #5
 8002200:	4b16      	ldr	r3, [pc, #88]	; (800225c <EE_VerifyPageFullWriteVariable+0x7c>)
 8002202:	18e6      	adds	r6, r4, r3
 8002204:	4b16      	ldr	r3, [pc, #88]	; (8002260 <EE_VerifyPageFullWriteVariable+0x80>)
 8002206:	02a4      	lsls	r4, r4, #10
 8002208:	02b6      	lsls	r6, r6, #10
 800220a:	18e4      	adds	r4, r4, r3
 800220c:	e01b      	b.n	8002246 <EE_VerifyPageFullWriteVariable+0x66>
 800220e:	20ab      	movs	r0, #171	; 0xab
 8002210:	2c00      	cmp	r4, #0
 8002212:	d10f      	bne.n	8002234 <EE_VerifyPageFullWriteVariable+0x54>
 8002214:	4913      	ldr	r1, [pc, #76]	; (8002264 <EE_VerifyPageFullWriteVariable+0x84>)
 8002216:	428b      	cmp	r3, r1
 8002218:	d1f2      	bne.n	8002200 <EE_VerifyPageFullWriteVariable+0x20>
 800221a:	3420      	adds	r4, #32
 800221c:	e7f0      	b.n	8002200 <EE_VerifyPageFullWriteVariable+0x20>
 800221e:	6833      	ldr	r3, [r6, #0]
 8002220:	3301      	adds	r3, #1
 8002222:	d10f      	bne.n	8002244 <EE_VerifyPageFullWriteVariable+0x64>
 8002224:	2300      	movs	r3, #0
 8002226:	0031      	movs	r1, r6
 8002228:	2001      	movs	r0, #1
 800222a:	f7fe fd43 	bl	8000cb4 <HAL_FLASH_Program>
 800222e:	2800      	cmp	r0, #0
 8002230:	d001      	beq.n	8002236 <EE_VerifyPageFullWriteVariable+0x56>
 8002232:	b280      	uxth	r0, r0
 8002234:	bd70      	pop	{r4, r5, r6, pc}
 8002236:	0003      	movs	r3, r0
 8002238:	1cb1      	adds	r1, r6, #2
 800223a:	002a      	movs	r2, r5
 800223c:	2001      	movs	r0, #1
 800223e:	f7fe fd39 	bl	8000cb4 <HAL_FLASH_Program>
 8002242:	e7f6      	b.n	8002232 <EE_VerifyPageFullWriteVariable+0x52>
 8002244:	3604      	adds	r6, #4
 8002246:	42a6      	cmp	r6, r4
 8002248:	d3e9      	bcc.n	800221e <EE_VerifyPageFullWriteVariable+0x3e>
 800224a:	2080      	movs	r0, #128	; 0x80
 800224c:	e7f2      	b.n	8002234 <EE_VerifyPageFullWriteVariable+0x54>
 800224e:	46c0      	nop			; (mov r8, r8)
 8002250:	08007000 	.word	0x08007000
 8002254:	08007800 	.word	0x08007800
 8002258:	ffff1112 	.word	0xffff1112
 800225c:	0002001c 	.word	0x0002001c
 8002260:	080073ff 	.word	0x080073ff
 8002264:	0000eeee 	.word	0x0000eeee

08002268 <EE_Format>:
 8002268:	b51f      	push	{r0, r1, r2, r3, r4, lr}
 800226a:	2300      	movs	r3, #0
 800226c:	4813      	ldr	r0, [pc, #76]	; (80022bc <EE_Format+0x54>)
 800226e:	9300      	str	r3, [sp, #0]
 8002270:	9301      	str	r3, [sp, #4]
 8002272:	3301      	adds	r3, #1
 8002274:	9002      	str	r0, [sp, #8]
 8002276:	9303      	str	r3, [sp, #12]
 8002278:	f7ff ffa0 	bl	80021bc <EE_VerifyPageFullyErased>
 800227c:	2800      	cmp	r0, #0
 800227e:	d013      	beq.n	80022a8 <EE_Format+0x40>
 8002280:	2200      	movs	r2, #0
 8002282:	2300      	movs	r3, #0
 8002284:	490d      	ldr	r1, [pc, #52]	; (80022bc <EE_Format+0x54>)
 8002286:	2001      	movs	r0, #1
 8002288:	f7fe fd14 	bl	8000cb4 <HAL_FLASH_Program>
 800228c:	1e04      	subs	r4, r0, #0
 800228e:	d111      	bne.n	80022b4 <EE_Format+0x4c>
 8002290:	480b      	ldr	r0, [pc, #44]	; (80022c0 <EE_Format+0x58>)
 8002292:	9002      	str	r0, [sp, #8]
 8002294:	f7ff ff92 	bl	80021bc <EE_VerifyPageFullyErased>
 8002298:	2800      	cmp	r0, #0
 800229a:	d10b      	bne.n	80022b4 <EE_Format+0x4c>
 800229c:	4669      	mov	r1, sp
 800229e:	a801      	add	r0, sp, #4
 80022a0:	f7fe fd6e 	bl	8000d80 <HAL_FLASHEx_Erase>
 80022a4:	0004      	movs	r4, r0
 80022a6:	e005      	b.n	80022b4 <EE_Format+0x4c>
 80022a8:	4669      	mov	r1, sp
 80022aa:	a801      	add	r0, sp, #4
 80022ac:	f7fe fd68 	bl	8000d80 <HAL_FLASHEx_Erase>
 80022b0:	1e04      	subs	r4, r0, #0
 80022b2:	d0e5      	beq.n	8002280 <EE_Format+0x18>
 80022b4:	0020      	movs	r0, r4
 80022b6:	b004      	add	sp, #16
 80022b8:	bd10      	pop	{r4, pc}
 80022ba:	46c0      	nop			; (mov r8, r8)
 80022bc:	08007000 	.word	0x08007000
 80022c0:	08007800 	.word	0x08007800

080022c4 <EE_ReadVariable>:
 80022c4:	4b10      	ldr	r3, [pc, #64]	; (8002308 <EE_ReadVariable+0x44>)
 80022c6:	4a11      	ldr	r2, [pc, #68]	; (800230c <EE_ReadVariable+0x48>)
 80022c8:	881b      	ldrh	r3, [r3, #0]
 80022ca:	8812      	ldrh	r2, [r2, #0]
 80022cc:	b29b      	uxth	r3, r3
 80022ce:	b510      	push	{r4, lr}
 80022d0:	b292      	uxth	r2, r2
 80022d2:	2b00      	cmp	r3, #0
 80022d4:	d011      	beq.n	80022fa <EE_ReadVariable+0x36>
 80022d6:	2a00      	cmp	r2, #0
 80022d8:	d00e      	beq.n	80022f8 <EE_ReadVariable+0x34>
 80022da:	20ab      	movs	r0, #171	; 0xab
 80022dc:	bd10      	pop	{r4, pc}
 80022de:	881c      	ldrh	r4, [r3, #0]
 80022e0:	4284      	cmp	r4, r0
 80022e2:	d104      	bne.n	80022ee <EE_ReadVariable+0x2a>
 80022e4:	3b02      	subs	r3, #2
 80022e6:	881b      	ldrh	r3, [r3, #0]
 80022e8:	2000      	movs	r0, #0
 80022ea:	800b      	strh	r3, [r1, #0]
 80022ec:	e7f6      	b.n	80022dc <EE_ReadVariable+0x18>
 80022ee:	3b04      	subs	r3, #4
 80022f0:	4293      	cmp	r3, r2
 80022f2:	d8f4      	bhi.n	80022de <EE_ReadVariable+0x1a>
 80022f4:	2001      	movs	r0, #1
 80022f6:	e7f1      	b.n	80022dc <EE_ReadVariable+0x18>
 80022f8:	2320      	movs	r3, #32
 80022fa:	4c05      	ldr	r4, [pc, #20]	; (8002310 <EE_ReadVariable+0x4c>)
 80022fc:	029a      	lsls	r2, r3, #10
 80022fe:	1913      	adds	r3, r2, r4
 8002300:	4c04      	ldr	r4, [pc, #16]	; (8002314 <EE_ReadVariable+0x50>)
 8002302:	1912      	adds	r2, r2, r4
 8002304:	e7f4      	b.n	80022f0 <EE_ReadVariable+0x2c>
 8002306:	46c0      	nop			; (mov r8, r8)
 8002308:	08007000 	.word	0x08007000
 800230c:	08007800 	.word	0x08007800
 8002310:	080073fe 	.word	0x080073fe
 8002314:	08007002 	.word	0x08007002

08002318 <EE_Init>:
 8002318:	2100      	movs	r1, #0
 800231a:	b5f0      	push	{r4, r5, r6, r7, lr}
 800231c:	4859      	ldr	r0, [pc, #356]	; (8002484 <EE_Init+0x16c>)
 800231e:	4a5a      	ldr	r2, [pc, #360]	; (8002488 <EE_Init+0x170>)
 8002320:	8804      	ldrh	r4, [r0, #0]
 8002322:	b087      	sub	sp, #28
 8002324:	8813      	ldrh	r3, [r2, #0]
 8002326:	4d59      	ldr	r5, [pc, #356]	; (800248c <EE_Init+0x174>)
 8002328:	9102      	str	r1, [sp, #8]
 800232a:	9103      	str	r1, [sp, #12]
 800232c:	b2a4      	uxth	r4, r4
 800232e:	3101      	adds	r1, #1
 8002330:	b29b      	uxth	r3, r3
 8002332:	9004      	str	r0, [sp, #16]
 8002334:	9105      	str	r1, [sp, #20]
 8002336:	42ac      	cmp	r4, r5
 8002338:	d02a      	beq.n	8002390 <EE_Init+0x78>
 800233a:	4955      	ldr	r1, [pc, #340]	; (8002490 <EE_Init+0x178>)
 800233c:	428c      	cmp	r4, r1
 800233e:	d006      	beq.n	800234e <EE_Init+0x36>
 8002340:	2c00      	cmp	r4, #0
 8002342:	d101      	bne.n	8002348 <EE_Init+0x30>
 8002344:	2b00      	cmp	r3, #0
 8002346:	d166      	bne.n	8002416 <EE_Init+0xfe>
 8002348:	f7ff ff8e 	bl	8002268 <EE_Format>
 800234c:	e01d      	b.n	800238a <EE_Init+0x72>
 800234e:	2b00      	cmp	r3, #0
 8002350:	d107      	bne.n	8002362 <EE_Init+0x4a>
 8002352:	f7ff ff33 	bl	80021bc <EE_VerifyPageFullyErased>
 8002356:	2800      	cmp	r0, #0
 8002358:	d100      	bne.n	800235c <EE_Init+0x44>
 800235a:	e08d      	b.n	8002478 <EE_Init+0x160>
 800235c:	2000      	movs	r0, #0
 800235e:	b007      	add	sp, #28
 8002360:	bdf0      	pop	{r4, r5, r6, r7, pc}
 8002362:	42ab      	cmp	r3, r5
 8002364:	d1f0      	bne.n	8002348 <EE_Init+0x30>
 8002366:	f7ff ff29 	bl	80021bc <EE_VerifyPageFullyErased>
 800236a:	2800      	cmp	r0, #0
 800236c:	d107      	bne.n	800237e <EE_Init+0x66>
 800236e:	a902      	add	r1, sp, #8
 8002370:	a803      	add	r0, sp, #12
 8002372:	f7fe fd05 	bl	8000d80 <HAL_FLASHEx_Erase>
 8002376:	2800      	cmp	r0, #0
 8002378:	d001      	beq.n	800237e <EE_Init+0x66>
 800237a:	b280      	uxth	r0, r0
 800237c:	e7ef      	b.n	800235e <EE_Init+0x46>
 800237e:	2200      	movs	r2, #0
 8002380:	2300      	movs	r3, #0
 8002382:	4941      	ldr	r1, [pc, #260]	; (8002488 <EE_Init+0x170>)
 8002384:	2001      	movs	r0, #1
 8002386:	f7fe fc95 	bl	8000cb4 <HAL_FLASH_Program>
 800238a:	2800      	cmp	r0, #0
 800238c:	d1f5      	bne.n	800237a <EE_Init+0x62>
 800238e:	e7e5      	b.n	800235c <EE_Init+0x44>
 8002390:	2b00      	cmp	r3, #0
 8002392:	d12d      	bne.n	80023f0 <EE_Init+0xd8>
 8002394:	2701      	movs	r7, #1
 8002396:	001c      	movs	r4, r3
 8002398:	427f      	negs	r7, r7
 800239a:	4b3e      	ldr	r3, [pc, #248]	; (8002494 <EE_Init+0x17c>)
 800239c:	4d3e      	ldr	r5, [pc, #248]	; (8002498 <EE_Init+0x180>)
 800239e:	0062      	lsls	r2, r4, #1
 80023a0:	881b      	ldrh	r3, [r3, #0]
 80023a2:	5aa8      	ldrh	r0, [r5, r2]
 80023a4:	9201      	str	r2, [sp, #4]
 80023a6:	4283      	cmp	r3, r0
 80023a8:	d100      	bne.n	80023ac <EE_Init+0x94>
 80023aa:	b227      	sxth	r7, r4
 80023ac:	42bc      	cmp	r4, r7
 80023ae:	d111      	bne.n	80023d4 <EE_Init+0xbc>
 80023b0:	3401      	adds	r4, #1
 80023b2:	2c03      	cmp	r4, #3
 80023b4:	d1f1      	bne.n	800239a <EE_Init+0x82>
 80023b6:	2200      	movs	r2, #0
 80023b8:	2300      	movs	r3, #0
 80023ba:	4932      	ldr	r1, [pc, #200]	; (8002484 <EE_Init+0x16c>)
 80023bc:	2001      	movs	r0, #1
 80023be:	f7fe fc79 	bl	8000cb4 <HAL_FLASH_Program>
 80023c2:	2800      	cmp	r0, #0
 80023c4:	d1d9      	bne.n	800237a <EE_Init+0x62>
 80023c6:	4b30      	ldr	r3, [pc, #192]	; (8002488 <EE_Init+0x170>)
 80023c8:	9003      	str	r0, [sp, #12]
 80023ca:	9304      	str	r3, [sp, #16]
 80023cc:	2301      	movs	r3, #1
 80023ce:	9305      	str	r3, [sp, #20]
 80023d0:	482d      	ldr	r0, [pc, #180]	; (8002488 <EE_Init+0x170>)
 80023d2:	e7be      	b.n	8002352 <EE_Init+0x3a>
 80023d4:	4e31      	ldr	r6, [pc, #196]	; (800249c <EE_Init+0x184>)
 80023d6:	0031      	movs	r1, r6
 80023d8:	f7ff ff74 	bl	80022c4 <EE_ReadVariable>
 80023dc:	2801      	cmp	r0, #1
 80023de:	d0e7      	beq.n	80023b0 <EE_Init+0x98>
 80023e0:	0063      	lsls	r3, r4, #1
 80023e2:	8831      	ldrh	r1, [r6, #0]
 80023e4:	5ae8      	ldrh	r0, [r5, r3]
 80023e6:	f7ff fefb 	bl	80021e0 <EE_VerifyPageFullWriteVariable>
 80023ea:	2800      	cmp	r0, #0
 80023ec:	d0e0      	beq.n	80023b0 <EE_Init+0x98>
 80023ee:	e7b6      	b.n	800235e <EE_Init+0x46>
 80023f0:	4927      	ldr	r1, [pc, #156]	; (8002490 <EE_Init+0x178>)
 80023f2:	428b      	cmp	r3, r1
 80023f4:	d1a8      	bne.n	8002348 <EE_Init+0x30>
 80023f6:	0010      	movs	r0, r2
 80023f8:	9204      	str	r2, [sp, #16]
 80023fa:	f7ff fedf 	bl	80021bc <EE_VerifyPageFullyErased>
 80023fe:	2800      	cmp	r0, #0
 8002400:	d105      	bne.n	800240e <EE_Init+0xf6>
 8002402:	a902      	add	r1, sp, #8
 8002404:	a803      	add	r0, sp, #12
 8002406:	f7fe fcbb 	bl	8000d80 <HAL_FLASHEx_Erase>
 800240a:	2800      	cmp	r0, #0
 800240c:	d1b5      	bne.n	800237a <EE_Init+0x62>
 800240e:	2200      	movs	r2, #0
 8002410:	2300      	movs	r3, #0
 8002412:	491c      	ldr	r1, [pc, #112]	; (8002484 <EE_Init+0x16c>)
 8002414:	e7b6      	b.n	8002384 <EE_Init+0x6c>
 8002416:	428b      	cmp	r3, r1
 8002418:	d101      	bne.n	800241e <EE_Init+0x106>
 800241a:	9204      	str	r2, [sp, #16]
 800241c:	e7d8      	b.n	80023d0 <EE_Init+0xb8>
 800241e:	2701      	movs	r7, #1
 8002420:	427f      	negs	r7, r7
 8002422:	4b1f      	ldr	r3, [pc, #124]	; (80024a0 <EE_Init+0x188>)
 8002424:	4d1c      	ldr	r5, [pc, #112]	; (8002498 <EE_Init+0x180>)
 8002426:	0062      	lsls	r2, r4, #1
 8002428:	881b      	ldrh	r3, [r3, #0]
 800242a:	5aa8      	ldrh	r0, [r5, r2]
 800242c:	9201      	str	r2, [sp, #4]
 800242e:	4283      	cmp	r3, r0
 8002430:	d100      	bne.n	8002434 <EE_Init+0x11c>
 8002432:	b227      	sxth	r7, r4
 8002434:	42bc      	cmp	r4, r7
 8002436:	d111      	bne.n	800245c <EE_Init+0x144>
 8002438:	3401      	adds	r4, #1
 800243a:	2c03      	cmp	r4, #3
 800243c:	d1f1      	bne.n	8002422 <EE_Init+0x10a>
 800243e:	2200      	movs	r2, #0
 8002440:	2300      	movs	r3, #0
 8002442:	4911      	ldr	r1, [pc, #68]	; (8002488 <EE_Init+0x170>)
 8002444:	2001      	movs	r0, #1
 8002446:	f7fe fc35 	bl	8000cb4 <HAL_FLASH_Program>
 800244a:	2800      	cmp	r0, #0
 800244c:	d195      	bne.n	800237a <EE_Init+0x62>
 800244e:	4b0d      	ldr	r3, [pc, #52]	; (8002484 <EE_Init+0x16c>)
 8002450:	9003      	str	r0, [sp, #12]
 8002452:	9304      	str	r3, [sp, #16]
 8002454:	2301      	movs	r3, #1
 8002456:	480b      	ldr	r0, [pc, #44]	; (8002484 <EE_Init+0x16c>)
 8002458:	9305      	str	r3, [sp, #20]
 800245a:	e77a      	b.n	8002352 <EE_Init+0x3a>
 800245c:	4e0f      	ldr	r6, [pc, #60]	; (800249c <EE_Init+0x184>)
 800245e:	0031      	movs	r1, r6
 8002460:	f7ff ff30 	bl	80022c4 <EE_ReadVariable>
 8002464:	2801      	cmp	r0, #1
 8002466:	d0e7      	beq.n	8002438 <EE_Init+0x120>
 8002468:	0063      	lsls	r3, r4, #1
 800246a:	8831      	ldrh	r1, [r6, #0]
 800246c:	5ae8      	ldrh	r0, [r5, r3]
 800246e:	f7ff feb7 	bl	80021e0 <EE_VerifyPageFullWriteVariable>
 8002472:	2800      	cmp	r0, #0
 8002474:	d0e0      	beq.n	8002438 <EE_Init+0x120>
 8002476:	e772      	b.n	800235e <EE_Init+0x46>
 8002478:	a902      	add	r1, sp, #8
 800247a:	a803      	add	r0, sp, #12
 800247c:	f7fe fc80 	bl	8000d80 <HAL_FLASHEx_Erase>
 8002480:	e783      	b.n	800238a <EE_Init+0x72>
 8002482:	46c0      	nop			; (mov r8, r8)
 8002484:	08007000 	.word	0x08007000
 8002488:	08007800 	.word	0x08007800
 800248c:	0000eeee 	.word	0x0000eeee
 8002490:	0000ffff 	.word	0x0000ffff
 8002494:	08007006 	.word	0x08007006
 8002498:	20000000 	.word	0x20000000
 800249c:	20000084 	.word	0x20000084
 80024a0:	08007806 	.word	0x08007806

080024a4 <EE_WriteVariable>:
 80024a4:	b5f0      	push	{r4, r5, r6, r7, lr}
 80024a6:	b087      	sub	sp, #28
 80024a8:	0006      	movs	r6, r0
 80024aa:	000d      	movs	r5, r1
 80024ac:	f7ff fe98 	bl	80021e0 <EE_VerifyPageFullWriteVariable>
 80024b0:	2880      	cmp	r0, #128	; 0x80
 80024b2:	d116      	bne.n	80024e2 <EE_WriteVariable+0x3e>
 80024b4:	2300      	movs	r3, #0
 80024b6:	4c29      	ldr	r4, [pc, #164]	; (800255c <EE_WriteVariable+0xb8>)
 80024b8:	9302      	str	r3, [sp, #8]
 80024ba:	4b29      	ldr	r3, [pc, #164]	; (8002560 <EE_WriteVariable+0xbc>)
 80024bc:	8819      	ldrh	r1, [r3, #0]
 80024be:	8822      	ldrh	r2, [r4, #0]
 80024c0:	b292      	uxth	r2, r2
 80024c2:	2900      	cmp	r1, #0
 80024c4:	d00f      	beq.n	80024e6 <EE_WriteVariable+0x42>
 80024c6:	302b      	adds	r0, #43	; 0x2b
 80024c8:	2a00      	cmp	r2, #0
 80024ca:	d10a      	bne.n	80024e2 <EE_WriteVariable+0x3e>
 80024cc:	9400      	str	r4, [sp, #0]
 80024ce:	001c      	movs	r4, r3
 80024d0:	4a24      	ldr	r2, [pc, #144]	; (8002564 <EE_WriteVariable+0xc0>)
 80024d2:	2300      	movs	r3, #0
 80024d4:	0021      	movs	r1, r4
 80024d6:	2001      	movs	r0, #1
 80024d8:	f7fe fbec 	bl	8000cb4 <HAL_FLASH_Program>
 80024dc:	2800      	cmp	r0, #0
 80024de:	d004      	beq.n	80024ea <EE_WriteVariable+0x46>
 80024e0:	b280      	uxth	r0, r0
 80024e2:	b007      	add	sp, #28
 80024e4:	bdf0      	pop	{r4, r5, r6, r7, pc}
 80024e6:	9300      	str	r3, [sp, #0]
 80024e8:	e7f2      	b.n	80024d0 <EE_WriteVariable+0x2c>
 80024ea:	0029      	movs	r1, r5
 80024ec:	0030      	movs	r0, r6
 80024ee:	f7ff fe77 	bl	80021e0 <EE_VerifyPageFullWriteVariable>
 80024f2:	2800      	cmp	r0, #0
 80024f4:	d1f5      	bne.n	80024e2 <EE_WriteVariable+0x3e>
 80024f6:	0005      	movs	r5, r0
 80024f8:	4b1b      	ldr	r3, [pc, #108]	; (8002568 <EE_WriteVariable+0xc4>)
 80024fa:	18eb      	adds	r3, r5, r3
 80024fc:	8818      	ldrh	r0, [r3, #0]
 80024fe:	9301      	str	r3, [sp, #4]
 8002500:	4286      	cmp	r6, r0
 8002502:	d11c      	bne.n	800253e <EE_WriteVariable+0x9a>
 8002504:	3502      	adds	r5, #2
 8002506:	2d06      	cmp	r5, #6
 8002508:	d1f6      	bne.n	80024f8 <EE_WriteVariable+0x54>
 800250a:	2300      	movs	r3, #0
 800250c:	2601      	movs	r6, #1
 800250e:	9303      	str	r3, [sp, #12]
 8002510:	9b00      	ldr	r3, [sp, #0]
 8002512:	a902      	add	r1, sp, #8
 8002514:	a803      	add	r0, sp, #12
 8002516:	9304      	str	r3, [sp, #16]
 8002518:	9605      	str	r6, [sp, #20]
 800251a:	f7fe fc31 	bl	8000d80 <HAL_FLASHEx_Erase>
 800251e:	0005      	movs	r5, r0
 8002520:	b280      	uxth	r0, r0
 8002522:	2d00      	cmp	r5, #0
 8002524:	d1dd      	bne.n	80024e2 <EE_WriteVariable+0x3e>
 8002526:	2300      	movs	r3, #0
 8002528:	2200      	movs	r2, #0
 800252a:	0021      	movs	r1, r4
 800252c:	0030      	movs	r0, r6
 800252e:	f7fe fbc1 	bl	8000cb4 <HAL_FLASH_Program>
 8002532:	0003      	movs	r3, r0
 8002534:	0028      	movs	r0, r5
 8002536:	2b00      	cmp	r3, #0
 8002538:	d0d3      	beq.n	80024e2 <EE_WriteVariable+0x3e>
 800253a:	b298      	uxth	r0, r3
 800253c:	e7d1      	b.n	80024e2 <EE_WriteVariable+0x3e>
 800253e:	4f0b      	ldr	r7, [pc, #44]	; (800256c <EE_WriteVariable+0xc8>)
 8002540:	0039      	movs	r1, r7
 8002542:	f7ff febf 	bl	80022c4 <EE_ReadVariable>
 8002546:	2801      	cmp	r0, #1
 8002548:	d0dc      	beq.n	8002504 <EE_WriteVariable+0x60>
 800254a:	9b01      	ldr	r3, [sp, #4]
 800254c:	8839      	ldrh	r1, [r7, #0]
 800254e:	8818      	ldrh	r0, [r3, #0]
 8002550:	f7ff fe46 	bl	80021e0 <EE_VerifyPageFullWriteVariable>
 8002554:	2800      	cmp	r0, #0
 8002556:	d0d5      	beq.n	8002504 <EE_WriteVariable+0x60>
 8002558:	e7c3      	b.n	80024e2 <EE_WriteVariable+0x3e>
 800255a:	46c0      	nop			; (mov r8, r8)
 800255c:	08007800 	.word	0x08007800
 8002560:	08007000 	.word	0x08007000
 8002564:	0000eeee 	.word	0x0000eeee
 8002568:	20000000 	.word	0x20000000
 800256c:	20000084 	.word	0x20000084

08002570 <map>:
 8002570:	b510      	push	{r4, lr}
 8002572:	001c      	movs	r4, r3
 8002574:	4288      	cmp	r0, r1
 8002576:	da00      	bge.n	800257a <map+0xa>
 8002578:	0008      	movs	r0, r1
 800257a:	0013      	movs	r3, r2
 800257c:	4282      	cmp	r2, r0
 800257e:	dd00      	ble.n	8002582 <map+0x12>
 8002580:	0003      	movs	r3, r0
 8002582:	9802      	ldr	r0, [sp, #8]
 8002584:	1a5b      	subs	r3, r3, r1
 8002586:	1b00      	subs	r0, r0, r4
 8002588:	4358      	muls	r0, r3
 800258a:	1a51      	subs	r1, r2, r1
 800258c:	f7fd fe50 	bl	8000230 <__divsi3>
 8002590:	1900      	adds	r0, r0, r4
 8002592:	bd10      	pop	{r4, pc}

08002594 <storeEEpromConfig>:
 8002594:	b510      	push	{r4, lr}
 8002596:	4b09      	ldr	r3, [pc, #36]	; (80025bc <storeEEpromConfig+0x28>)
 8002598:	4c09      	ldr	r4, [pc, #36]	; (80025c0 <storeEEpromConfig+0x2c>)
 800259a:	7819      	ldrb	r1, [r3, #0]
 800259c:	8820      	ldrh	r0, [r4, #0]
 800259e:	f7ff ff81 	bl	80024a4 <EE_WriteVariable>
 80025a2:	4b08      	ldr	r3, [pc, #32]	; (80025c4 <storeEEpromConfig+0x30>)
 80025a4:	8860      	ldrh	r0, [r4, #2]
 80025a6:	6819      	ldr	r1, [r3, #0]
 80025a8:	b289      	uxth	r1, r1
 80025aa:	f7ff ff7b 	bl	80024a4 <EE_WriteVariable>
 80025ae:	4b06      	ldr	r3, [pc, #24]	; (80025c8 <storeEEpromConfig+0x34>)
 80025b0:	88a0      	ldrh	r0, [r4, #4]
 80025b2:	6819      	ldr	r1, [r3, #0]
 80025b4:	b289      	uxth	r1, r1
 80025b6:	f7ff ff75 	bl	80024a4 <EE_WriteVariable>
 80025ba:	bd10      	pop	{r4, pc}
 80025bc:	20000058 	.word	0x20000058
 80025c0:	20000000 	.word	0x20000000
 80025c4:	200000bc 	.word	0x200000bc
 80025c8:	200000a8 	.word	0x200000a8

080025cc <loadEEpromConfig>:
 80025cc:	b570      	push	{r4, r5, r6, lr}
 80025ce:	4c0e      	ldr	r4, [pc, #56]	; (8002608 <loadEEpromConfig+0x3c>)
 80025d0:	4d0e      	ldr	r5, [pc, #56]	; (800260c <loadEEpromConfig+0x40>)
 80025d2:	0021      	movs	r1, r4
 80025d4:	8828      	ldrh	r0, [r5, #0]
 80025d6:	f7ff fe75 	bl	80022c4 <EE_ReadVariable>
 80025da:	1ca1      	adds	r1, r4, #2
 80025dc:	8868      	ldrh	r0, [r5, #2]
 80025de:	f7ff fe71 	bl	80022c4 <EE_ReadVariable>
 80025e2:	1d21      	adds	r1, r4, #4
 80025e4:	88a8      	ldrh	r0, [r5, #4]
 80025e6:	f7ff fe6d 	bl	80022c4 <EE_ReadVariable>
 80025ea:	8823      	ldrh	r3, [r4, #0]
 80025ec:	2b00      	cmp	r3, #0
 80025ee:	d102      	bne.n	80025f6 <loadEEpromConfig+0x2a>
 80025f0:	f7ff ffd0 	bl	8002594 <storeEEpromConfig>
 80025f4:	bd70      	pop	{r4, r5, r6, pc}
 80025f6:	4a06      	ldr	r2, [pc, #24]	; (8002610 <loadEEpromConfig+0x44>)
 80025f8:	7013      	strb	r3, [r2, #0]
 80025fa:	8862      	ldrh	r2, [r4, #2]
 80025fc:	4b05      	ldr	r3, [pc, #20]	; (8002614 <loadEEpromConfig+0x48>)
 80025fe:	601a      	str	r2, [r3, #0]
 8002600:	88a2      	ldrh	r2, [r4, #4]
 8002602:	4b05      	ldr	r3, [pc, #20]	; (8002618 <loadEEpromConfig+0x4c>)
 8002604:	601a      	str	r2, [r3, #0]
 8002606:	e7f5      	b.n	80025f4 <loadEEpromConfig+0x28>
 8002608:	20000090 	.word	0x20000090
 800260c:	20000000 	.word	0x20000000
 8002610:	20000058 	.word	0x20000058
 8002614:	200000bc 	.word	0x200000bc
 8002618:	200000a8 	.word	0x200000a8

0800261c <phaseA>:
 800261c:	4b2a      	ldr	r3, [pc, #168]	; (80026c8 <phaseA+0xac>)
 800261e:	681b      	ldr	r3, [r3, #0]
 8002620:	4283      	cmp	r3, r0
 8002622:	d118      	bne.n	8002656 <phaseA+0x3a>
 8002624:	4b29      	ldr	r3, [pc, #164]	; (80026cc <phaseA+0xb0>)
 8002626:	781a      	ldrb	r2, [r3, #0]
 8002628:	4b29      	ldr	r3, [pc, #164]	; (80026d0 <phaseA+0xb4>)
 800262a:	2a00      	cmp	r2, #0
 800262c:	d003      	beq.n	8002636 <phaseA+0x1a>
 800262e:	4a29      	ldr	r2, [pc, #164]	; (80026d4 <phaseA+0xb8>)
 8002630:	7812      	ldrb	r2, [r2, #0]
 8002632:	2a00      	cmp	r2, #0
 8002634:	d040      	beq.n	80026b8 <phaseA+0x9c>
 8002636:	2103      	movs	r1, #3
 8002638:	681a      	ldr	r2, [r3, #0]
 800263a:	438a      	bics	r2, r1
 800263c:	3902      	subs	r1, #2
 800263e:	430a      	orrs	r2, r1
 8002640:	601a      	str	r2, [r3, #0]
 8002642:	6299      	str	r1, [r3, #40]	; 0x28
 8002644:	2190      	movs	r1, #144	; 0x90
 8002646:	05c9      	lsls	r1, r1, #23
 8002648:	680b      	ldr	r3, [r1, #0]
 800264a:	4a23      	ldr	r2, [pc, #140]	; (80026d8 <phaseA+0xbc>)
 800264c:	401a      	ands	r2, r3
 800264e:	2380      	movs	r3, #128	; 0x80
 8002650:	031b      	lsls	r3, r3, #12
 8002652:	4313      	orrs	r3, r2
 8002654:	600b      	str	r3, [r1, #0]
 8002656:	4b21      	ldr	r3, [pc, #132]	; (80026dc <phaseA+0xc0>)
 8002658:	681b      	ldr	r3, [r3, #0]
 800265a:	4298      	cmp	r0, r3
 800265c:	d113      	bne.n	8002686 <phaseA+0x6a>
 800265e:	2103      	movs	r1, #3
 8002660:	4a1b      	ldr	r2, [pc, #108]	; (80026d0 <phaseA+0xb4>)
 8002662:	6813      	ldr	r3, [r2, #0]
 8002664:	438b      	bics	r3, r1
 8002666:	3902      	subs	r1, #2
 8002668:	430b      	orrs	r3, r1
 800266a:	6013      	str	r3, [r2, #0]
 800266c:	2390      	movs	r3, #144	; 0x90
 800266e:	6291      	str	r1, [r2, #40]	; 0x28
 8002670:	05db      	lsls	r3, r3, #23
 8002672:	681a      	ldr	r2, [r3, #0]
 8002674:	4918      	ldr	r1, [pc, #96]	; (80026d8 <phaseA+0xbc>)
 8002676:	4011      	ands	r1, r2
 8002678:	2280      	movs	r2, #128	; 0x80
 800267a:	02d2      	lsls	r2, r2, #11
 800267c:	430a      	orrs	r2, r1
 800267e:	601a      	str	r2, [r3, #0]
 8002680:	2280      	movs	r2, #128	; 0x80
 8002682:	0092      	lsls	r2, r2, #2
 8002684:	629a      	str	r2, [r3, #40]	; 0x28
 8002686:	4b16      	ldr	r3, [pc, #88]	; (80026e0 <phaseA+0xc4>)
 8002688:	681b      	ldr	r3, [r3, #0]
 800268a:	4298      	cmp	r0, r3
 800268c:	d113      	bne.n	80026b6 <phaseA+0x9a>
 800268e:	2103      	movs	r1, #3
 8002690:	4a0f      	ldr	r2, [pc, #60]	; (80026d0 <phaseA+0xb4>)
 8002692:	6813      	ldr	r3, [r2, #0]
 8002694:	438b      	bics	r3, r1
 8002696:	3902      	subs	r1, #2
 8002698:	430b      	orrs	r3, r1
 800269a:	6013      	str	r3, [r2, #0]
 800269c:	2390      	movs	r3, #144	; 0x90
 800269e:	6191      	str	r1, [r2, #24]
 80026a0:	05db      	lsls	r3, r3, #23
 80026a2:	681a      	ldr	r2, [r3, #0]
 80026a4:	490c      	ldr	r1, [pc, #48]	; (80026d8 <phaseA+0xbc>)
 80026a6:	4011      	ands	r1, r2
 80026a8:	2280      	movs	r2, #128	; 0x80
 80026aa:	02d2      	lsls	r2, r2, #11
 80026ac:	430a      	orrs	r2, r1
 80026ae:	601a      	str	r2, [r3, #0]
 80026b0:	2280      	movs	r2, #128	; 0x80
 80026b2:	0092      	lsls	r2, r2, #2
 80026b4:	629a      	str	r2, [r3, #40]	; 0x28
 80026b6:	4770      	bx	lr
 80026b8:	2103      	movs	r1, #3
 80026ba:	681a      	ldr	r2, [r3, #0]
 80026bc:	438a      	bics	r2, r1
 80026be:	0011      	movs	r1, r2
 80026c0:	2202      	movs	r2, #2
 80026c2:	430a      	orrs	r2, r1
 80026c4:	601a      	str	r2, [r3, #0]
 80026c6:	e7bd      	b.n	8002644 <phaseA+0x28>
 80026c8:	20000030 	.word	0x20000030
 80026cc:	2000003c 	.word	0x2000003c
 80026d0:	48000400 	.word	0x48000400
 80026d4:	20000123 	.word	0x20000123
 80026d8:	fff3ffff 	.word	0xfff3ffff
 80026dc:	2000001c 	.word	0x2000001c
 80026e0:	20000028 	.word	0x20000028

080026e4 <phaseB>:
 80026e4:	4b2d      	ldr	r3, [pc, #180]	; (800279c <phaseB+0xb8>)
 80026e6:	b510      	push	{r4, lr}
 80026e8:	681b      	ldr	r3, [r3, #0]
 80026ea:	4283      	cmp	r3, r0
 80026ec:	d11b      	bne.n	8002726 <phaseB+0x42>
 80026ee:	4b2c      	ldr	r3, [pc, #176]	; (80027a0 <phaseB+0xbc>)
 80026f0:	4c2c      	ldr	r4, [pc, #176]	; (80027a4 <phaseB+0xc0>)
 80026f2:	781a      	ldrb	r2, [r3, #0]
 80026f4:	2390      	movs	r3, #144	; 0x90
 80026f6:	05db      	lsls	r3, r3, #23
 80026f8:	2a00      	cmp	r2, #0
 80026fa:	d003      	beq.n	8002704 <phaseB+0x20>
 80026fc:	4a2a      	ldr	r2, [pc, #168]	; (80027a8 <phaseB+0xc4>)
 80026fe:	7812      	ldrb	r2, [r2, #0]
 8002700:	2a00      	cmp	r2, #0
 8002702:	d043      	beq.n	800278c <phaseB+0xa8>
 8002704:	2280      	movs	r2, #128	; 0x80
 8002706:	6819      	ldr	r1, [r3, #0]
 8002708:	01d2      	lsls	r2, r2, #7
 800270a:	4021      	ands	r1, r4
 800270c:	430a      	orrs	r2, r1
 800270e:	601a      	str	r2, [r3, #0]
 8002710:	2280      	movs	r2, #128	; 0x80
 8002712:	629a      	str	r2, [r3, #40]	; 0x28
 8002714:	2190      	movs	r1, #144	; 0x90
 8002716:	05c9      	lsls	r1, r1, #23
 8002718:	680b      	ldr	r3, [r1, #0]
 800271a:	4a24      	ldr	r2, [pc, #144]	; (80027ac <phaseB+0xc8>)
 800271c:	401a      	ands	r2, r3
 800271e:	2380      	movs	r3, #128	; 0x80
 8002720:	029b      	lsls	r3, r3, #10
 8002722:	4313      	orrs	r3, r2
 8002724:	600b      	str	r3, [r1, #0]
 8002726:	4b22      	ldr	r3, [pc, #136]	; (80027b0 <phaseB+0xcc>)
 8002728:	681b      	ldr	r3, [r3, #0]
 800272a:	4298      	cmp	r0, r3
 800272c:	d114      	bne.n	8002758 <phaseB+0x74>
 800272e:	2390      	movs	r3, #144	; 0x90
 8002730:	05db      	lsls	r3, r3, #23
 8002732:	681a      	ldr	r2, [r3, #0]
 8002734:	491b      	ldr	r1, [pc, #108]	; (80027a4 <phaseB+0xc0>)
 8002736:	4011      	ands	r1, r2
 8002738:	2280      	movs	r2, #128	; 0x80
 800273a:	01d2      	lsls	r2, r2, #7
 800273c:	430a      	orrs	r2, r1
 800273e:	601a      	str	r2, [r3, #0]
 8002740:	2280      	movs	r2, #128	; 0x80
 8002742:	629a      	str	r2, [r3, #40]	; 0x28
 8002744:	681a      	ldr	r2, [r3, #0]
 8002746:	4919      	ldr	r1, [pc, #100]	; (80027ac <phaseB+0xc8>)
 8002748:	4011      	ands	r1, r2
 800274a:	2280      	movs	r2, #128	; 0x80
 800274c:	0252      	lsls	r2, r2, #9
 800274e:	430a      	orrs	r2, r1
 8002750:	601a      	str	r2, [r3, #0]
 8002752:	2280      	movs	r2, #128	; 0x80
 8002754:	0052      	lsls	r2, r2, #1
 8002756:	629a      	str	r2, [r3, #40]	; 0x28
 8002758:	4b16      	ldr	r3, [pc, #88]	; (80027b4 <phaseB+0xd0>)
 800275a:	681b      	ldr	r3, [r3, #0]
 800275c:	4298      	cmp	r0, r3
 800275e:	d114      	bne.n	800278a <phaseB+0xa6>
 8002760:	2390      	movs	r3, #144	; 0x90
 8002762:	05db      	lsls	r3, r3, #23
 8002764:	681a      	ldr	r2, [r3, #0]
 8002766:	490f      	ldr	r1, [pc, #60]	; (80027a4 <phaseB+0xc0>)
 8002768:	4011      	ands	r1, r2
 800276a:	2280      	movs	r2, #128	; 0x80
 800276c:	01d2      	lsls	r2, r2, #7
 800276e:	430a      	orrs	r2, r1
 8002770:	601a      	str	r2, [r3, #0]
 8002772:	2280      	movs	r2, #128	; 0x80
 8002774:	619a      	str	r2, [r3, #24]
 8002776:	681a      	ldr	r2, [r3, #0]
 8002778:	490c      	ldr	r1, [pc, #48]	; (80027ac <phaseB+0xc8>)
 800277a:	4011      	ands	r1, r2
 800277c:	2280      	movs	r2, #128	; 0x80
 800277e:	0252      	lsls	r2, r2, #9
 8002780:	430a      	orrs	r2, r1
 8002782:	601a      	str	r2, [r3, #0]
 8002784:	2280      	movs	r2, #128	; 0x80
 8002786:	0052      	lsls	r2, r2, #1
 8002788:	629a      	str	r2, [r3, #40]	; 0x28
 800278a:	bd10      	pop	{r4, pc}
 800278c:	681a      	ldr	r2, [r3, #0]
 800278e:	4014      	ands	r4, r2
 8002790:	2280      	movs	r2, #128	; 0x80
 8002792:	0212      	lsls	r2, r2, #8
 8002794:	4322      	orrs	r2, r4
 8002796:	601a      	str	r2, [r3, #0]
 8002798:	e7bc      	b.n	8002714 <phaseB+0x30>
 800279a:	46c0      	nop			; (mov r8, r8)
 800279c:	20000030 	.word	0x20000030
 80027a0:	2000003c 	.word	0x2000003c
 80027a4:	ffff3fff 	.word	0xffff3fff
 80027a8:	20000123 	.word	0x20000123
 80027ac:	fffcffff 	.word	0xfffcffff
 80027b0:	2000001c 	.word	0x2000001c
 80027b4:	20000028 	.word	0x20000028

080027b8 <phaseC>:
 80027b8:	4b2d      	ldr	r3, [pc, #180]	; (8002870 <phaseC+0xb8>)
 80027ba:	681b      	ldr	r3, [r3, #0]
 80027bc:	4283      	cmp	r3, r0
 80027be:	d11a      	bne.n	80027f6 <phaseC+0x3e>
 80027c0:	4b2c      	ldr	r3, [pc, #176]	; (8002874 <phaseC+0xbc>)
 80027c2:	781a      	ldrb	r2, [r3, #0]
 80027c4:	4b2c      	ldr	r3, [pc, #176]	; (8002878 <phaseC+0xc0>)
 80027c6:	2a00      	cmp	r2, #0
 80027c8:	d003      	beq.n	80027d2 <phaseC+0x1a>
 80027ca:	4a2c      	ldr	r2, [pc, #176]	; (800287c <phaseC+0xc4>)
 80027cc:	7812      	ldrb	r2, [r2, #0]
 80027ce:	2a00      	cmp	r2, #0
 80027d0:	d046      	beq.n	8002860 <phaseC+0xa8>
 80027d2:	210c      	movs	r1, #12
 80027d4:	681a      	ldr	r2, [r3, #0]
 80027d6:	438a      	bics	r2, r1
 80027d8:	0011      	movs	r1, r2
 80027da:	2204      	movs	r2, #4
 80027dc:	430a      	orrs	r2, r1
 80027de:	601a      	str	r2, [r3, #0]
 80027e0:	2202      	movs	r2, #2
 80027e2:	629a      	str	r2, [r3, #40]	; 0x28
 80027e4:	2190      	movs	r1, #144	; 0x90
 80027e6:	05c9      	lsls	r1, r1, #23
 80027e8:	680b      	ldr	r3, [r1, #0]
 80027ea:	4a25      	ldr	r2, [pc, #148]	; (8002880 <phaseC+0xc8>)
 80027ec:	401a      	ands	r2, r3
 80027ee:	2380      	movs	r3, #128	; 0x80
 80027f0:	039b      	lsls	r3, r3, #14
 80027f2:	4313      	orrs	r3, r2
 80027f4:	600b      	str	r3, [r1, #0]
 80027f6:	4b23      	ldr	r3, [pc, #140]	; (8002884 <phaseC+0xcc>)
 80027f8:	681b      	ldr	r3, [r3, #0]
 80027fa:	4298      	cmp	r0, r3
 80027fc:	d115      	bne.n	800282a <phaseC+0x72>
 80027fe:	210c      	movs	r1, #12
 8002800:	4b1d      	ldr	r3, [pc, #116]	; (8002878 <phaseC+0xc0>)
 8002802:	681a      	ldr	r2, [r3, #0]
 8002804:	438a      	bics	r2, r1
 8002806:	0011      	movs	r1, r2
 8002808:	2204      	movs	r2, #4
 800280a:	430a      	orrs	r2, r1
 800280c:	601a      	str	r2, [r3, #0]
 800280e:	2202      	movs	r2, #2
 8002810:	629a      	str	r2, [r3, #40]	; 0x28
 8002812:	2390      	movs	r3, #144	; 0x90
 8002814:	05db      	lsls	r3, r3, #23
 8002816:	681a      	ldr	r2, [r3, #0]
 8002818:	4919      	ldr	r1, [pc, #100]	; (8002880 <phaseC+0xc8>)
 800281a:	4011      	ands	r1, r2
 800281c:	2280      	movs	r2, #128	; 0x80
 800281e:	0352      	lsls	r2, r2, #13
 8002820:	430a      	orrs	r2, r1
 8002822:	601a      	str	r2, [r3, #0]
 8002824:	2280      	movs	r2, #128	; 0x80
 8002826:	00d2      	lsls	r2, r2, #3
 8002828:	629a      	str	r2, [r3, #40]	; 0x28
 800282a:	4b17      	ldr	r3, [pc, #92]	; (8002888 <phaseC+0xd0>)
 800282c:	681b      	ldr	r3, [r3, #0]
 800282e:	4298      	cmp	r0, r3
 8002830:	d115      	bne.n	800285e <phaseC+0xa6>
 8002832:	210c      	movs	r1, #12
 8002834:	4b10      	ldr	r3, [pc, #64]	; (8002878 <phaseC+0xc0>)
 8002836:	681a      	ldr	r2, [r3, #0]
 8002838:	438a      	bics	r2, r1
 800283a:	0011      	movs	r1, r2
 800283c:	2204      	movs	r2, #4
 800283e:	430a      	orrs	r2, r1
 8002840:	601a      	str	r2, [r3, #0]
 8002842:	2202      	movs	r2, #2
 8002844:	619a      	str	r2, [r3, #24]
 8002846:	2390      	movs	r3, #144	; 0x90
 8002848:	05db      	lsls	r3, r3, #23
 800284a:	681a      	ldr	r2, [r3, #0]
 800284c:	490c      	ldr	r1, [pc, #48]	; (8002880 <phaseC+0xc8>)
 800284e:	4011      	ands	r1, r2
 8002850:	2280      	movs	r2, #128	; 0x80
 8002852:	0352      	lsls	r2, r2, #13
 8002854:	430a      	orrs	r2, r1
 8002856:	601a      	str	r2, [r3, #0]
 8002858:	2280      	movs	r2, #128	; 0x80
 800285a:	00d2      	lsls	r2, r2, #3
 800285c:	629a      	str	r2, [r3, #40]	; 0x28
 800285e:	4770      	bx	lr
 8002860:	210c      	movs	r1, #12
 8002862:	681a      	ldr	r2, [r3, #0]
 8002864:	438a      	bics	r2, r1
 8002866:	0011      	movs	r1, r2
 8002868:	2208      	movs	r2, #8
 800286a:	430a      	orrs	r2, r1
 800286c:	601a      	str	r2, [r3, #0]
 800286e:	e7b9      	b.n	80027e4 <phaseC+0x2c>
 8002870:	20000030 	.word	0x20000030
 8002874:	2000003c 	.word	0x2000003c
 8002878:	48000400 	.word	0x48000400
 800287c:	20000123 	.word	0x20000123
 8002880:	ffcfffff 	.word	0xffcfffff
 8002884:	2000001c 	.word	0x2000001c
 8002888:	20000028 	.word	0x20000028

0800288c <comStep>:
 800288c:	b510      	push	{r4, lr}
 800288e:	2801      	cmp	r0, #1
 8002890:	d109      	bne.n	80028a6 <comStep+0x1a>
 8002892:	4b1e      	ldr	r3, [pc, #120]	; (800290c <comStep+0x80>)
 8002894:	6818      	ldr	r0, [r3, #0]
 8002896:	f7ff fec1 	bl	800261c <phaseA>
 800289a:	4b1d      	ldr	r3, [pc, #116]	; (8002910 <comStep+0x84>)
 800289c:	6818      	ldr	r0, [r3, #0]
 800289e:	f7ff ff21 	bl	80026e4 <phaseB>
 80028a2:	4b1c      	ldr	r3, [pc, #112]	; (8002914 <comStep+0x88>)
 80028a4:	e00a      	b.n	80028bc <comStep+0x30>
 80028a6:	2802      	cmp	r0, #2
 80028a8:	d10c      	bne.n	80028c4 <comStep+0x38>
 80028aa:	4b1a      	ldr	r3, [pc, #104]	; (8002914 <comStep+0x88>)
 80028ac:	6818      	ldr	r0, [r3, #0]
 80028ae:	f7ff feb5 	bl	800261c <phaseA>
 80028b2:	4b17      	ldr	r3, [pc, #92]	; (8002910 <comStep+0x84>)
 80028b4:	6818      	ldr	r0, [r3, #0]
 80028b6:	f7ff ff15 	bl	80026e4 <phaseB>
 80028ba:	4b14      	ldr	r3, [pc, #80]	; (800290c <comStep+0x80>)
 80028bc:	6818      	ldr	r0, [r3, #0]
 80028be:	f7ff ff7b 	bl	80027b8 <phaseC>
 80028c2:	bd10      	pop	{r4, pc}
 80028c4:	2803      	cmp	r0, #3
 80028c6:	d105      	bne.n	80028d4 <comStep+0x48>
 80028c8:	4b11      	ldr	r3, [pc, #68]	; (8002910 <comStep+0x84>)
 80028ca:	6818      	ldr	r0, [r3, #0]
 80028cc:	f7ff fea6 	bl	800261c <phaseA>
 80028d0:	4b10      	ldr	r3, [pc, #64]	; (8002914 <comStep+0x88>)
 80028d2:	e7ef      	b.n	80028b4 <comStep+0x28>
 80028d4:	2804      	cmp	r0, #4
 80028d6:	d105      	bne.n	80028e4 <comStep+0x58>
 80028d8:	4b0d      	ldr	r3, [pc, #52]	; (8002910 <comStep+0x84>)
 80028da:	6818      	ldr	r0, [r3, #0]
 80028dc:	f7ff fe9e 	bl	800261c <phaseA>
 80028e0:	4b0a      	ldr	r3, [pc, #40]	; (800290c <comStep+0x80>)
 80028e2:	e7db      	b.n	800289c <comStep+0x10>
 80028e4:	2805      	cmp	r0, #5
 80028e6:	d109      	bne.n	80028fc <comStep+0x70>
 80028e8:	4b0a      	ldr	r3, [pc, #40]	; (8002914 <comStep+0x88>)
 80028ea:	6818      	ldr	r0, [r3, #0]
 80028ec:	f7ff fe96 	bl	800261c <phaseA>
 80028f0:	4b06      	ldr	r3, [pc, #24]	; (800290c <comStep+0x80>)
 80028f2:	6818      	ldr	r0, [r3, #0]
 80028f4:	f7ff fef6 	bl	80026e4 <phaseB>
 80028f8:	4b05      	ldr	r3, [pc, #20]	; (8002910 <comStep+0x84>)
 80028fa:	e7df      	b.n	80028bc <comStep+0x30>
 80028fc:	2806      	cmp	r0, #6
 80028fe:	d1e0      	bne.n	80028c2 <comStep+0x36>
 8002900:	4b02      	ldr	r3, [pc, #8]	; (800290c <comStep+0x80>)
 8002902:	6818      	ldr	r0, [r3, #0]
 8002904:	f7ff fe8a 	bl	800261c <phaseA>
 8002908:	4b02      	ldr	r3, [pc, #8]	; (8002914 <comStep+0x88>)
 800290a:	e7f2      	b.n	80028f2 <comStep+0x66>
 800290c:	20000030 	.word	0x20000030
 8002910:	20000028 	.word	0x20000028
 8002914:	2000001c 	.word	0x2000001c

08002918 <allOff>:
 8002918:	b510      	push	{r4, lr}
 800291a:	4c05      	ldr	r4, [pc, #20]	; (8002930 <allOff+0x18>)
 800291c:	6820      	ldr	r0, [r4, #0]
 800291e:	f7ff fe7d 	bl	800261c <phaseA>
 8002922:	6820      	ldr	r0, [r4, #0]
 8002924:	f7ff fede 	bl	80026e4 <phaseB>
 8002928:	6820      	ldr	r0, [r4, #0]
 800292a:	f7ff ff45 	bl	80027b8 <phaseC>
 800292e:	bd10      	pop	{r4, pc}
 8002930:	2000001c 	.word	0x2000001c

08002934 <fullBrake>:
 8002934:	b510      	push	{r4, lr}
 8002936:	4c05      	ldr	r4, [pc, #20]	; (800294c <fullBrake+0x18>)
 8002938:	6820      	ldr	r0, [r4, #0]
 800293a:	f7ff fe6f 	bl	800261c <phaseA>
 800293e:	6820      	ldr	r0, [r4, #0]
 8002940:	f7ff fed0 	bl	80026e4 <phaseB>
 8002944:	6820      	ldr	r0, [r4, #0]
 8002946:	f7ff ff37 	bl	80027b8 <phaseC>
 800294a:	bd10      	pop	{r4, pc}
 800294c:	20000028 	.word	0x20000028

08002950 <proBrake>:
 8002950:	b510      	push	{r4, lr}
 8002952:	4c05      	ldr	r4, [pc, #20]	; (8002968 <proBrake+0x18>)
 8002954:	6820      	ldr	r0, [r4, #0]
 8002956:	f7ff fe61 	bl	800261c <phaseA>
 800295a:	6820      	ldr	r0, [r4, #0]
 800295c:	f7ff fec2 	bl	80026e4 <phaseB>
 8002960:	6820      	ldr	r0, [r4, #0]
 8002962:	f7ff ff29 	bl	80027b8 <phaseC>
 8002966:	bd10      	pop	{r4, pc}
 8002968:	20000030 	.word	0x20000030

0800296c <changeCompInput>:
 800296c:	4b11      	ldr	r3, [pc, #68]	; (80029b4 <changeCompInput+0x48>)
 800296e:	b510      	push	{r4, lr}
 8002970:	681b      	ldr	r3, [r3, #0]
 8002972:	4811      	ldr	r0, [pc, #68]	; (80029b8 <changeCompInput+0x4c>)
 8002974:	2b01      	cmp	r3, #1
 8002976:	d001      	beq.n	800297c <changeCompInput+0x10>
 8002978:	2b04      	cmp	r3, #4
 800297a:	d101      	bne.n	8002980 <changeCompInput+0x14>
 800297c:	2260      	movs	r2, #96	; 0x60
 800297e:	6042      	str	r2, [r0, #4]
 8002980:	2b02      	cmp	r3, #2
 8002982:	d001      	beq.n	8002988 <changeCompInput+0x1c>
 8002984:	2b05      	cmp	r3, #5
 8002986:	d101      	bne.n	800298c <changeCompInput+0x20>
 8002988:	2240      	movs	r2, #64	; 0x40
 800298a:	6042      	str	r2, [r0, #4]
 800298c:	2b03      	cmp	r3, #3
 800298e:	d001      	beq.n	8002994 <changeCompInput+0x28>
 8002990:	2b06      	cmp	r3, #6
 8002992:	d101      	bne.n	8002998 <changeCompInput+0x2c>
 8002994:	2350      	movs	r3, #80	; 0x50
 8002996:	6043      	str	r3, [r0, #4]
 8002998:	4b08      	ldr	r3, [pc, #32]	; (80029bc <changeCompInput+0x50>)
 800299a:	681b      	ldr	r3, [r3, #0]
 800299c:	2b00      	cmp	r3, #0
 800299e:	d006      	beq.n	80029ae <changeCompInput+0x42>
 80029a0:	2302      	movs	r3, #2
 80029a2:	6203      	str	r3, [r0, #32]
 80029a4:	f7fd ff14 	bl	80007d0 <HAL_COMP_Init>
 80029a8:	2800      	cmp	r0, #0
 80029aa:	d002      	beq.n	80029b2 <changeCompInput+0x46>
 80029ac:	e7fe      	b.n	80029ac <changeCompInput+0x40>
 80029ae:	2301      	movs	r3, #1
 80029b0:	e7f7      	b.n	80029a2 <changeCompInput+0x36>
 80029b2:	bd10      	pop	{r4, pc}
 80029b4:	20000048 	.word	0x20000048
 80029b8:	200001f0 	.word	0x200001f0
 80029bc:	20000034 	.word	0x20000034

080029c0 <commutate>:
 80029c0:	4b25      	ldr	r3, [pc, #148]	; (8002a58 <commutate+0x98>)
 80029c2:	b510      	push	{r4, lr}
 80029c4:	6819      	ldr	r1, [r3, #0]
 80029c6:	2901      	cmp	r1, #1
 80029c8:	d127      	bne.n	8002a1a <commutate+0x5a>
 80029ca:	4b24      	ldr	r3, [pc, #144]	; (8002a5c <commutate+0x9c>)
 80029cc:	681a      	ldr	r2, [r3, #0]
 80029ce:	3201      	adds	r2, #1
 80029d0:	2a06      	cmp	r2, #6
 80029d2:	dc20      	bgt.n	8002a16 <commutate+0x56>
 80029d4:	601a      	str	r2, [r3, #0]
 80029d6:	681b      	ldr	r3, [r3, #0]
 80029d8:	2202      	movs	r2, #2
 80029da:	0019      	movs	r1, r3
 80029dc:	4391      	bics	r1, r2
 80029de:	2901      	cmp	r1, #1
 80029e0:	d001      	beq.n	80029e6 <commutate+0x26>
 80029e2:	2b05      	cmp	r3, #5
 80029e4:	d102      	bne.n	80029ec <commutate+0x2c>
 80029e6:	2101      	movs	r1, #1
 80029e8:	4a1d      	ldr	r2, [pc, #116]	; (8002a60 <commutate+0xa0>)
 80029ea:	6011      	str	r1, [r2, #0]
 80029ec:	2204      	movs	r2, #4
 80029ee:	0019      	movs	r1, r3
 80029f0:	4391      	bics	r1, r2
 80029f2:	2902      	cmp	r1, #2
 80029f4:	d001      	beq.n	80029fa <commutate+0x3a>
 80029f6:	2b04      	cmp	r3, #4
 80029f8:	d102      	bne.n	8002a00 <commutate+0x40>
 80029fa:	2200      	movs	r2, #0
 80029fc:	4b18      	ldr	r3, [pc, #96]	; (8002a60 <commutate+0xa0>)
 80029fe:	601a      	str	r2, [r3, #0]
 8002a00:	4b18      	ldr	r3, [pc, #96]	; (8002a64 <commutate+0xa4>)
 8002a02:	681b      	ldr	r3, [r3, #0]
 8002a04:	2b2f      	cmp	r3, #47	; 0x2f
 8002a06:	dd03      	ble.n	8002a10 <commutate+0x50>
 8002a08:	4b14      	ldr	r3, [pc, #80]	; (8002a5c <commutate+0x9c>)
 8002a0a:	6818      	ldr	r0, [r3, #0]
 8002a0c:	f7ff ff3e 	bl	800288c <comStep>
 8002a10:	f7ff ffac 	bl	800296c <changeCompInput>
 8002a14:	bd10      	pop	{r4, pc}
 8002a16:	6019      	str	r1, [r3, #0]
 8002a18:	e7dd      	b.n	80029d6 <commutate+0x16>
 8002a1a:	2900      	cmp	r1, #0
 8002a1c:	d1f0      	bne.n	8002a00 <commutate+0x40>
 8002a1e:	4b0f      	ldr	r3, [pc, #60]	; (8002a5c <commutate+0x9c>)
 8002a20:	681a      	ldr	r2, [r3, #0]
 8002a22:	3a01      	subs	r2, #1
 8002a24:	2a00      	cmp	r2, #0
 8002a26:	dd14      	ble.n	8002a52 <commutate+0x92>
 8002a28:	601a      	str	r2, [r3, #0]
 8002a2a:	681b      	ldr	r3, [r3, #0]
 8002a2c:	2202      	movs	r2, #2
 8002a2e:	0019      	movs	r1, r3
 8002a30:	4391      	bics	r1, r2
 8002a32:	2901      	cmp	r1, #1
 8002a34:	d001      	beq.n	8002a3a <commutate+0x7a>
 8002a36:	2b05      	cmp	r3, #5
 8002a38:	d102      	bne.n	8002a40 <commutate+0x80>
 8002a3a:	2100      	movs	r1, #0
 8002a3c:	4a08      	ldr	r2, [pc, #32]	; (8002a60 <commutate+0xa0>)
 8002a3e:	6011      	str	r1, [r2, #0]
 8002a40:	2204      	movs	r2, #4
 8002a42:	0019      	movs	r1, r3
 8002a44:	4391      	bics	r1, r2
 8002a46:	2902      	cmp	r1, #2
 8002a48:	d001      	beq.n	8002a4e <commutate+0x8e>
 8002a4a:	2b04      	cmp	r3, #4
 8002a4c:	d1d8      	bne.n	8002a00 <commutate+0x40>
 8002a4e:	2201      	movs	r2, #1
 8002a50:	e7d4      	b.n	80029fc <commutate+0x3c>
 8002a52:	2206      	movs	r2, #6
 8002a54:	e7e8      	b.n	8002a28 <commutate+0x68>
 8002a56:	46c0      	nop			; (mov r8, r8)
 8002a58:	20000020 	.word	0x20000020
 8002a5c:	20000048 	.word	0x20000048
 8002a60:	20000034 	.word	0x20000034
 8002a64:	2000010c 	.word	0x2000010c

08002a68 <HAL_TIM_PeriodElapsedCallback>:
 8002a68:	4770      	bx	lr
	...

08002a6c <startMotor>:
 8002a6c:	b5f7      	push	{r0, r1, r2, r4, r5, r6, r7, lr}
 8002a6e:	4c17      	ldr	r4, [pc, #92]	; (8002acc <startMotor+0x60>)
 8002a70:	4d17      	ldr	r5, [pc, #92]	; (8002ad0 <startMotor+0x64>)
 8002a72:	7823      	ldrb	r3, [r4, #0]
 8002a74:	4f17      	ldr	r7, [pc, #92]	; (8002ad4 <startMotor+0x68>)
 8002a76:	9301      	str	r3, [sp, #4]
 8002a78:	2300      	movs	r3, #0
 8002a7a:	602b      	str	r3, [r5, #0]
 8002a7c:	683b      	ldr	r3, [r7, #0]
 8002a7e:	9300      	str	r3, [sp, #0]
 8002a80:	2b00      	cmp	r3, #0
 8002a82:	d118      	bne.n	8002ab6 <startMotor+0x4a>
 8002a84:	4e14      	ldr	r6, [pc, #80]	; (8002ad8 <startMotor+0x6c>)
 8002a86:	0030      	movs	r0, r6
 8002a88:	f7fd ff56 	bl	8000938 <HAL_COMP_Stop_IT>
 8002a8c:	2301      	movs	r3, #1
 8002a8e:	7023      	strb	r3, [r4, #0]
 8002a90:	f7ff ff96 	bl	80029c0 <commutate>
 8002a94:	4b11      	ldr	r3, [pc, #68]	; (8002adc <startMotor+0x70>)
 8002a96:	4a12      	ldr	r2, [pc, #72]	; (8002ae0 <startMotor+0x74>)
 8002a98:	681b      	ldr	r3, [r3, #0]
 8002a9a:	0030      	movs	r0, r6
 8002a9c:	189b      	adds	r3, r3, r2
 8002a9e:	4a11      	ldr	r2, [pc, #68]	; (8002ae4 <startMotor+0x78>)
 8002aa0:	6013      	str	r3, [r2, #0]
 8002aa2:	4b11      	ldr	r3, [pc, #68]	; (8002ae8 <startMotor+0x7c>)
 8002aa4:	9a00      	ldr	r2, [sp, #0]
 8002aa6:	625a      	str	r2, [r3, #36]	; 0x24
 8002aa8:	2301      	movs	r3, #1
 8002aaa:	603b      	str	r3, [r7, #0]
 8002aac:	f7fd ff1a 	bl	80008e4 <HAL_COMP_Start_IT>
 8002ab0:	2800      	cmp	r0, #0
 8002ab2:	d000      	beq.n	8002ab6 <startMotor+0x4a>
 8002ab4:	e7fe      	b.n	8002ab4 <startMotor+0x48>
 8002ab6:	466b      	mov	r3, sp
 8002ab8:	791b      	ldrb	r3, [r3, #4]
 8002aba:	4a0c      	ldr	r2, [pc, #48]	; (8002aec <startMotor+0x80>)
 8002abc:	7023      	strb	r3, [r4, #0]
 8002abe:	2301      	movs	r3, #1
 8002ac0:	602b      	str	r3, [r5, #0]
 8002ac2:	2300      	movs	r3, #0
 8002ac4:	6013      	str	r3, [r2, #0]
 8002ac6:	4a0a      	ldr	r2, [pc, #40]	; (8002af0 <startMotor+0x84>)
 8002ac8:	6013      	str	r3, [r2, #0]
 8002aca:	bdf7      	pop	{r0, r1, r2, r4, r5, r6, r7, pc}
 8002acc:	2000003c 	.word	0x2000003c
 8002ad0:	2000013c 	.word	0x2000013c
 8002ad4:	20000138 	.word	0x20000138
 8002ad8:	200001f0 	.word	0x200001f0
 8002adc:	20000050 	.word	0x20000050
 8002ae0:	fffff448 	.word	0xfffff448
 8002ae4:	200000ac 	.word	0x200000ac
 8002ae8:	40000400 	.word	0x40000400
 8002aec:	2000014c 	.word	0x2000014c
 8002af0:	20000260 	.word	0x20000260

08002af4 <HAL_COMP_TriggerCallback>:
 8002af4:	b5f7      	push	{r0, r1, r2, r4, r5, r6, r7, lr}
 8002af6:	4e68      	ldr	r6, [pc, #416]	; (8002c98 <HAL_COMP_TriggerCallback+0x1a4>)
 8002af8:	4c68      	ldr	r4, [pc, #416]	; (8002c9c <HAL_COMP_TriggerCallback+0x1a8>)
 8002afa:	6833      	ldr	r3, [r6, #0]
 8002afc:	2b64      	cmp	r3, #100	; 0x64
 8002afe:	dd3f      	ble.n	8002b80 <HAL_COMP_TriggerCallback+0x8c>
 8002b00:	4f67      	ldr	r7, [pc, #412]	; (8002ca0 <HAL_COMP_TriggerCallback+0x1ac>)
 8002b02:	4b68      	ldr	r3, [pc, #416]	; (8002ca4 <HAL_COMP_TriggerCallback+0x1b0>)
 8002b04:	683a      	ldr	r2, [r7, #0]
 8002b06:	429a      	cmp	r2, r3
 8002b08:	dc3a      	bgt.n	8002b80 <HAL_COMP_TriggerCallback+0x8c>
 8002b0a:	2600      	movs	r6, #0
 8002b0c:	6a63      	ldr	r3, [r4, #36]	; 0x24
 8002b0e:	4d66      	ldr	r5, [pc, #408]	; (8002ca8 <HAL_COMP_TriggerCallback+0x1b4>)
 8002b10:	4866      	ldr	r0, [pc, #408]	; (8002cac <HAL_COMP_TriggerCallback+0x1b8>)
 8002b12:	602b      	str	r3, [r5, #0]
 8002b14:	6266      	str	r6, [r4, #36]	; 0x24
 8002b16:	f7fd ff0f 	bl	8000938 <HAL_COMP_Stop_IT>
 8002b1a:	4b65      	ldr	r3, [pc, #404]	; (8002cb0 <HAL_COMP_TriggerCallback+0x1bc>)
 8002b1c:	682d      	ldr	r5, [r5, #0]
 8002b1e:	601e      	str	r6, [r3, #0]
 8002b20:	683b      	ldr	r3, [r7, #0]
 8002b22:	195d      	adds	r5, r3, r5
 8002b24:	4b63      	ldr	r3, [pc, #396]	; (8002cb4 <HAL_COMP_TriggerCallback+0x1c0>)
 8002b26:	0fe8      	lsrs	r0, r5, #31
 8002b28:	701e      	strb	r6, [r3, #0]
 8002b2a:	1940      	adds	r0, r0, r5
 8002b2c:	4b62      	ldr	r3, [pc, #392]	; (8002cb8 <HAL_COMP_TriggerCallback+0x1c4>)
 8002b2e:	1040      	asrs	r0, r0, #1
 8002b30:	7819      	ldrb	r1, [r3, #0]
 8002b32:	6038      	str	r0, [r7, #0]
 8002b34:	f7fd fb7c 	bl	8000230 <__divsi3>
 8002b38:	2203      	movs	r2, #3
 8002b3a:	4b60      	ldr	r3, [pc, #384]	; (8002cbc <HAL_COMP_TriggerCallback+0x1c8>)
 8002b3c:	4f60      	ldr	r7, [pc, #384]	; (8002cc0 <HAL_COMP_TriggerCallback+0x1cc>)
 8002b3e:	6018      	str	r0, [r3, #0]
 8002b40:	17eb      	asrs	r3, r5, #31
 8002b42:	401a      	ands	r2, r3
 8002b44:	1952      	adds	r2, r2, r5
 8002b46:	1092      	asrs	r2, r2, #2
 8002b48:	1a10      	subs	r0, r2, r0
 8002b4a:	220f      	movs	r2, #15
 8002b4c:	4013      	ands	r3, r2
 8002b4e:	4e5d      	ldr	r6, [pc, #372]	; (8002cc4 <HAL_COMP_TriggerCallback+0x1d0>)
 8002b50:	195d      	adds	r5, r3, r5
 8002b52:	112d      	asrs	r5, r5, #4
 8002b54:	6038      	str	r0, [r7, #0]
 8002b56:	6035      	str	r5, [r6, #0]
 8002b58:	6a63      	ldr	r3, [r4, #36]	; 0x24
 8002b5a:	4283      	cmp	r3, r0
 8002b5c:	d3fc      	bcc.n	8002b58 <HAL_COMP_TriggerCallback+0x64>
 8002b5e:	2200      	movs	r2, #0
 8002b60:	4b59      	ldr	r3, [pc, #356]	; (8002cc8 <HAL_COMP_TriggerCallback+0x1d4>)
 8002b62:	701a      	strb	r2, [r3, #0]
 8002b64:	f7ff ff2c 	bl	80029c0 <commutate>
 8002b68:	683b      	ldr	r3, [r7, #0]
 8002b6a:	6832      	ldr	r2, [r6, #0]
 8002b6c:	189b      	adds	r3, r3, r2
 8002b6e:	6a62      	ldr	r2, [r4, #36]	; 0x24
 8002b70:	429a      	cmp	r2, r3
 8002b72:	d3fc      	bcc.n	8002b6e <HAL_COMP_TriggerCallback+0x7a>
 8002b74:	484d      	ldr	r0, [pc, #308]	; (8002cac <HAL_COMP_TriggerCallback+0x1b8>)
 8002b76:	f7fd feb5 	bl	80008e4 <HAL_COMP_Start_IT>
 8002b7a:	2800      	cmp	r0, #0
 8002b7c:	d012      	beq.n	8002ba4 <HAL_COMP_TriggerCallback+0xb0>
 8002b7e:	e7fe      	b.n	8002b7e <HAL_COMP_TriggerCallback+0x8a>
 8002b80:	2180      	movs	r1, #128	; 0x80
 8002b82:	2390      	movs	r3, #144	; 0x90
 8002b84:	6a62      	ldr	r2, [r4, #36]	; 0x24
 8002b86:	4f51      	ldr	r7, [pc, #324]	; (8002ccc <HAL_COMP_TriggerCallback+0x1d8>)
 8002b88:	05db      	lsls	r3, r3, #23
 8002b8a:	0209      	lsls	r1, r1, #8
 8002b8c:	603a      	str	r2, [r7, #0]
 8002b8e:	6199      	str	r1, [r3, #24]
 8002b90:	4b4d      	ldr	r3, [pc, #308]	; (8002cc8 <HAL_COMP_TriggerCallback+0x1d4>)
 8002b92:	781b      	ldrb	r3, [r3, #0]
 8002b94:	2bc8      	cmp	r3, #200	; 0xc8
 8002b96:	d906      	bls.n	8002ba6 <HAL_COMP_TriggerCallback+0xb2>
 8002b98:	4844      	ldr	r0, [pc, #272]	; (8002cac <HAL_COMP_TriggerCallback+0x1b8>)
 8002b9a:	f7fd fecd 	bl	8000938 <HAL_COMP_Stop_IT>
 8002b9e:	2201      	movs	r2, #1
 8002ba0:	4b4b      	ldr	r3, [pc, #300]	; (8002cd0 <HAL_COMP_TriggerCallback+0x1dc>)
 8002ba2:	701a      	strb	r2, [r3, #0]
 8002ba4:	bdf7      	pop	{r0, r1, r2, r4, r5, r6, r7, pc}
 8002ba6:	4948      	ldr	r1, [pc, #288]	; (8002cc8 <HAL_COMP_TriggerCallback+0x1d4>)
 8002ba8:	3301      	adds	r3, #1
 8002baa:	700b      	strb	r3, [r1, #0]
 8002bac:	4b49      	ldr	r3, [pc, #292]	; (8002cd4 <HAL_COMP_TriggerCallback+0x1e0>)
 8002bae:	6819      	ldr	r1, [r3, #0]
 8002bb0:	6a63      	ldr	r3, [r4, #36]	; 0x24
 8002bb2:	1a9b      	subs	r3, r3, r2
 8002bb4:	428b      	cmp	r3, r1
 8002bb6:	d3fb      	bcc.n	8002bb0 <HAL_COMP_TriggerCallback+0xbc>
 8002bb8:	4b47      	ldr	r3, [pc, #284]	; (8002cd8 <HAL_COMP_TriggerCallback+0x1e4>)
 8002bba:	681d      	ldr	r5, [r3, #0]
 8002bbc:	2d00      	cmp	r5, #0
 8002bbe:	d047      	beq.n	8002c50 <HAL_COMP_TriggerCallback+0x15c>
 8002bc0:	2500      	movs	r5, #0
 8002bc2:	4b46      	ldr	r3, [pc, #280]	; (8002cdc <HAL_COMP_TriggerCallback+0x1e8>)
 8002bc4:	781b      	ldrb	r3, [r3, #0]
 8002bc6:	429d      	cmp	r5, r3
 8002bc8:	db33      	blt.n	8002c32 <HAL_COMP_TriggerCallback+0x13e>
 8002bca:	683b      	ldr	r3, [r7, #0]
 8002bcc:	2700      	movs	r7, #0
 8002bce:	4d36      	ldr	r5, [pc, #216]	; (8002ca8 <HAL_COMP_TriggerCallback+0x1b4>)
 8002bd0:	4836      	ldr	r0, [pc, #216]	; (8002cac <HAL_COMP_TriggerCallback+0x1b8>)
 8002bd2:	602b      	str	r3, [r5, #0]
 8002bd4:	6267      	str	r7, [r4, #36]	; 0x24
 8002bd6:	f7fd feaf 	bl	8000938 <HAL_COMP_Stop_IT>
 8002bda:	6829      	ldr	r1, [r5, #0]
 8002bdc:	4b34      	ldr	r3, [pc, #208]	; (8002cb0 <HAL_COMP_TriggerCallback+0x1bc>)
 8002bde:	468c      	mov	ip, r1
 8002be0:	601f      	str	r7, [r3, #0]
 8002be2:	4b2f      	ldr	r3, [pc, #188]	; (8002ca0 <HAL_COMP_TriggerCallback+0x1ac>)
 8002be4:	681a      	ldr	r2, [r3, #0]
 8002be6:	4462      	add	r2, ip
 8002be8:	0fd0      	lsrs	r0, r2, #31
 8002bea:	1880      	adds	r0, r0, r2
 8002bec:	1040      	asrs	r0, r0, #1
 8002bee:	6018      	str	r0, [r3, #0]
 8002bf0:	4b30      	ldr	r3, [pc, #192]	; (8002cb4 <HAL_COMP_TriggerCallback+0x1c0>)
 8002bf2:	9201      	str	r2, [sp, #4]
 8002bf4:	701f      	strb	r7, [r3, #0]
 8002bf6:	4b30      	ldr	r3, [pc, #192]	; (8002cb8 <HAL_COMP_TriggerCallback+0x1c4>)
 8002bf8:	7819      	ldrb	r1, [r3, #0]
 8002bfa:	f7fd fb19 	bl	8000230 <__divsi3>
 8002bfe:	2203      	movs	r2, #3
 8002c00:	4b2e      	ldr	r3, [pc, #184]	; (8002cbc <HAL_COMP_TriggerCallback+0x1c8>)
 8002c02:	9901      	ldr	r1, [sp, #4]
 8002c04:	6018      	str	r0, [r3, #0]
 8002c06:	9b01      	ldr	r3, [sp, #4]
 8002c08:	4f2d      	ldr	r7, [pc, #180]	; (8002cc0 <HAL_COMP_TriggerCallback+0x1cc>)
 8002c0a:	17db      	asrs	r3, r3, #31
 8002c0c:	401a      	ands	r2, r3
 8002c0e:	1852      	adds	r2, r2, r1
 8002c10:	1092      	asrs	r2, r2, #2
 8002c12:	1a10      	subs	r0, r2, r0
 8002c14:	2207      	movs	r2, #7
 8002c16:	4013      	ands	r3, r2
 8002c18:	185b      	adds	r3, r3, r1
 8002c1a:	4a2a      	ldr	r2, [pc, #168]	; (8002cc4 <HAL_COMP_TriggerCallback+0x1d0>)
 8002c1c:	10db      	asrs	r3, r3, #3
 8002c1e:	6013      	str	r3, [r2, #0]
 8002c20:	4b2f      	ldr	r3, [pc, #188]	; (8002ce0 <HAL_COMP_TriggerCallback+0x1ec>)
 8002c22:	6038      	str	r0, [r7, #0]
 8002c24:	681b      	ldr	r3, [r3, #0]
 8002c26:	2b00      	cmp	r3, #0
 8002c28:	d017      	beq.n	8002c5a <HAL_COMP_TriggerCallback+0x166>
 8002c2a:	4820      	ldr	r0, [pc, #128]	; (8002cac <HAL_COMP_TriggerCallback+0x1b8>)
 8002c2c:	f7fd fe84 	bl	8000938 <HAL_COMP_Stop_IT>
 8002c30:	e7b8      	b.n	8002ba4 <HAL_COMP_TriggerCallback+0xb0>
 8002c32:	481e      	ldr	r0, [pc, #120]	; (8002cac <HAL_COMP_TriggerCallback+0x1b8>)
 8002c34:	f7fd fe98 	bl	8000968 <HAL_COMP_GetOutputLevel>
 8002c38:	2380      	movs	r3, #128	; 0x80
 8002c3a:	01db      	lsls	r3, r3, #7
 8002c3c:	4298      	cmp	r0, r3
 8002c3e:	d0b1      	beq.n	8002ba4 <HAL_COMP_TriggerCallback+0xb0>
 8002c40:	3501      	adds	r5, #1
 8002c42:	e7be      	b.n	8002bc2 <HAL_COMP_TriggerCallback+0xce>
 8002c44:	4819      	ldr	r0, [pc, #100]	; (8002cac <HAL_COMP_TriggerCallback+0x1b8>)
 8002c46:	f7fd fe8f 	bl	8000968 <HAL_COMP_GetOutputLevel>
 8002c4a:	2800      	cmp	r0, #0
 8002c4c:	d0aa      	beq.n	8002ba4 <HAL_COMP_TriggerCallback+0xb0>
 8002c4e:	3501      	adds	r5, #1
 8002c50:	4b22      	ldr	r3, [pc, #136]	; (8002cdc <HAL_COMP_TriggerCallback+0x1e8>)
 8002c52:	781b      	ldrb	r3, [r3, #0]
 8002c54:	429d      	cmp	r5, r3
 8002c56:	dbf5      	blt.n	8002c44 <HAL_COMP_TriggerCallback+0x150>
 8002c58:	e7b7      	b.n	8002bca <HAL_COMP_TriggerCallback+0xd6>
 8002c5a:	4b22      	ldr	r3, [pc, #136]	; (8002ce4 <HAL_COMP_TriggerCallback+0x1f0>)
 8002c5c:	681b      	ldr	r3, [r3, #0]
 8002c5e:	2b00      	cmp	r3, #0
 8002c60:	d109      	bne.n	8002c76 <HAL_COMP_TriggerCallback+0x182>
 8002c62:	4b21      	ldr	r3, [pc, #132]	; (8002ce8 <HAL_COMP_TriggerCallback+0x1f4>)
 8002c64:	682a      	ldr	r2, [r5, #0]
 8002c66:	601a      	str	r2, [r3, #0]
 8002c68:	6833      	ldr	r3, [r6, #0]
 8002c6a:	2bc7      	cmp	r3, #199	; 0xc7
 8002c6c:	dd00      	ble.n	8002c70 <HAL_COMP_TriggerCallback+0x17c>
 8002c6e:	e781      	b.n	8002b74 <HAL_COMP_TriggerCallback+0x80>
 8002c70:	3301      	adds	r3, #1
 8002c72:	6033      	str	r3, [r6, #0]
 8002c74:	e77e      	b.n	8002b74 <HAL_COMP_TriggerCallback+0x80>
 8002c76:	6a63      	ldr	r3, [r4, #36]	; 0x24
 8002c78:	4283      	cmp	r3, r0
 8002c7a:	d3fc      	bcc.n	8002c76 <HAL_COMP_TriggerCallback+0x182>
 8002c7c:	2300      	movs	r3, #0
 8002c7e:	4a12      	ldr	r2, [pc, #72]	; (8002cc8 <HAL_COMP_TriggerCallback+0x1d4>)
 8002c80:	7013      	strb	r3, [r2, #0]
 8002c82:	f7ff fe9d 	bl	80029c0 <commutate>
 8002c86:	4a0f      	ldr	r2, [pc, #60]	; (8002cc4 <HAL_COMP_TriggerCallback+0x1d0>)
 8002c88:	683b      	ldr	r3, [r7, #0]
 8002c8a:	6812      	ldr	r2, [r2, #0]
 8002c8c:	189b      	adds	r3, r3, r2
 8002c8e:	6a62      	ldr	r2, [r4, #36]	; 0x24
 8002c90:	429a      	cmp	r2, r3
 8002c92:	d3fc      	bcc.n	8002c8e <HAL_COMP_TriggerCallback+0x19a>
 8002c94:	e7e5      	b.n	8002c62 <HAL_COMP_TriggerCallback+0x16e>
 8002c96:	46c0      	nop			; (mov r8, r8)
 8002c98:	20000260 	.word	0x20000260
 8002c9c:	40000400 	.word	0x40000400
 8002ca0:	200000ac 	.word	0x200000ac
 8002ca4:	000003e7 	.word	0x000003e7
 8002ca8:	20000154 	.word	0x20000154
 8002cac:	200001f0 	.word	0x200001f0
 8002cb0:	20000160 	.word	0x20000160
 8002cb4:	200000a4 	.word	0x200000a4
 8002cb8:	20000006 	.word	0x20000006
 8002cbc:	20000098 	.word	0x20000098
 8002cc0:	2000015c 	.word	0x2000015c
 8002cc4:	20000364 	.word	0x20000364
 8002cc8:	200000b0 	.word	0x200000b0
 8002ccc:	2000018c 	.word	0x2000018c
 8002cd0:	20000108 	.word	0x20000108
 8002cd4:	20000014 	.word	0x20000014
 8002cd8:	20000034 	.word	0x20000034
 8002cdc:	20000018 	.word	0x20000018
 8002ce0:	20000150 	.word	0x20000150
 8002ce4:	2000013c 	.word	0x2000013c
 8002ce8:	20000114 	.word	0x20000114

08002cec <playStartupTune>:
 8002cec:	234b      	movs	r3, #75	; 0x4b
 8002cee:	b510      	push	{r4, lr}
 8002cf0:	4c0d      	ldr	r4, [pc, #52]	; (8002d28 <playStartupTune+0x3c>)
 8002cf2:	2002      	movs	r0, #2
 8002cf4:	62a3      	str	r3, [r4, #40]	; 0x28
 8002cf6:	3b46      	subs	r3, #70	; 0x46
 8002cf8:	6363      	str	r3, [r4, #52]	; 0x34
 8002cfa:	63a3      	str	r3, [r4, #56]	; 0x38
 8002cfc:	63e3      	str	r3, [r4, #60]	; 0x3c
 8002cfe:	f7ff fdc5 	bl	800288c <comStep>
 8002d02:	2064      	movs	r0, #100	; 0x64
 8002d04:	f7fd fbbc 	bl	8000480 <HAL_Delay>
 8002d08:	2332      	movs	r3, #50	; 0x32
 8002d0a:	2064      	movs	r0, #100	; 0x64
 8002d0c:	62a3      	str	r3, [r4, #40]	; 0x28
 8002d0e:	f7fd fbb7 	bl	8000480 <HAL_Delay>
 8002d12:	2319      	movs	r3, #25
 8002d14:	2064      	movs	r0, #100	; 0x64
 8002d16:	62a3      	str	r3, [r4, #40]	; 0x28
 8002d18:	f7fd fbb2 	bl	8000480 <HAL_Delay>
 8002d1c:	f7ff fdfc 	bl	8002918 <allOff>
 8002d20:	2300      	movs	r3, #0
 8002d22:	62a3      	str	r3, [r4, #40]	; 0x28
 8002d24:	bd10      	pop	{r4, pc}
 8002d26:	46c0      	nop			; (mov r8, r8)
 8002d28:	40012c00 	.word	0x40012c00

08002d2c <playInputTune>:
 8002d2c:	b570      	push	{r4, r5, r6, lr}
 8002d2e:	2305      	movs	r3, #5
 8002d30:	2564      	movs	r5, #100	; 0x64
 8002d32:	4c0a      	ldr	r4, [pc, #40]	; (8002d5c <playInputTune+0x30>)
 8002d34:	2002      	movs	r0, #2
 8002d36:	62a5      	str	r5, [r4, #40]	; 0x28
 8002d38:	6363      	str	r3, [r4, #52]	; 0x34
 8002d3a:	63a3      	str	r3, [r4, #56]	; 0x38
 8002d3c:	63e3      	str	r3, [r4, #60]	; 0x3c
 8002d3e:	f7ff fda5 	bl	800288c <comStep>
 8002d42:	0028      	movs	r0, r5
 8002d44:	f7fd fb9c 	bl	8000480 <HAL_Delay>
 8002d48:	2332      	movs	r3, #50	; 0x32
 8002d4a:	0028      	movs	r0, r5
 8002d4c:	62a3      	str	r3, [r4, #40]	; 0x28
 8002d4e:	f7fd fb97 	bl	8000480 <HAL_Delay>
 8002d52:	f7ff fde1 	bl	8002918 <allOff>
 8002d56:	2300      	movs	r3, #0
 8002d58:	62a3      	str	r3, [r4, #40]	; 0x28
 8002d5a:	bd70      	pop	{r4, r5, r6, pc}
 8002d5c:	40012c00 	.word	0x40012c00

08002d60 <getADCs>:
 8002d60:	4b03      	ldr	r3, [pc, #12]	; (8002d70 <getADCs+0x10>)
 8002d62:	4a04      	ldr	r2, [pc, #16]	; (8002d74 <getADCs+0x14>)
 8002d64:	6819      	ldr	r1, [r3, #0]
 8002d66:	6011      	str	r1, [r2, #0]
 8002d68:	685a      	ldr	r2, [r3, #4]
 8002d6a:	4b03      	ldr	r3, [pc, #12]	; (8002d78 <getADCs+0x18>)
 8002d6c:	601a      	str	r2, [r3, #0]
 8002d6e:	4770      	bx	lr
 8002d70:	20000088 	.word	0x20000088
 8002d74:	20000158 	.word	0x20000158
 8002d78:	200000b8 	.word	0x200000b8

08002d7c <HAL_ADC_ConvCpltCallback>:
 8002d7c:	b510      	push	{r4, lr}
 8002d7e:	f7ff ffef 	bl	8002d60 <getADCs>
 8002d82:	bd10      	pop	{r4, pc}

08002d84 <detectInput>:
 8002d84:	2300      	movs	r3, #0
 8002d86:	b5f7      	push	{r0, r1, r2, r4, r5, r6, r7, lr}
 8002d88:	4930      	ldr	r1, [pc, #192]	; (8002e4c <detectInput+0xc8>)
 8002d8a:	4d31      	ldr	r5, [pc, #196]	; (8002e50 <detectInput+0xcc>)
 8002d8c:	700b      	strb	r3, [r1, #0]
 8002d8e:	4931      	ldr	r1, [pc, #196]	; (8002e54 <detectInput+0xd0>)
 8002d90:	4a31      	ldr	r2, [pc, #196]	; (8002e58 <detectInput+0xd4>)
 8002d92:	700b      	strb	r3, [r1, #0]
 8002d94:	4931      	ldr	r1, [pc, #196]	; (8002e5c <detectInput+0xd8>)
 8002d96:	4f32      	ldr	r7, [pc, #200]	; (8002e60 <detectInput+0xdc>)
 8002d98:	700b      	strb	r3, [r1, #0]
 8002d9a:	4932      	ldr	r1, [pc, #200]	; (8002e64 <detectInput+0xe0>)
 8002d9c:	602a      	str	r2, [r5, #0]
 8002d9e:	700b      	strb	r3, [r1, #0]
 8002da0:	4931      	ldr	r1, [pc, #196]	; (8002e68 <detectInput+0xe4>)
 8002da2:	703b      	strb	r3, [r7, #0]
 8002da4:	700b      	strb	r3, [r1, #0]
 8002da6:	4931      	ldr	r1, [pc, #196]	; (8002e6c <detectInput+0xe8>)
 8002da8:	6808      	ldr	r0, [r1, #0]
 8002daa:	4931      	ldr	r1, [pc, #196]	; (8002e70 <detectInput+0xec>)
 8002dac:	6809      	ldr	r1, [r1, #0]
 8002dae:	9101      	str	r1, [sp, #4]
 8002db0:	2101      	movs	r1, #1
 8002db2:	9c01      	ldr	r4, [sp, #4]
 8002db4:	42a1      	cmp	r1, r4
 8002db6:	db23      	blt.n	8002e00 <detectInput+0x7c>
 8002db8:	2b00      	cmp	r3, #0
 8002dba:	d000      	beq.n	8002dbe <detectInput+0x3a>
 8002dbc:	602a      	str	r2, [r5, #0]
 8002dbe:	682b      	ldr	r3, [r5, #0]
 8002dc0:	1f1a      	subs	r2, r3, #4
 8002dc2:	2a11      	cmp	r2, #17
 8002dc4:	d801      	bhi.n	8002dca <detectInput+0x46>
 8002dc6:	2201      	movs	r2, #1
 8002dc8:	703a      	strb	r2, [r7, #0]
 8002dca:	001a      	movs	r2, r3
 8002dcc:	3a29      	subs	r2, #41	; 0x29
 8002dce:	2a26      	cmp	r2, #38	; 0x26
 8002dd0:	d806      	bhi.n	8002de0 <detectInput+0x5c>
 8002dd2:	2101      	movs	r1, #1
 8002dd4:	4a1d      	ldr	r2, [pc, #116]	; (8002e4c <detectInput+0xc8>)
 8002dd6:	7011      	strb	r1, [r2, #0]
 8002dd8:	4a26      	ldr	r2, [pc, #152]	; (8002e74 <detectInput+0xf0>)
 8002dda:	6291      	str	r1, [r2, #40]	; 0x28
 8002ddc:	4926      	ldr	r1, [pc, #152]	; (8002e78 <detectInput+0xf4>)
 8002dde:	6251      	str	r1, [r2, #36]	; 0x24
 8002de0:	001a      	movs	r2, r3
 8002de2:	2095      	movs	r0, #149	; 0x95
 8002de4:	3a65      	subs	r2, #101	; 0x65
 8002de6:	0040      	lsls	r0, r0, #1
 8002de8:	4924      	ldr	r1, [pc, #144]	; (8002e7c <detectInput+0xf8>)
 8002dea:	4282      	cmp	r2, r0
 8002dec:	d816      	bhi.n	8002e1c <detectInput+0x98>
 8002dee:	2301      	movs	r3, #1
 8002df0:	4a18      	ldr	r2, [pc, #96]	; (8002e54 <detectInput+0xd0>)
 8002df2:	7013      	strb	r3, [r2, #0]
 8002df4:	2301      	movs	r3, #1
 8002df6:	2032      	movs	r0, #50	; 0x32
 8002df8:	700b      	strb	r3, [r1, #0]
 8002dfa:	f7fd fb41 	bl	8000480 <HAL_Delay>
 8002dfe:	e01d      	b.n	8002e3c <detectInput+0xb8>
 8002e00:	008c      	lsls	r4, r1, #2
 8002e02:	46a4      	mov	ip, r4
 8002e04:	4666      	mov	r6, ip
 8002e06:	4c19      	ldr	r4, [pc, #100]	; (8002e6c <detectInput+0xe8>)
 8002e08:	59a4      	ldr	r4, [r4, r6]
 8002e0a:	46a4      	mov	ip, r4
 8002e0c:	1a20      	subs	r0, r4, r0
 8002e0e:	4290      	cmp	r0, r2
 8002e10:	d201      	bcs.n	8002e16 <detectInput+0x92>
 8002e12:	0002      	movs	r2, r0
 8002e14:	2301      	movs	r3, #1
 8002e16:	4660      	mov	r0, ip
 8002e18:	3101      	adds	r1, #1
 8002e1a:	e7ca      	b.n	8002db2 <detectInput+0x2e>
 8002e1c:	22fa      	movs	r2, #250	; 0xfa
 8002e1e:	00d2      	lsls	r2, r2, #3
 8002e20:	4293      	cmp	r3, r2
 8002e22:	dd08      	ble.n	8002e36 <detectInput+0xb2>
 8002e24:	2301      	movs	r3, #1
 8002e26:	4a10      	ldr	r2, [pc, #64]	; (8002e68 <detectInput+0xe4>)
 8002e28:	7013      	strb	r3, [r2, #0]
 8002e2a:	222f      	movs	r2, #47	; 0x2f
 8002e2c:	4b11      	ldr	r3, [pc, #68]	; (8002e74 <detectInput+0xf0>)
 8002e2e:	629a      	str	r2, [r3, #40]	; 0x28
 8002e30:	4a11      	ldr	r2, [pc, #68]	; (8002e78 <detectInput+0xf4>)
 8002e32:	625a      	str	r2, [r3, #36]	; 0x24
 8002e34:	e7de      	b.n	8002df4 <detectInput+0x70>
 8002e36:	2b00      	cmp	r3, #0
 8002e38:	d1dc      	bne.n	8002df4 <detectInput+0x70>
 8002e3a:	700b      	strb	r3, [r1, #0]
 8002e3c:	2340      	movs	r3, #64	; 0x40
 8002e3e:	4a0b      	ldr	r2, [pc, #44]	; (8002e6c <detectInput+0xe8>)
 8002e40:	2100      	movs	r1, #0
 8002e42:	480f      	ldr	r0, [pc, #60]	; (8002e80 <detectInput+0xfc>)
 8002e44:	f7ff f87a 	bl	8001f3c <HAL_TIM_IC_Start_DMA>
 8002e48:	bdf7      	pop	{r0, r1, r2, r4, r5, r6, r7, pc}
 8002e4a:	46c0      	nop			; (mov r8, r8)
 8002e4c:	20000134 	.word	0x20000134
 8002e50:	20000040 	.word	0x20000040
 8002e54:	20000118 	.word	0x20000118
 8002e58:	00004e20 	.word	0x00004e20
 8002e5c:	20000121 	.word	0x20000121
 8002e60:	20000100 	.word	0x20000100
 8002e64:	20000120 	.word	0x20000120
 8002e68:	20000140 	.word	0x20000140
 8002e6c:	20000264 	.word	0x20000264
 8002e70:	20000024 	.word	0x20000024
 8002e74:	40014000 	.word	0x40014000
 8002e78:	0000ffff 	.word	0x0000ffff
 8002e7c:	20000110 	.word	0x20000110
 8002e80:	20000190 	.word	0x20000190

08002e84 <computeProshotDMA>:
 8002e84:	b5f8      	push	{r3, r4, r5, r6, r7, lr}
 8002e86:	2301      	movs	r3, #1
 8002e88:	4d30      	ldr	r5, [pc, #192]	; (8002f4c <computeProshotDMA+0xc8>)
 8002e8a:	4831      	ldr	r0, [pc, #196]	; (8002f50 <computeProshotDMA+0xcc>)
 8002e8c:	682a      	ldr	r2, [r5, #0]
 8002e8e:	4c31      	ldr	r4, [pc, #196]	; (8002f54 <computeProshotDMA+0xd0>)
 8002e90:	009f      	lsls	r7, r3, #2
 8002e92:	59e9      	ldr	r1, [r5, r7]
 8002e94:	1a82      	subs	r2, r0, r2
 8002e96:	1852      	adds	r2, r2, r1
 8002e98:	42a2      	cmp	r2, r4
 8002e9a:	d852      	bhi.n	8002f42 <computeProshotDMA+0xbe>
 8002e9c:	3307      	adds	r3, #7
 8002e9e:	009b      	lsls	r3, r3, #2
 8002ea0:	58eb      	ldr	r3, [r5, r3]
 8002ea2:	1a59      	subs	r1, r3, r1
 8002ea4:	4b2c      	ldr	r3, [pc, #176]	; (8002f58 <computeProshotDMA+0xd4>)
 8002ea6:	4299      	cmp	r1, r3
 8002ea8:	d824      	bhi.n	8002ef4 <computeProshotDMA+0x70>
 8002eaa:	2600      	movs	r6, #0
 8002eac:	4c2b      	ldr	r4, [pc, #172]	; (8002f5c <computeProshotDMA+0xd8>)
 8002eae:	19eb      	adds	r3, r5, r7
 8002eb0:	6858      	ldr	r0, [r3, #4]
 8002eb2:	681b      	ldr	r3, [r3, #0]
 8002eb4:	2103      	movs	r1, #3
 8002eb6:	1ac0      	subs	r0, r0, r3
 8002eb8:	3817      	subs	r0, #23
 8002eba:	f7fd f92f 	bl	800011c <__udivsi3>
 8002ebe:	5130      	str	r0, [r6, r4]
 8002ec0:	3604      	adds	r6, #4
 8002ec2:	3708      	adds	r7, #8
 8002ec4:	2e10      	cmp	r6, #16
 8002ec6:	d1f2      	bne.n	8002eae <computeProshotDMA+0x2a>
 8002ec8:	6862      	ldr	r2, [r4, #4]
 8002eca:	6823      	ldr	r3, [r4, #0]
 8002ecc:	4053      	eors	r3, r2
 8002ece:	68a2      	ldr	r2, [r4, #8]
 8002ed0:	4053      	eors	r3, r2
 8002ed2:	0099      	lsls	r1, r3, #2
 8002ed4:	00da      	lsls	r2, r3, #3
 8002ed6:	430a      	orrs	r2, r1
 8002ed8:	431a      	orrs	r2, r3
 8002eda:	005b      	lsls	r3, r3, #1
 8002edc:	4313      	orrs	r3, r2
 8002ede:	4a20      	ldr	r2, [pc, #128]	; (8002f60 <computeProshotDMA+0xdc>)
 8002ee0:	7013      	strb	r3, [r2, #0]
 8002ee2:	68e2      	ldr	r2, [r4, #12]
 8002ee4:	00d3      	lsls	r3, r2, #3
 8002ee6:	0091      	lsls	r1, r2, #2
 8002ee8:	430b      	orrs	r3, r1
 8002eea:	4313      	orrs	r3, r2
 8002eec:	0052      	lsls	r2, r2, #1
 8002eee:	4313      	orrs	r3, r2
 8002ef0:	4a1c      	ldr	r2, [pc, #112]	; (8002f64 <computeProshotDMA+0xe0>)
 8002ef2:	7013      	strb	r3, [r2, #0]
 8002ef4:	4b1a      	ldr	r3, [pc, #104]	; (8002f60 <computeProshotDMA+0xdc>)
 8002ef6:	781a      	ldrb	r2, [r3, #0]
 8002ef8:	4b1a      	ldr	r3, [pc, #104]	; (8002f64 <computeProshotDMA+0xe0>)
 8002efa:	781b      	ldrb	r3, [r3, #0]
 8002efc:	429a      	cmp	r2, r3
 8002efe:	d11a      	bne.n	8002f36 <computeProshotDMA+0xb2>
 8002f00:	4a16      	ldr	r2, [pc, #88]	; (8002f5c <computeProshotDMA+0xd8>)
 8002f02:	6813      	ldr	r3, [r2, #0]
 8002f04:	6851      	ldr	r1, [r2, #4]
 8002f06:	6892      	ldr	r2, [r2, #8]
 8002f08:	01db      	lsls	r3, r3, #7
 8002f0a:	00c9      	lsls	r1, r1, #3
 8002f0c:	1052      	asrs	r2, r2, #1
 8002f0e:	430b      	orrs	r3, r1
 8002f10:	4313      	orrs	r3, r2
 8002f12:	4a15      	ldr	r2, [pc, #84]	; (8002f68 <computeProshotDMA+0xe4>)
 8002f14:	4293      	cmp	r3, r2
 8002f16:	d80e      	bhi.n	8002f36 <computeProshotDMA+0xb2>
 8002f18:	2b2f      	cmp	r3, #47	; 0x2f
 8002f1a:	dd04      	ble.n	8002f26 <computeProshotDMA+0xa2>
 8002f1c:	2100      	movs	r1, #0
 8002f1e:	4a13      	ldr	r2, [pc, #76]	; (8002f6c <computeProshotDMA+0xe8>)
 8002f20:	6013      	str	r3, [r2, #0]
 8002f22:	4a13      	ldr	r2, [pc, #76]	; (8002f70 <computeProshotDMA+0xec>)
 8002f24:	6011      	str	r1, [r2, #0]
 8002f26:	1e5a      	subs	r2, r3, #1
 8002f28:	2a2e      	cmp	r2, #46	; 0x2e
 8002f2a:	d805      	bhi.n	8002f38 <computeProshotDMA+0xb4>
 8002f2c:	2100      	movs	r1, #0
 8002f2e:	4a0f      	ldr	r2, [pc, #60]	; (8002f6c <computeProshotDMA+0xe8>)
 8002f30:	6011      	str	r1, [r2, #0]
 8002f32:	4a0f      	ldr	r2, [pc, #60]	; (8002f70 <computeProshotDMA+0xec>)
 8002f34:	6013      	str	r3, [r2, #0]
 8002f36:	bdf8      	pop	{r3, r4, r5, r6, r7, pc}
 8002f38:	2b00      	cmp	r3, #0
 8002f3a:	d1fc      	bne.n	8002f36 <computeProshotDMA+0xb2>
 8002f3c:	4a0b      	ldr	r2, [pc, #44]	; (8002f6c <computeProshotDMA+0xe8>)
 8002f3e:	6013      	str	r3, [r2, #0]
 8002f40:	e7f7      	b.n	8002f32 <computeProshotDMA+0xae>
 8002f42:	3301      	adds	r3, #1
 8002f44:	000a      	movs	r2, r1
 8002f46:	2b09      	cmp	r3, #9
 8002f48:	d1a2      	bne.n	8002e90 <computeProshotDMA+0xc>
 8002f4a:	e7f4      	b.n	8002f36 <computeProshotDMA+0xb2>
 8002f4c:	20000264 	.word	0x20000264
 8002f50:	fffffa23 	.word	0xfffffa23
 8002f54:	0000bd72 	.word	0x0000bd72
 8002f58:	0000270f 	.word	0x0000270f
 8002f5c:	20000124 	.word	0x20000124
 8002f60:	200001d0 	.word	0x200001d0
 8002f64:	200001e4 	.word	0x200001e4
 8002f68:	000007ff 	.word	0x000007ff
 8002f6c:	2000011c 	.word	0x2000011c
 8002f70:	20000104 	.word	0x20000104

08002f74 <computeMSInput>:
 8002f74:	4b0a      	ldr	r3, [pc, #40]	; (8002fa0 <computeMSInput+0x2c>)
 8002f76:	b507      	push	{r0, r1, r2, lr}
 8002f78:	681a      	ldr	r2, [r3, #0]
 8002f7a:	490a      	ldr	r1, [pc, #40]	; (8002fa4 <computeMSInput+0x30>)
 8002f7c:	685b      	ldr	r3, [r3, #4]
 8002f7e:	1a98      	subs	r0, r3, r2
 8002f80:	4288      	cmp	r0, r1
 8002f82:	d80c      	bhi.n	8002f9e <computeMSInput+0x2a>
 8002f84:	429a      	cmp	r2, r3
 8002f86:	d00a      	beq.n	8002f9e <computeMSInput+0x2a>
 8002f88:	23fa      	movs	r3, #250	; 0xfa
 8002f8a:	2296      	movs	r2, #150	; 0x96
 8002f8c:	00db      	lsls	r3, r3, #3
 8002f8e:	9300      	str	r3, [sp, #0]
 8002f90:	00d2      	lsls	r2, r2, #3
 8002f92:	2300      	movs	r3, #0
 8002f94:	21f3      	movs	r1, #243	; 0xf3
 8002f96:	f7ff faeb 	bl	8002570 <map>
 8002f9a:	4b03      	ldr	r3, [pc, #12]	; (8002fa8 <computeMSInput+0x34>)
 8002f9c:	6018      	str	r0, [r3, #0]
 8002f9e:	bd07      	pop	{r0, r1, r2, pc}
 8002fa0:	20000264 	.word	0x20000264
 8002fa4:	000005db 	.word	0x000005db
 8002fa8:	2000011c 	.word	0x2000011c

08002fac <computeOS125Input>:
 8002fac:	4b0a      	ldr	r3, [pc, #40]	; (8002fd8 <computeOS125Input+0x2c>)
 8002fae:	b507      	push	{r0, r1, r2, lr}
 8002fb0:	681a      	ldr	r2, [r3, #0]
 8002fb2:	490a      	ldr	r1, [pc, #40]	; (8002fdc <computeOS125Input+0x30>)
 8002fb4:	685b      	ldr	r3, [r3, #4]
 8002fb6:	1a98      	subs	r0, r3, r2
 8002fb8:	4288      	cmp	r0, r1
 8002fba:	d80b      	bhi.n	8002fd4 <computeOS125Input+0x28>
 8002fbc:	429a      	cmp	r2, r3
 8002fbe:	d009      	beq.n	8002fd4 <computeOS125Input+0x28>
 8002fc0:	23fa      	movs	r3, #250	; 0xfa
 8002fc2:	00db      	lsls	r3, r3, #3
 8002fc4:	9300      	str	r3, [sp, #0]
 8002fc6:	4a06      	ldr	r2, [pc, #24]	; (8002fe0 <computeOS125Input+0x34>)
 8002fc8:	2300      	movs	r3, #0
 8002fca:	4906      	ldr	r1, [pc, #24]	; (8002fe4 <computeOS125Input+0x38>)
 8002fcc:	f7ff fad0 	bl	8002570 <map>
 8002fd0:	4b05      	ldr	r3, [pc, #20]	; (8002fe8 <computeOS125Input+0x3c>)
 8002fd2:	6018      	str	r0, [r3, #0]
 8002fd4:	bd07      	pop	{r0, r1, r2, pc}
 8002fd6:	46c0      	nop			; (mov r8, r8)
 8002fd8:	20000264 	.word	0x20000264
 8002fdc:	0000300b 	.word	0x0000300b
 8002fe0:	00002ee0 	.word	0x00002ee0
 8002fe4:	00001964 	.word	0x00001964
 8002fe8:	2000011c 	.word	0x2000011c

08002fec <computeOS42Input>:
 8002fec:	4b0a      	ldr	r3, [pc, #40]	; (8003018 <computeOS42Input+0x2c>)
 8002fee:	b507      	push	{r0, r1, r2, lr}
 8002ff0:	681a      	ldr	r2, [r3, #0]
 8002ff2:	490a      	ldr	r1, [pc, #40]	; (800301c <computeOS42Input+0x30>)
 8002ff4:	685b      	ldr	r3, [r3, #4]
 8002ff6:	1a98      	subs	r0, r3, r2
 8002ff8:	4288      	cmp	r0, r1
 8002ffa:	d80c      	bhi.n	8003016 <computeOS42Input+0x2a>
 8002ffc:	429a      	cmp	r2, r3
 8002ffe:	d00a      	beq.n	8003016 <computeOS42Input+0x2a>
 8003000:	23fa      	movs	r3, #250	; 0xfa
 8003002:	22fc      	movs	r2, #252	; 0xfc
 8003004:	00db      	lsls	r3, r3, #3
 8003006:	9300      	str	r3, [sp, #0]
 8003008:	0112      	lsls	r2, r2, #4
 800300a:	2300      	movs	r3, #0
 800300c:	4904      	ldr	r1, [pc, #16]	; (8003020 <computeOS42Input+0x34>)
 800300e:	f7ff faaf 	bl	8002570 <map>
 8003012:	4b04      	ldr	r3, [pc, #16]	; (8003024 <computeOS42Input+0x38>)
 8003014:	6018      	str	r0, [r3, #0]
 8003016:	bd07      	pop	{r0, r1, r2, pc}
 8003018:	20000264 	.word	0x20000264
 800301c:	00001193 	.word	0x00001193
 8003020:	000007e4 	.word	0x000007e4
 8003024:	2000011c 	.word	0x2000011c

08003028 <computeServoInput>:
 8003028:	4b0d      	ldr	r3, [pc, #52]	; (8003060 <computeServoInput+0x38>)
 800302a:	b513      	push	{r0, r1, r4, lr}
 800302c:	681a      	ldr	r2, [r3, #0]
 800302e:	6859      	ldr	r1, [r3, #4]
 8003030:	1a88      	subs	r0, r1, r2
 8003032:	4a0c      	ldr	r2, [pc, #48]	; (8003064 <computeServoInput+0x3c>)
 8003034:	1884      	adds	r4, r0, r2
 8003036:	22fc      	movs	r2, #252	; 0xfc
 8003038:	0092      	lsls	r2, r2, #2
 800303a:	4294      	cmp	r4, r2
 800303c:	d905      	bls.n	800304a <computeServoInput+0x22>
 800303e:	6898      	ldr	r0, [r3, #8]
 8003040:	4b08      	ldr	r3, [pc, #32]	; (8003064 <computeServoInput+0x3c>)
 8003042:	1a40      	subs	r0, r0, r1
 8003044:	18c3      	adds	r3, r0, r3
 8003046:	4293      	cmp	r3, r2
 8003048:	d808      	bhi.n	800305c <computeServoInput+0x34>
 800304a:	22fa      	movs	r2, #250	; 0xfa
 800304c:	00d2      	lsls	r2, r2, #3
 800304e:	2300      	movs	r3, #0
 8003050:	9200      	str	r2, [sp, #0]
 8003052:	4905      	ldr	r1, [pc, #20]	; (8003068 <computeServoInput+0x40>)
 8003054:	f7ff fa8c 	bl	8002570 <map>
 8003058:	4b04      	ldr	r3, [pc, #16]	; (800306c <computeServoInput+0x44>)
 800305a:	6018      	str	r0, [r3, #0]
 800305c:	bd13      	pop	{r0, r1, r4, pc}
 800305e:	46c0      	nop			; (mov r8, r8)
 8003060:	20000264 	.word	0x20000264
 8003064:	fffffc17 	.word	0xfffffc17
 8003068:	00000442 	.word	0x00000442
 800306c:	2000011c 	.word	0x2000011c

08003070 <computeDshotDMA>:
 8003070:	4a3d      	ldr	r2, [pc, #244]	; (8003168 <computeDshotDMA+0xf8>)
 8003072:	b5f8      	push	{r3, r4, r5, r6, r7, lr}
 8003074:	2633      	movs	r6, #51	; 0x33
 8003076:	6814      	ldr	r4, [r2, #0]
 8003078:	2201      	movs	r2, #1
 800307a:	493c      	ldr	r1, [pc, #240]	; (800316c <computeDshotDMA+0xfc>)
 800307c:	4f3c      	ldr	r7, [pc, #240]	; (8003170 <computeDshotDMA+0x100>)
 800307e:	680b      	ldr	r3, [r1, #0]
 8003080:	4276      	negs	r6, r6
 8003082:	42a2      	cmp	r2, r4
 8003084:	da67      	bge.n	8003156 <computeDshotDMA+0xe6>
 8003086:	0095      	lsls	r5, r2, #2
 8003088:	194d      	adds	r5, r1, r5
 800308a:	6828      	ldr	r0, [r5, #0]
 800308c:	1af3      	subs	r3, r6, r3
 800308e:	181b      	adds	r3, r3, r0
 8003090:	42bb      	cmp	r3, r7
 8003092:	d866      	bhi.n	8003162 <computeDshotDMA+0xf2>
 8003094:	2400      	movs	r4, #0
 8003096:	260d      	movs	r6, #13
 8003098:	4f36      	ldr	r7, [pc, #216]	; (8003174 <computeDshotDMA+0x104>)
 800309a:	0063      	lsls	r3, r4, #1
 800309c:	18ea      	adds	r2, r5, r3
 800309e:	6850      	ldr	r0, [r2, #4]
 80030a0:	58eb      	ldr	r3, [r5, r3]
 80030a2:	0031      	movs	r1, r6
 80030a4:	1ac0      	subs	r0, r0, r3
 80030a6:	f7fd f839 	bl	800011c <__udivsi3>
 80030aa:	3801      	subs	r0, #1
 80030ac:	51e0      	str	r0, [r4, r7]
 80030ae:	3404      	adds	r4, #4
 80030b0:	2c40      	cmp	r4, #64	; 0x40
 80030b2:	d1f2      	bne.n	800309a <computeDshotDMA+0x2a>
 80030b4:	683a      	ldr	r2, [r7, #0]
 80030b6:	687b      	ldr	r3, [r7, #4]
 80030b8:	0291      	lsls	r1, r2, #10
 80030ba:	025c      	lsls	r4, r3, #9
 80030bc:	4321      	orrs	r1, r4
 80030be:	6abc      	ldr	r4, [r7, #40]	; 0x28
 80030c0:	68f8      	ldr	r0, [r7, #12]
 80030c2:	4321      	orrs	r1, r4
 80030c4:	68bc      	ldr	r4, [r7, #8]
 80030c6:	69bd      	ldr	r5, [r7, #24]
 80030c8:	0224      	lsls	r4, r4, #8
 80030ca:	430c      	orrs	r4, r1
 80030cc:	01c1      	lsls	r1, r0, #7
 80030ce:	4321      	orrs	r1, r4
 80030d0:	693c      	ldr	r4, [r7, #16]
 80030d2:	6a3e      	ldr	r6, [r7, #32]
 80030d4:	01a4      	lsls	r4, r4, #6
 80030d6:	4321      	orrs	r1, r4
 80030d8:	697c      	ldr	r4, [r7, #20]
 80030da:	0164      	lsls	r4, r4, #5
 80030dc:	430c      	orrs	r4, r1
 80030de:	0129      	lsls	r1, r5, #4
 80030e0:	4321      	orrs	r1, r4
 80030e2:	69fc      	ldr	r4, [r7, #28]
 80030e4:	00e4      	lsls	r4, r4, #3
 80030e6:	430c      	orrs	r4, r1
 80030e8:	00b1      	lsls	r1, r6, #2
 80030ea:	4321      	orrs	r1, r4
 80030ec:	6a7c      	ldr	r4, [r7, #36]	; 0x24
 80030ee:	0064      	lsls	r4, r4, #1
 80030f0:	4321      	orrs	r1, r4
 80030f2:	693c      	ldr	r4, [r7, #16]
 80030f4:	4062      	eors	r2, r4
 80030f6:	697c      	ldr	r4, [r7, #20]
 80030f8:	4072      	eors	r2, r6
 80030fa:	4063      	eors	r3, r4
 80030fc:	6a7c      	ldr	r4, [r7, #36]	; 0x24
 80030fe:	00d2      	lsls	r2, r2, #3
 8003100:	4063      	eors	r3, r4
 8003102:	009b      	lsls	r3, r3, #2
 8003104:	431a      	orrs	r2, r3
 8003106:	69fb      	ldr	r3, [r7, #28]
 8003108:	4058      	eors	r0, r3
 800310a:	6afb      	ldr	r3, [r7, #44]	; 0x2c
 800310c:	4058      	eors	r0, r3
 800310e:	68bb      	ldr	r3, [r7, #8]
 8003110:	4302      	orrs	r2, r0
 8003112:	405d      	eors	r5, r3
 8003114:	6abb      	ldr	r3, [r7, #40]	; 0x28
 8003116:	405d      	eors	r5, r3
 8003118:	6b3b      	ldr	r3, [r7, #48]	; 0x30
 800311a:	006d      	lsls	r5, r5, #1
 800311c:	00de      	lsls	r6, r3, #3
 800311e:	6b7b      	ldr	r3, [r7, #52]	; 0x34
 8003120:	4315      	orrs	r5, r2
 8003122:	009b      	lsls	r3, r3, #2
 8003124:	431e      	orrs	r6, r3
 8003126:	6bfb      	ldr	r3, [r7, #60]	; 0x3c
 8003128:	b26d      	sxtb	r5, r5
 800312a:	431e      	orrs	r6, r3
 800312c:	6bbb      	ldr	r3, [r7, #56]	; 0x38
 800312e:	005b      	lsls	r3, r3, #1
 8003130:	431e      	orrs	r6, r3
 8003132:	b276      	sxtb	r6, r6
 8003134:	42b5      	cmp	r5, r6
 8003136:	d106      	bne.n	8003146 <computeDshotDMA+0xd6>
 8003138:	292f      	cmp	r1, #47	; 0x2f
 800313a:	dd04      	ble.n	8003146 <computeDshotDMA+0xd6>
 800313c:	2200      	movs	r2, #0
 800313e:	4b0e      	ldr	r3, [pc, #56]	; (8003178 <computeDshotDMA+0x108>)
 8003140:	6019      	str	r1, [r3, #0]
 8003142:	4b0e      	ldr	r3, [pc, #56]	; (800317c <computeDshotDMA+0x10c>)
 8003144:	601a      	str	r2, [r3, #0]
 8003146:	1e4b      	subs	r3, r1, #1
 8003148:	2b2e      	cmp	r3, #46	; 0x2e
 800314a:	d805      	bhi.n	8003158 <computeDshotDMA+0xe8>
 800314c:	2200      	movs	r2, #0
 800314e:	4b0a      	ldr	r3, [pc, #40]	; (8003178 <computeDshotDMA+0x108>)
 8003150:	601a      	str	r2, [r3, #0]
 8003152:	4b0a      	ldr	r3, [pc, #40]	; (800317c <computeDshotDMA+0x10c>)
 8003154:	6019      	str	r1, [r3, #0]
 8003156:	bdf8      	pop	{r3, r4, r5, r6, r7, pc}
 8003158:	2900      	cmp	r1, #0
 800315a:	d1fc      	bne.n	8003156 <computeDshotDMA+0xe6>
 800315c:	4b06      	ldr	r3, [pc, #24]	; (8003178 <computeDshotDMA+0x108>)
 800315e:	6019      	str	r1, [r3, #0]
 8003160:	e7f7      	b.n	8003152 <computeDshotDMA+0xe2>
 8003162:	0003      	movs	r3, r0
 8003164:	3201      	adds	r2, #1
 8003166:	e78c      	b.n	8003082 <computeDshotDMA+0x12>
 8003168:	20000024 	.word	0x20000024
 800316c:	20000264 	.word	0x20000264
 8003170:	0000fdb4 	.word	0x0000fdb4
 8003174:	200000c0 	.word	0x200000c0
 8003178:	2000011c 	.word	0x2000011c
 800317c:	20000104 	.word	0x20000104

08003180 <transferComplete>:
 8003180:	b510      	push	{r4, lr}
 8003182:	2400      	movs	r4, #0
 8003184:	4b29      	ldr	r3, [pc, #164]	; (800322c <transferComplete+0xac>)
 8003186:	2108      	movs	r1, #8
 8003188:	4829      	ldr	r0, [pc, #164]	; (8003230 <transferComplete+0xb0>)
 800318a:	601c      	str	r4, [r3, #0]
 800318c:	f7fd fef2 	bl	8000f74 <HAL_GPIO_TogglePin>
 8003190:	4b28      	ldr	r3, [pc, #160]	; (8003234 <transferComplete+0xb4>)
 8003192:	781b      	ldrb	r3, [r3, #0]
 8003194:	2b01      	cmp	r3, #1
 8003196:	d147      	bne.n	8003228 <transferComplete+0xa8>
 8003198:	4b27      	ldr	r3, [pc, #156]	; (8003238 <transferComplete+0xb8>)
 800319a:	781b      	ldrb	r3, [r3, #0]
 800319c:	2b01      	cmp	r3, #1
 800319e:	d107      	bne.n	80031b0 <transferComplete+0x30>
 80031a0:	f7ff ff66 	bl	8003070 <computeDshotDMA>
 80031a4:	2340      	movs	r3, #64	; 0x40
 80031a6:	4a25      	ldr	r2, [pc, #148]	; (800323c <transferComplete+0xbc>)
 80031a8:	0021      	movs	r1, r4
 80031aa:	4825      	ldr	r0, [pc, #148]	; (8003240 <transferComplete+0xc0>)
 80031ac:	f7fe fec6 	bl	8001f3c <HAL_TIM_IC_Start_DMA>
 80031b0:	4b24      	ldr	r3, [pc, #144]	; (8003244 <transferComplete+0xc4>)
 80031b2:	781b      	ldrb	r3, [r3, #0]
 80031b4:	2b01      	cmp	r3, #1
 80031b6:	d107      	bne.n	80031c8 <transferComplete+0x48>
 80031b8:	f7ff fe64 	bl	8002e84 <computeProshotDMA>
 80031bc:	2310      	movs	r3, #16
 80031be:	4a1f      	ldr	r2, [pc, #124]	; (800323c <transferComplete+0xbc>)
 80031c0:	2100      	movs	r1, #0
 80031c2:	481f      	ldr	r0, [pc, #124]	; (8003240 <transferComplete+0xc0>)
 80031c4:	f7fe feba 	bl	8001f3c <HAL_TIM_IC_Start_DMA>
 80031c8:	4b1f      	ldr	r3, [pc, #124]	; (8003248 <transferComplete+0xc8>)
 80031ca:	781b      	ldrb	r3, [r3, #0]
 80031cc:	2b01      	cmp	r3, #1
 80031ce:	d107      	bne.n	80031e0 <transferComplete+0x60>
 80031d0:	f7ff ff2a 	bl	8003028 <computeServoInput>
 80031d4:	2303      	movs	r3, #3
 80031d6:	4a19      	ldr	r2, [pc, #100]	; (800323c <transferComplete+0xbc>)
 80031d8:	2100      	movs	r1, #0
 80031da:	4819      	ldr	r0, [pc, #100]	; (8003240 <transferComplete+0xc0>)
 80031dc:	f7fe feae 	bl	8001f3c <HAL_TIM_IC_Start_DMA>
 80031e0:	4b1a      	ldr	r3, [pc, #104]	; (800324c <transferComplete+0xcc>)
 80031e2:	781b      	ldrb	r3, [r3, #0]
 80031e4:	2b00      	cmp	r3, #0
 80031e6:	d007      	beq.n	80031f8 <transferComplete+0x78>
 80031e8:	f7ff fec4 	bl	8002f74 <computeMSInput>
 80031ec:	2303      	movs	r3, #3
 80031ee:	4a13      	ldr	r2, [pc, #76]	; (800323c <transferComplete+0xbc>)
 80031f0:	2100      	movs	r1, #0
 80031f2:	4813      	ldr	r0, [pc, #76]	; (8003240 <transferComplete+0xc0>)
 80031f4:	f7fe fea2 	bl	8001f3c <HAL_TIM_IC_Start_DMA>
 80031f8:	4b15      	ldr	r3, [pc, #84]	; (8003250 <transferComplete+0xd0>)
 80031fa:	781b      	ldrb	r3, [r3, #0]
 80031fc:	2b00      	cmp	r3, #0
 80031fe:	d007      	beq.n	8003210 <transferComplete+0x90>
 8003200:	f7ff fed4 	bl	8002fac <computeOS125Input>
 8003204:	2303      	movs	r3, #3
 8003206:	4a0d      	ldr	r2, [pc, #52]	; (800323c <transferComplete+0xbc>)
 8003208:	2100      	movs	r1, #0
 800320a:	480d      	ldr	r0, [pc, #52]	; (8003240 <transferComplete+0xc0>)
 800320c:	f7fe fe96 	bl	8001f3c <HAL_TIM_IC_Start_DMA>
 8003210:	4b10      	ldr	r3, [pc, #64]	; (8003254 <transferComplete+0xd4>)
 8003212:	781b      	ldrb	r3, [r3, #0]
 8003214:	2b00      	cmp	r3, #0
 8003216:	d007      	beq.n	8003228 <transferComplete+0xa8>
 8003218:	f7ff fee8 	bl	8002fec <computeOS42Input>
 800321c:	2303      	movs	r3, #3
 800321e:	4a07      	ldr	r2, [pc, #28]	; (800323c <transferComplete+0xbc>)
 8003220:	2100      	movs	r1, #0
 8003222:	4807      	ldr	r0, [pc, #28]	; (8003240 <transferComplete+0xc0>)
 8003224:	f7fe fe8a 	bl	8001f3c <HAL_TIM_IC_Start_DMA>
 8003228:	bd10      	pop	{r4, pc}
 800322a:	46c0      	nop			; (mov r8, r8)
 800322c:	20000144 	.word	0x20000144
 8003230:	48000800 	.word	0x48000800
 8003234:	20000110 	.word	0x20000110
 8003238:	20000100 	.word	0x20000100
 800323c:	20000264 	.word	0x20000264
 8003240:	20000190 	.word	0x20000190
 8003244:	20000134 	.word	0x20000134
 8003248:	20000140 	.word	0x20000140
 800324c:	20000118 	.word	0x20000118
 8003250:	20000120 	.word	0x20000120
 8003254:	20000121 	.word	0x20000121

08003258 <SystemClock_Config>:
 8003258:	231a      	movs	r3, #26
 800325a:	b530      	push	{r4, r5, lr}
 800325c:	b091      	sub	sp, #68	; 0x44
 800325e:	9304      	str	r3, [sp, #16]
 8003260:	22a0      	movs	r2, #160	; 0xa0
 8003262:	3b0a      	subs	r3, #10
 8003264:	2401      	movs	r4, #1
 8003266:	9308      	str	r3, [sp, #32]
 8003268:	930a      	str	r3, [sp, #40]	; 0x28
 800326a:	2502      	movs	r5, #2
 800326c:	2300      	movs	r3, #0
 800326e:	0392      	lsls	r2, r2, #14
 8003270:	a804      	add	r0, sp, #16
 8003272:	9407      	str	r4, [sp, #28]
 8003274:	9409      	str	r4, [sp, #36]	; 0x24
 8003276:	940b      	str	r4, [sp, #44]	; 0x2c
 8003278:	950c      	str	r5, [sp, #48]	; 0x30
 800327a:	930d      	str	r3, [sp, #52]	; 0x34
 800327c:	920e      	str	r2, [sp, #56]	; 0x38
 800327e:	930f      	str	r3, [sp, #60]	; 0x3c
 8003280:	f7fd feb0 	bl	8000fe4 <HAL_RCC_OscConfig>
 8003284:	2800      	cmp	r0, #0
 8003286:	d000      	beq.n	800328a <SystemClock_Config+0x32>
 8003288:	e7fe      	b.n	8003288 <SystemClock_Config+0x30>
 800328a:	2307      	movs	r3, #7
 800328c:	9002      	str	r0, [sp, #8]
 800328e:	9003      	str	r0, [sp, #12]
 8003290:	0021      	movs	r1, r4
 8003292:	4668      	mov	r0, sp
 8003294:	9300      	str	r3, [sp, #0]
 8003296:	9501      	str	r5, [sp, #4]
 8003298:	f7fe f8b8 	bl	800140c <HAL_RCC_ClockConfig>
 800329c:	1e04      	subs	r4, r0, #0
 800329e:	d000      	beq.n	80032a2 <SystemClock_Config+0x4a>
 80032a0:	e7fe      	b.n	80032a0 <SystemClock_Config+0x48>
 80032a2:	f7fe f949 	bl	8001538 <HAL_RCC_GetHCLKFreq>
 80032a6:	21fa      	movs	r1, #250	; 0xfa
 80032a8:	0089      	lsls	r1, r1, #2
 80032aa:	f7fc ff37 	bl	800011c <__udivsi3>
 80032ae:	f7fd fbbf 	bl	8000a30 <HAL_SYSTICK_Config>
 80032b2:	2004      	movs	r0, #4
 80032b4:	f7fd fbd6 	bl	8000a64 <HAL_SYSTICK_CLKSourceConfig>
 80032b8:	2001      	movs	r0, #1
 80032ba:	0022      	movs	r2, r4
 80032bc:	0021      	movs	r1, r4
 80032be:	4240      	negs	r0, r0
 80032c0:	f7fd fb7c 	bl	80009bc <HAL_NVIC_SetPriority>
 80032c4:	b011      	add	sp, #68	; 0x44
 80032c6:	bd30      	pop	{r4, r5, pc}

080032c8 <main>:
 80032c8:	b5f0      	push	{r4, r5, r6, r7, lr}
 80032ca:	b09d      	sub	sp, #116	; 0x74
 80032cc:	f7fd f8ba 	bl	8000444 <HAL_Init>
 80032d0:	f7ff ffc2 	bl	8003258 <SystemClock_Config>
 80032d4:	f7fd fcb2 	bl	8000c3c <HAL_FLASH_Unlock>
 80032d8:	f7ff f81e 	bl	8002318 <EE_Init>
 80032dc:	2180      	movs	r1, #128	; 0x80
 80032de:	4cd1      	ldr	r4, [pc, #836]	; (8003624 <main+0x35c>)
 80032e0:	0289      	lsls	r1, r1, #10
 80032e2:	6962      	ldr	r2, [r4, #20]
 80032e4:	2090      	movs	r0, #144	; 0x90
 80032e6:	430a      	orrs	r2, r1
 80032e8:	6162      	str	r2, [r4, #20]
 80032ea:	6963      	ldr	r3, [r4, #20]
 80032ec:	2500      	movs	r5, #0
 80032ee:	400b      	ands	r3, r1
 80032f0:	2180      	movs	r1, #128	; 0x80
 80032f2:	9307      	str	r3, [sp, #28]
 80032f4:	9b07      	ldr	r3, [sp, #28]
 80032f6:	6962      	ldr	r2, [r4, #20]
 80032f8:	02c9      	lsls	r1, r1, #11
 80032fa:	430a      	orrs	r2, r1
 80032fc:	6162      	str	r2, [r4, #20]
 80032fe:	6963      	ldr	r3, [r4, #20]
 8003300:	2601      	movs	r6, #1
 8003302:	400b      	ands	r3, r1
 8003304:	9306      	str	r3, [sp, #24]
 8003306:	9b06      	ldr	r3, [sp, #24]
 8003308:	2380      	movs	r3, #128	; 0x80
 800330a:	05c0      	lsls	r0, r0, #23
 800330c:	021b      	lsls	r3, r3, #8
 800330e:	6283      	str	r3, [r0, #40]	; 0x28
 8003310:	a915      	add	r1, sp, #84	; 0x54
 8003312:	9315      	str	r3, [sp, #84]	; 0x54
 8003314:	9616      	str	r6, [sp, #88]	; 0x58
 8003316:	9517      	str	r5, [sp, #92]	; 0x5c
 8003318:	9518      	str	r5, [sp, #96]	; 0x60
 800331a:	9519      	str	r5, [sp, #100]	; 0x64
 800331c:	f7fe fef2 	bl	8002104 <LL_GPIO_Init>
 8003320:	6963      	ldr	r3, [r4, #20]
 8003322:	002a      	movs	r2, r5
 8003324:	4333      	orrs	r3, r6
 8003326:	6163      	str	r3, [r4, #20]
 8003328:	6963      	ldr	r3, [r4, #20]
 800332a:	2102      	movs	r1, #2
 800332c:	4033      	ands	r3, r6
 800332e:	9305      	str	r3, [sp, #20]
 8003330:	2009      	movs	r0, #9
 8003332:	9b05      	ldr	r3, [sp, #20]
 8003334:	f7fd fb42 	bl	80009bc <HAL_NVIC_SetPriority>
 8003338:	2009      	movs	r0, #9
 800333a:	f7fd fb6f 	bl	8000a1c <HAL_NVIC_EnableIRQ>
 800333e:	002a      	movs	r2, r5
 8003340:	2102      	movs	r1, #2
 8003342:	200b      	movs	r0, #11
 8003344:	f7fd fb3a 	bl	80009bc <HAL_NVIC_SetPriority>
 8003348:	200b      	movs	r0, #11
 800334a:	f7fd fb67 	bl	8000a1c <HAL_NVIC_EnableIRQ>
 800334e:	4cb6      	ldr	r4, [pc, #728]	; (8003628 <main+0x360>)
 8003350:	4bb6      	ldr	r3, [pc, #728]	; (800362c <main+0x364>)
 8003352:	0020      	movs	r0, r4
 8003354:	6023      	str	r3, [r4, #0]
 8003356:	2308      	movs	r3, #8
 8003358:	6163      	str	r3, [r4, #20]
 800335a:	3338      	adds	r3, #56	; 0x38
 800335c:	62a3      	str	r3, [r4, #40]	; 0x28
 800335e:	2380      	movs	r3, #128	; 0x80
 8003360:	00db      	lsls	r3, r3, #3
 8003362:	6065      	str	r5, [r4, #4]
 8003364:	60a5      	str	r5, [r4, #8]
 8003366:	60e5      	str	r5, [r4, #12]
 8003368:	6126      	str	r6, [r4, #16]
 800336a:	61a5      	str	r5, [r4, #24]
 800336c:	61e5      	str	r5, [r4, #28]
 800336e:	6225      	str	r5, [r4, #32]
 8003370:	6266      	str	r6, [r4, #36]	; 0x24
 8003372:	62e3      	str	r3, [r4, #44]	; 0x2c
 8003374:	6326      	str	r6, [r4, #48]	; 0x30
 8003376:	6366      	str	r6, [r4, #52]	; 0x34
 8003378:	f7fd f892 	bl	80004a0 <HAL_ADC_Init>
 800337c:	42a8      	cmp	r0, r5
 800337e:	d000      	beq.n	8003382 <main+0xba>
 8003380:	e7fe      	b.n	8003380 <main+0xb8>
 8003382:	2580      	movs	r5, #128	; 0x80
 8003384:	2703      	movs	r7, #3
 8003386:	2307      	movs	r3, #7
 8003388:	016d      	lsls	r5, r5, #5
 800338a:	a915      	add	r1, sp, #84	; 0x54
 800338c:	0020      	movs	r0, r4
 800338e:	9715      	str	r7, [sp, #84]	; 0x54
 8003390:	9516      	str	r5, [sp, #88]	; 0x58
 8003392:	9317      	str	r3, [sp, #92]	; 0x5c
 8003394:	f7fd f99c 	bl	80006d0 <HAL_ADC_ConfigChannel>
 8003398:	2800      	cmp	r0, #0
 800339a:	d000      	beq.n	800339e <main+0xd6>
 800339c:	e7fe      	b.n	800339c <main+0xd4>
 800339e:	2306      	movs	r3, #6
 80033a0:	a915      	add	r1, sp, #84	; 0x54
 80033a2:	0020      	movs	r0, r4
 80033a4:	9315      	str	r3, [sp, #84]	; 0x54
 80033a6:	f7fd f993 	bl	80006d0 <HAL_ADC_ConfigChannel>
 80033aa:	2800      	cmp	r0, #0
 80033ac:	d000      	beq.n	80033b0 <main+0xe8>
 80033ae:	e7fe      	b.n	80033ae <main+0xe6>
 80033b0:	4e9f      	ldr	r6, [pc, #636]	; (8003630 <main+0x368>)
 80033b2:	4ba0      	ldr	r3, [pc, #640]	; (8003634 <main+0x36c>)
 80033b4:	60b0      	str	r0, [r6, #8]
 80033b6:	6033      	str	r3, [r6, #0]
 80033b8:	2350      	movs	r3, #80	; 0x50
 80033ba:	60f0      	str	r0, [r6, #12]
 80033bc:	6130      	str	r0, [r6, #16]
 80033be:	61b0      	str	r0, [r6, #24]
 80033c0:	61f0      	str	r0, [r6, #28]
 80033c2:	0030      	movs	r0, r6
 80033c4:	6073      	str	r3, [r6, #4]
 80033c6:	6175      	str	r5, [r6, #20]
 80033c8:	6237      	str	r7, [r6, #32]
 80033ca:	f7fd fa01 	bl	80007d0 <HAL_COMP_Init>
 80033ce:	2800      	cmp	r0, #0
 80033d0:	d000      	beq.n	80033d4 <main+0x10c>
 80033d2:	e7fe      	b.n	80033d2 <main+0x10a>
 80033d4:	2320      	movs	r3, #32
 80033d6:	4c98      	ldr	r4, [pc, #608]	; (8003638 <main+0x370>)
 80033d8:	4f98      	ldr	r7, [pc, #608]	; (800363c <main+0x374>)
 80033da:	60a3      	str	r3, [r4, #8]
 80033dc:	4b98      	ldr	r3, [pc, #608]	; (8003640 <main+0x378>)
 80033de:	6060      	str	r0, [r4, #4]
 80033e0:	6120      	str	r0, [r4, #16]
 80033e2:	6160      	str	r0, [r4, #20]
 80033e4:	61a0      	str	r0, [r4, #24]
 80033e6:	0020      	movs	r0, r4
 80033e8:	6027      	str	r7, [r4, #0]
 80033ea:	60e3      	str	r3, [r4, #12]
 80033ec:	f7fe faa6 	bl	800193c <HAL_TIM_Base_Init>
 80033f0:	9702      	str	r7, [sp, #8]
 80033f2:	2800      	cmp	r0, #0
 80033f4:	d000      	beq.n	80033f8 <main+0x130>
 80033f6:	e7fe      	b.n	80033f6 <main+0x12e>
 80033f8:	a90a      	add	r1, sp, #40	; 0x28
 80033fa:	0020      	movs	r0, r4
 80033fc:	950a      	str	r5, [sp, #40]	; 0x28
 80033fe:	f7fe fc6f 	bl	8001ce0 <HAL_TIM_ConfigClockSource>
 8003402:	2800      	cmp	r0, #0
 8003404:	d000      	beq.n	8003408 <main+0x140>
 8003406:	e7fe      	b.n	8003406 <main+0x13e>
 8003408:	0020      	movs	r0, r4
 800340a:	f7fe fab2 	bl	8001972 <HAL_TIM_PWM_Init>
 800340e:	2800      	cmp	r0, #0
 8003410:	d000      	beq.n	8003414 <main+0x14c>
 8003412:	e7fe      	b.n	8003412 <main+0x14a>
 8003414:	2370      	movs	r3, #112	; 0x70
 8003416:	9009      	str	r0, [sp, #36]	; 0x24
 8003418:	a908      	add	r1, sp, #32
 800341a:	0020      	movs	r0, r4
 800341c:	9308      	str	r3, [sp, #32]
 800341e:	f7fe fe12 	bl	8002046 <HAL_TIMEx_MasterConfigSynchronization>
 8003422:	1e02      	subs	r2, r0, #0
 8003424:	d000      	beq.n	8003428 <main+0x160>
 8003426:	e7fe      	b.n	8003426 <main+0x15e>
 8003428:	2360      	movs	r3, #96	; 0x60
 800342a:	900f      	str	r0, [sp, #60]	; 0x3c
 800342c:	9010      	str	r0, [sp, #64]	; 0x40
 800342e:	9011      	str	r0, [sp, #68]	; 0x44
 8003430:	9012      	str	r0, [sp, #72]	; 0x48
 8003432:	9013      	str	r0, [sp, #76]	; 0x4c
 8003434:	9014      	str	r0, [sp, #80]	; 0x50
 8003436:	a90e      	add	r1, sp, #56	; 0x38
 8003438:	0020      	movs	r0, r4
 800343a:	930e      	str	r3, [sp, #56]	; 0x38
 800343c:	f7fe fb10 	bl	8001a60 <HAL_TIM_PWM_ConfigChannel>
 8003440:	2800      	cmp	r0, #0
 8003442:	d000      	beq.n	8003446 <main+0x17e>
 8003444:	e7fe      	b.n	8003444 <main+0x17c>
 8003446:	2204      	movs	r2, #4
 8003448:	a90e      	add	r1, sp, #56	; 0x38
 800344a:	0020      	movs	r0, r4
 800344c:	f7fe fb08 	bl	8001a60 <HAL_TIM_PWM_ConfigChannel>
 8003450:	2800      	cmp	r0, #0
 8003452:	d000      	beq.n	8003456 <main+0x18e>
 8003454:	e7fe      	b.n	8003454 <main+0x18c>
 8003456:	2208      	movs	r2, #8
 8003458:	a90e      	add	r1, sp, #56	; 0x38
 800345a:	0020      	movs	r0, r4
 800345c:	f7fe fb00 	bl	8001a60 <HAL_TIM_PWM_ConfigChannel>
 8003460:	2800      	cmp	r0, #0
 8003462:	d000      	beq.n	8003466 <main+0x19e>
 8003464:	e7fe      	b.n	8003464 <main+0x19c>
 8003466:	220c      	movs	r2, #12
 8003468:	a90e      	add	r1, sp, #56	; 0x38
 800346a:	0020      	movs	r0, r4
 800346c:	f7fe faf8 	bl	8001a60 <HAL_TIM_PWM_ConfigChannel>
 8003470:	2800      	cmp	r0, #0
 8003472:	d000      	beq.n	8003476 <main+0x1ae>
 8003474:	e7fe      	b.n	8003474 <main+0x1ac>
 8003476:	4b73      	ldr	r3, [pc, #460]	; (8003644 <main+0x37c>)
 8003478:	9015      	str	r0, [sp, #84]	; 0x54
 800347a:	681b      	ldr	r3, [r3, #0]
 800347c:	9016      	str	r0, [sp, #88]	; 0x58
 800347e:	9303      	str	r3, [sp, #12]
 8003480:	9318      	str	r3, [sp, #96]	; 0x60
 8003482:	2380      	movs	r3, #128	; 0x80
 8003484:	9017      	str	r0, [sp, #92]	; 0x5c
 8003486:	9019      	str	r0, [sp, #100]	; 0x64
 8003488:	019b      	lsls	r3, r3, #6
 800348a:	901b      	str	r0, [sp, #108]	; 0x6c
 800348c:	a915      	add	r1, sp, #84	; 0x54
 800348e:	0020      	movs	r0, r4
 8003490:	931a      	str	r3, [sp, #104]	; 0x68
 8003492:	f7fe fdf9 	bl	8002088 <HAL_TIMEx_ConfigBreakDeadTime>
 8003496:	1e07      	subs	r7, r0, #0
 8003498:	d000      	beq.n	800349c <main+0x1d4>
 800349a:	e7fe      	b.n	800349a <main+0x1d2>
 800349c:	0020      	movs	r0, r4
 800349e:	f000 fce1 	bl	8003e64 <HAL_TIM_MspPostInit>
 80034a2:	2380      	movs	r3, #128	; 0x80
 80034a4:	4d68      	ldr	r5, [pc, #416]	; (8003648 <main+0x380>)
 80034a6:	05db      	lsls	r3, r3, #23
 80034a8:	602b      	str	r3, [r5, #0]
 80034aa:	2364      	movs	r3, #100	; 0x64
 80034ac:	606b      	str	r3, [r5, #4]
 80034ae:	4b67      	ldr	r3, [pc, #412]	; (800364c <main+0x384>)
 80034b0:	0028      	movs	r0, r5
 80034b2:	60af      	str	r7, [r5, #8]
 80034b4:	60eb      	str	r3, [r5, #12]
 80034b6:	612f      	str	r7, [r5, #16]
 80034b8:	61af      	str	r7, [r5, #24]
 80034ba:	f7fe fa3f 	bl	800193c <HAL_TIM_Base_Init>
 80034be:	2800      	cmp	r0, #0
 80034c0:	d000      	beq.n	80034c4 <main+0x1fc>
 80034c2:	e7fe      	b.n	80034c2 <main+0x1fa>
 80034c4:	2380      	movs	r3, #128	; 0x80
 80034c6:	a915      	add	r1, sp, #84	; 0x54
 80034c8:	015b      	lsls	r3, r3, #5
 80034ca:	0028      	movs	r0, r5
 80034cc:	9315      	str	r3, [sp, #84]	; 0x54
 80034ce:	f7fe fc07 	bl	8001ce0 <HAL_TIM_ConfigClockSource>
 80034d2:	2800      	cmp	r0, #0
 80034d4:	d000      	beq.n	80034d8 <main+0x210>
 80034d6:	e7fe      	b.n	80034d6 <main+0x20e>
 80034d8:	900e      	str	r0, [sp, #56]	; 0x38
 80034da:	900f      	str	r0, [sp, #60]	; 0x3c
 80034dc:	a90e      	add	r1, sp, #56	; 0x38
 80034de:	0028      	movs	r0, r5
 80034e0:	f7fe fdb1 	bl	8002046 <HAL_TIMEx_MasterConfigSynchronization>
 80034e4:	2800      	cmp	r0, #0
 80034e6:	d000      	beq.n	80034ea <main+0x222>
 80034e8:	e7fe      	b.n	80034e8 <main+0x220>
 80034ea:	4f59      	ldr	r7, [pc, #356]	; (8003650 <main+0x388>)
 80034ec:	4b59      	ldr	r3, [pc, #356]	; (8003654 <main+0x38c>)
 80034ee:	60b8      	str	r0, [r7, #8]
 80034f0:	603b      	str	r3, [r7, #0]
 80034f2:	230a      	movs	r3, #10
 80034f4:	607b      	str	r3, [r7, #4]
 80034f6:	4b58      	ldr	r3, [pc, #352]	; (8003658 <main+0x390>)
 80034f8:	6138      	str	r0, [r7, #16]
 80034fa:	61b8      	str	r0, [r7, #24]
 80034fc:	0038      	movs	r0, r7
 80034fe:	60fb      	str	r3, [r7, #12]
 8003500:	f7fe fa1c 	bl	800193c <HAL_TIM_Base_Init>
 8003504:	2800      	cmp	r0, #0
 8003506:	d000      	beq.n	800350a <main+0x242>
 8003508:	e7fe      	b.n	8003508 <main+0x240>
 800350a:	2380      	movs	r3, #128	; 0x80
 800350c:	a915      	add	r1, sp, #84	; 0x54
 800350e:	015b      	lsls	r3, r3, #5
 8003510:	0038      	movs	r0, r7
 8003512:	9315      	str	r3, [sp, #84]	; 0x54
 8003514:	f7fe fbe4 	bl	8001ce0 <HAL_TIM_ConfigClockSource>
 8003518:	2800      	cmp	r0, #0
 800351a:	d000      	beq.n	800351e <main+0x256>
 800351c:	e7fe      	b.n	800351c <main+0x254>
 800351e:	900e      	str	r0, [sp, #56]	; 0x38
 8003520:	900f      	str	r0, [sp, #60]	; 0x3c
 8003522:	a90e      	add	r1, sp, #56	; 0x38
 8003524:	0038      	movs	r0, r7
 8003526:	f7fe fd8e 	bl	8002046 <HAL_TIMEx_MasterConfigSynchronization>
 800352a:	2800      	cmp	r0, #0
 800352c:	d000      	beq.n	8003530 <main+0x268>
 800352e:	e7fe      	b.n	800352e <main+0x266>
 8003530:	4d4a      	ldr	r5, [pc, #296]	; (800365c <main+0x394>)
 8003532:	4b4b      	ldr	r3, [pc, #300]	; (8003660 <main+0x398>)
 8003534:	6068      	str	r0, [r5, #4]
 8003536:	602b      	str	r3, [r5, #0]
 8003538:	4b47      	ldr	r3, [pc, #284]	; (8003658 <main+0x390>)
 800353a:	60a8      	str	r0, [r5, #8]
 800353c:	6128      	str	r0, [r5, #16]
 800353e:	6168      	str	r0, [r5, #20]
 8003540:	61a8      	str	r0, [r5, #24]
 8003542:	0028      	movs	r0, r5
 8003544:	60eb      	str	r3, [r5, #12]
 8003546:	f7fe f9f9 	bl	800193c <HAL_TIM_Base_Init>
 800354a:	2800      	cmp	r0, #0
 800354c:	d000      	beq.n	8003550 <main+0x288>
 800354e:	e7fe      	b.n	800354e <main+0x286>
 8003550:	2380      	movs	r3, #128	; 0x80
 8003552:	a90e      	add	r1, sp, #56	; 0x38
 8003554:	015b      	lsls	r3, r3, #5
 8003556:	0028      	movs	r0, r5
 8003558:	930e      	str	r3, [sp, #56]	; 0x38
 800355a:	f7fe fbc1 	bl	8001ce0 <HAL_TIM_ConfigClockSource>
 800355e:	2800      	cmp	r0, #0
 8003560:	d000      	beq.n	8003564 <main+0x29c>
 8003562:	e7fe      	b.n	8003562 <main+0x29a>
 8003564:	0028      	movs	r0, r5
 8003566:	f7fe fa1f 	bl	80019a8 <HAL_TIM_IC_Init>
 800356a:	2800      	cmp	r0, #0
 800356c:	d000      	beq.n	8003570 <main+0x2a8>
 800356e:	e7fe      	b.n	800356e <main+0x2a6>
 8003570:	900a      	str	r0, [sp, #40]	; 0x28
 8003572:	900b      	str	r0, [sp, #44]	; 0x2c
 8003574:	a90a      	add	r1, sp, #40	; 0x28
 8003576:	0028      	movs	r0, r5
 8003578:	f7fe fd65 	bl	8002046 <HAL_TIMEx_MasterConfigSynchronization>
 800357c:	1e02      	subs	r2, r0, #0
 800357e:	d000      	beq.n	8003582 <main+0x2ba>
 8003580:	e7fe      	b.n	8003580 <main+0x2b8>
 8003582:	230a      	movs	r3, #10
 8003584:	9017      	str	r0, [sp, #92]	; 0x5c
 8003586:	9315      	str	r3, [sp, #84]	; 0x54
 8003588:	9018      	str	r0, [sp, #96]	; 0x60
 800358a:	3b09      	subs	r3, #9
 800358c:	a915      	add	r1, sp, #84	; 0x54
 800358e:	0028      	movs	r0, r5
 8003590:	9316      	str	r3, [sp, #88]	; 0x58
 8003592:	f7fe fafb 	bl	8001b8c <HAL_TIM_IC_ConfigChannel>
 8003596:	2800      	cmp	r0, #0
 8003598:	d000      	beq.n	800359c <main+0x2d4>
 800359a:	e7fe      	b.n	800359a <main+0x2d2>
 800359c:	4a31      	ldr	r2, [pc, #196]	; (8003664 <main+0x39c>)
 800359e:	4b32      	ldr	r3, [pc, #200]	; (8003668 <main+0x3a0>)
 80035a0:	0010      	movs	r0, r2
 80035a2:	6013      	str	r3, [r2, #0]
 80035a4:	2302      	movs	r3, #2
 80035a6:	6053      	str	r3, [r2, #4]
 80035a8:	4b30      	ldr	r3, [pc, #192]	; (800366c <main+0x3a4>)
 80035aa:	60d3      	str	r3, [r2, #12]
 80035ac:	23fa      	movs	r3, #250	; 0xfa
 80035ae:	00db      	lsls	r3, r3, #3
 80035b0:	6093      	str	r3, [r2, #8]
 80035b2:	f7fd fce3 	bl	8000f7c <HAL_IWDG_Init>
 80035b6:	9003      	str	r0, [sp, #12]
 80035b8:	2800      	cmp	r0, #0
 80035ba:	d000      	beq.n	80035be <main+0x2f6>
 80035bc:	e7fe      	b.n	80035bc <main+0x2f4>
 80035be:	9903      	ldr	r1, [sp, #12]
 80035c0:	0020      	movs	r0, r4
 80035c2:	f7fe fc4d 	bl	8001e60 <HAL_TIM_PWM_Start>
 80035c6:	9903      	ldr	r1, [sp, #12]
 80035c8:	0020      	movs	r0, r4
 80035ca:	f7fe fd2a 	bl	8002022 <HAL_TIMEx_PWMN_Start>
 80035ce:	2104      	movs	r1, #4
 80035d0:	0020      	movs	r0, r4
 80035d2:	f7fe fc45 	bl	8001e60 <HAL_TIM_PWM_Start>
 80035d6:	2104      	movs	r1, #4
 80035d8:	0020      	movs	r0, r4
 80035da:	f7fe fd22 	bl	8002022 <HAL_TIMEx_PWMN_Start>
 80035de:	2108      	movs	r1, #8
 80035e0:	0020      	movs	r0, r4
 80035e2:	f7fe fc3d 	bl	8001e60 <HAL_TIM_PWM_Start>
 80035e6:	2108      	movs	r1, #8
 80035e8:	0020      	movs	r0, r4
 80035ea:	f7fe fd1a 	bl	8002022 <HAL_TIMEx_PWMN_Start>
 80035ee:	4816      	ldr	r0, [pc, #88]	; (8003648 <main+0x380>)
 80035f0:	f7fe f876 	bl	80016e0 <HAL_TIM_Base_Start_IT>
 80035f4:	0038      	movs	r0, r7
 80035f6:	f7fe f867 	bl	80016c8 <HAL_TIM_Base_Start>
 80035fa:	f7ff fb77 	bl	8002cec <playStartupTune>
 80035fe:	210c      	movs	r1, #12
 8003600:	0020      	movs	r0, r4
 8003602:	f7fe fc97 	bl	8001f34 <HAL_TIM_OC_Start_IT>
 8003606:	1e01      	subs	r1, r0, #0
 8003608:	d000      	beq.n	800360c <main+0x344>
 800360a:	e7fe      	b.n	800360a <main+0x342>
 800360c:	2340      	movs	r3, #64	; 0x40
 800360e:	4a18      	ldr	r2, [pc, #96]	; (8003670 <main+0x3a8>)
 8003610:	0028      	movs	r0, r5
 8003612:	f7fe fc93 	bl	8001f3c <HAL_TIM_IC_Start_DMA>
 8003616:	0030      	movs	r0, r6
 8003618:	f7fd f964 	bl	80008e4 <HAL_COMP_Start_IT>
 800361c:	2800      	cmp	r0, #0
 800361e:	d029      	beq.n	8003674 <main+0x3ac>
 8003620:	e7fe      	b.n	8003620 <main+0x358>
 8003622:	46c0      	nop			; (mov r8, r8)
 8003624:	40021000 	.word	0x40021000
 8003628:	20000478 	.word	0x20000478
 800362c:	40012400 	.word	0x40012400
 8003630:	200001f0 	.word	0x200001f0
 8003634:	4001001c 	.word	0x4001001c
 8003638:	200003ac 	.word	0x200003ac
 800363c:	40012c00 	.word	0x40012c00
 8003640:	000003e7 	.word	0x000003e7
 8003644:	2000000c 	.word	0x2000000c
 8003648:	200003ec 	.word	0x200003ec
 800364c:	00001388 	.word	0x00001388
 8003650:	2000021c 	.word	0x2000021c
 8003654:	40000400 	.word	0x40000400
 8003658:	0000ffff 	.word	0x0000ffff
 800365c:	20000190 	.word	0x20000190
 8003660:	40014000 	.word	0x40014000
 8003664:	200001d4 	.word	0x200001d4
 8003668:	40003000 	.word	0x40003000
 800366c:	00000fff 	.word	0x00000fff
 8003670:	20000264 	.word	0x20000264
 8003674:	4839      	ldr	r0, [pc, #228]	; (800375c <main+0x494>)
 8003676:	f7fd fc81 	bl	8000f7c <HAL_IWDG_Init>
 800367a:	2800      	cmp	r0, #0
 800367c:	d000      	beq.n	8003680 <main+0x3b8>
 800367e:	e7fe      	b.n	800367e <main+0x3b6>
 8003680:	4b37      	ldr	r3, [pc, #220]	; (8003760 <main+0x498>)
 8003682:	781b      	ldrb	r3, [r3, #0]
 8003684:	2b01      	cmp	r3, #1
 8003686:	d101      	bne.n	800368c <main+0x3c4>
 8003688:	f7fe ffa0 	bl	80025cc <loadEEpromConfig>
 800368c:	4b34      	ldr	r3, [pc, #208]	; (8003760 <main+0x498>)
 800368e:	781a      	ldrb	r2, [r3, #0]
 8003690:	2301      	movs	r3, #1
 8003692:	2a02      	cmp	r2, #2
 8003694:	d12d      	bne.n	80036f2 <main+0x42a>
 8003696:	4a33      	ldr	r2, [pc, #204]	; (8003764 <main+0x49c>)
 8003698:	6013      	str	r3, [r2, #0]
 800369a:	4a33      	ldr	r2, [pc, #204]	; (8003768 <main+0x4a0>)
 800369c:	7013      	strb	r3, [r2, #0]
 800369e:	4a33      	ldr	r2, [pc, #204]	; (800376c <main+0x4a4>)
 80036a0:	6013      	str	r3, [r2, #0]
 80036a2:	2296      	movs	r2, #150	; 0x96
 80036a4:	4b32      	ldr	r3, [pc, #200]	; (8003770 <main+0x4a8>)
 80036a6:	601a      	str	r2, [r3, #0]
 80036a8:	4b2e      	ldr	r3, [pc, #184]	; (8003764 <main+0x49c>)
 80036aa:	681b      	ldr	r3, [r3, #0]
 80036ac:	9303      	str	r3, [sp, #12]
 80036ae:	2b00      	cmp	r3, #0
 80036b0:	d002      	beq.n	80036b8 <main+0x3f0>
 80036b2:	4a30      	ldr	r2, [pc, #192]	; (8003774 <main+0x4ac>)
 80036b4:	4b30      	ldr	r3, [pc, #192]	; (8003778 <main+0x4b0>)
 80036b6:	601a      	str	r2, [r3, #0]
 80036b8:	2301      	movs	r3, #1
 80036ba:	9a02      	ldr	r2, [sp, #8]
 80036bc:	9902      	ldr	r1, [sp, #8]
 80036be:	6353      	str	r3, [r2, #52]	; 0x34
 80036c0:	9a02      	ldr	r2, [sp, #8]
 80036c2:	6393      	str	r3, [r2, #56]	; 0x38
 80036c4:	9a02      	ldr	r2, [sp, #8]
 80036c6:	63d3      	str	r3, [r2, #60]	; 0x3c
 80036c8:	22c8      	movs	r2, #200	; 0xc8
 80036ca:	0092      	lsls	r2, r2, #2
 80036cc:	640a      	str	r2, [r1, #64]	; 0x40
 80036ce:	9302      	str	r3, [sp, #8]
 80036d0:	4a2a      	ldr	r2, [pc, #168]	; (800377c <main+0x4b4>)
 80036d2:	482b      	ldr	r0, [pc, #172]	; (8003780 <main+0x4b8>)
 80036d4:	6813      	ldr	r3, [r2, #0]
 80036d6:	2100      	movs	r1, #0
 80036d8:	3301      	adds	r3, #1
 80036da:	6013      	str	r3, [r2, #0]
 80036dc:	4283      	cmp	r3, r0
 80036de:	dd00      	ble.n	80036e2 <main+0x41a>
 80036e0:	6011      	str	r1, [r2, #0]
 80036e2:	4b28      	ldr	r3, [pc, #160]	; (8003784 <main+0x4bc>)
 80036e4:	481d      	ldr	r0, [pc, #116]	; (800375c <main+0x494>)
 80036e6:	7019      	strb	r1, [r3, #0]
 80036e8:	f7fd fc74 	bl	8000fd4 <HAL_IWDG_Refresh>
 80036ec:	2800      	cmp	r0, #0
 80036ee:	d01c      	beq.n	800372a <main+0x462>
 80036f0:	e7fe      	b.n	80036f0 <main+0x428>
 80036f2:	2a03      	cmp	r2, #3
 80036f4:	d10c      	bne.n	8003710 <main+0x448>
 80036f6:	4a1b      	ldr	r2, [pc, #108]	; (8003764 <main+0x49c>)
 80036f8:	491b      	ldr	r1, [pc, #108]	; (8003768 <main+0x4a0>)
 80036fa:	6013      	str	r3, [r2, #0]
 80036fc:	2200      	movs	r2, #0
 80036fe:	700a      	strb	r2, [r1, #0]
 8003700:	491a      	ldr	r1, [pc, #104]	; (800376c <main+0x4a4>)
 8003702:	600a      	str	r2, [r1, #0]
 8003704:	4a20      	ldr	r2, [pc, #128]	; (8003788 <main+0x4c0>)
 8003706:	7013      	strb	r3, [r2, #0]
 8003708:	22e1      	movs	r2, #225	; 0xe1
 800370a:	0092      	lsls	r2, r2, #2
 800370c:	4b1f      	ldr	r3, [pc, #124]	; (800378c <main+0x4c4>)
 800370e:	e7ca      	b.n	80036a6 <main+0x3de>
 8003710:	2a04      	cmp	r2, #4
 8003712:	d1c9      	bne.n	80036a8 <main+0x3e0>
 8003714:	4a13      	ldr	r2, [pc, #76]	; (8003764 <main+0x49c>)
 8003716:	4914      	ldr	r1, [pc, #80]	; (8003768 <main+0x4a0>)
 8003718:	6013      	str	r3, [r2, #0]
 800371a:	2200      	movs	r2, #0
 800371c:	700a      	strb	r2, [r1, #0]
 800371e:	4913      	ldr	r1, [pc, #76]	; (800376c <main+0x4a4>)
 8003720:	600a      	str	r2, [r1, #0]
 8003722:	4a19      	ldr	r2, [pc, #100]	; (8003788 <main+0x4c0>)
 8003724:	7013      	strb	r3, [r2, #0]
 8003726:	22c8      	movs	r2, #200	; 0xc8
 8003728:	e7ef      	b.n	800370a <main+0x442>
 800372a:	4a19      	ldr	r2, [pc, #100]	; (8003790 <main+0x4c8>)
 800372c:	6813      	ldr	r3, [r2, #0]
 800372e:	3301      	adds	r3, #1
 8003730:	6013      	str	r3, [r2, #0]
 8003732:	2b01      	cmp	r3, #1
 8003734:	dc00      	bgt.n	8003738 <main+0x470>
 8003736:	e095      	b.n	8003864 <main+0x59c>
 8003738:	4c16      	ldr	r4, [pc, #88]	; (8003794 <main+0x4cc>)
 800373a:	6010      	str	r0, [r2, #0]
 800373c:	6823      	ldr	r3, [r4, #0]
 800373e:	2b00      	cmp	r3, #0
 8003740:	dd37      	ble.n	80037b2 <main+0x4ea>
 8003742:	2b02      	cmp	r3, #2
 8003744:	d101      	bne.n	800374a <main+0x482>
 8003746:	f7ff faf1 	bl	8002d2c <playInputTune>
 800374a:	6823      	ldr	r3, [r4, #0]
 800374c:	2b15      	cmp	r3, #21
 800374e:	d127      	bne.n	80037a0 <main+0x4d8>
 8003750:	4b11      	ldr	r3, [pc, #68]	; (8003798 <main+0x4d0>)
 8003752:	681a      	ldr	r2, [r3, #0]
 8003754:	4b11      	ldr	r3, [pc, #68]	; (800379c <main+0x4d4>)
 8003756:	601a      	str	r2, [r3, #0]
 8003758:	e02b      	b.n	80037b2 <main+0x4ea>
 800375a:	46c0      	nop			; (mov r8, r8)
 800375c:	200001d4 	.word	0x200001d4
 8003760:	20000058 	.word	0x20000058
 8003764:	200000a8 	.word	0x200000a8
 8003768:	2000003c 	.word	0x2000003c
 800376c:	20000008 	.word	0x20000008
 8003770:	20000044 	.word	0x20000044
 8003774:	000003e9 	.word	0x000003e9
 8003778:	2000011c 	.word	0x2000011c
 800377c:	200000b4 	.word	0x200000b4
 8003780:	000186a0 	.word	0x000186a0
 8003784:	200000b0 	.word	0x200000b0
 8003788:	20000122 	.word	0x20000122
 800378c:	2000002c 	.word	0x2000002c
 8003790:	200001e8 	.word	0x200001e8
 8003794:	20000104 	.word	0x20000104
 8003798:	200000bc 	.word	0x200000bc
 800379c:	20000020 	.word	0x20000020
 80037a0:	2b14      	cmp	r3, #20
 80037a2:	d000      	beq.n	80037a6 <main+0x4de>
 80037a4:	e15e      	b.n	8003a64 <main+0x79c>
 80037a6:	4bc0      	ldr	r3, [pc, #768]	; (8003aa8 <main+0x7e0>)
 80037a8:	9a02      	ldr	r2, [sp, #8]
 80037aa:	681b      	ldr	r3, [r3, #0]
 80037ac:	1ad3      	subs	r3, r2, r3
 80037ae:	4abf      	ldr	r2, [pc, #764]	; (8003aac <main+0x7e4>)
 80037b0:	6013      	str	r3, [r2, #0]
 80037b2:	4bbf      	ldr	r3, [pc, #764]	; (8003ab0 <main+0x7e8>)
 80037b4:	4abf      	ldr	r2, [pc, #764]	; (8003ab4 <main+0x7ec>)
 80037b6:	6819      	ldr	r1, [r3, #0]
 80037b8:	48bf      	ldr	r0, [pc, #764]	; (8003ab8 <main+0x7f0>)
 80037ba:	4bc0      	ldr	r3, [pc, #768]	; (8003abc <main+0x7f4>)
 80037bc:	2901      	cmp	r1, #1
 80037be:	d000      	beq.n	80037c2 <main+0x4fa>
 80037c0:	e1e5      	b.n	8003b8e <main+0x8c6>
 80037c2:	7804      	ldrb	r4, [r0, #0]
 80037c4:	2c00      	cmp	r4, #0
 80037c6:	d000      	beq.n	80037ca <main+0x502>
 80037c8:	e1e1      	b.n	8003b8e <main+0x8c6>
 80037ca:	4cbd      	ldr	r4, [pc, #756]	; (8003ac0 <main+0x7f8>)
 80037cc:	7824      	ldrb	r4, [r4, #0]
 80037ce:	2c00      	cmp	r4, #0
 80037d0:	d000      	beq.n	80037d4 <main+0x50c>
 80037d2:	e1dc      	b.n	8003b8e <main+0x8c6>
 80037d4:	6812      	ldr	r2, [r2, #0]
 80037d6:	48bb      	ldr	r0, [pc, #748]	; (8003ac4 <main+0x7fc>)
 80037d8:	4282      	cmp	r2, r0
 80037da:	dc00      	bgt.n	80037de <main+0x516>
 80037dc:	e1bc      	b.n	8003b58 <main+0x890>
 80037de:	4db2      	ldr	r5, [pc, #712]	; (8003aa8 <main+0x7e0>)
 80037e0:	4eb2      	ldr	r6, [pc, #712]	; (8003aac <main+0x7e4>)
 80037e2:	682f      	ldr	r7, [r5, #0]
 80037e4:	6830      	ldr	r0, [r6, #0]
 80037e6:	4db8      	ldr	r5, [pc, #736]	; (8003ac8 <main+0x800>)
 80037e8:	42b8      	cmp	r0, r7
 80037ea:	d103      	bne.n	80037f4 <main+0x52c>
 80037ec:	7029      	strb	r1, [r5, #0]
 80037ee:	1a09      	subs	r1, r1, r0
 80037f0:	601c      	str	r4, [r3, #0]
 80037f2:	6031      	str	r1, [r6, #0]
 80037f4:	7829      	ldrb	r1, [r5, #0]
 80037f6:	2900      	cmp	r1, #0
 80037f8:	d104      	bne.n	8003804 <main+0x53c>
 80037fa:	49b4      	ldr	r1, [pc, #720]	; (8003acc <main+0x804>)
 80037fc:	1850      	adds	r0, r2, r1
 80037fe:	2103      	movs	r1, #3
 8003800:	4341      	muls	r1, r0
 8003802:	6019      	str	r1, [r3, #0]
 8003804:	49b2      	ldr	r1, [pc, #712]	; (8003ad0 <main+0x808>)
 8003806:	6808      	ldr	r0, [r1, #0]
 8003808:	49b2      	ldr	r1, [pc, #712]	; (8003ad4 <main+0x80c>)
 800380a:	6809      	ldr	r1, [r1, #0]
 800380c:	4288      	cmp	r0, r1
 800380e:	db0b      	blt.n	8003828 <main+0x560>
 8003810:	49b1      	ldr	r1, [pc, #708]	; (8003ad8 <main+0x810>)
 8003812:	7809      	ldrb	r1, [r1, #0]
 8003814:	2903      	cmp	r1, #3
 8003816:	d002      	beq.n	800381e <main+0x556>
 8003818:	2000      	movs	r0, #0
 800381a:	49ab      	ldr	r1, [pc, #684]	; (8003ac8 <main+0x800>)
 800381c:	7008      	strb	r0, [r1, #0]
 800381e:	2100      	movs	r1, #0
 8003820:	48ae      	ldr	r0, [pc, #696]	; (8003adc <main+0x814>)
 8003822:	6001      	str	r1, [r0, #0]
 8003824:	48ae      	ldr	r0, [pc, #696]	; (8003ae0 <main+0x818>)
 8003826:	6001      	str	r1, [r0, #0]
 8003828:	49ae      	ldr	r1, [pc, #696]	; (8003ae4 <main+0x81c>)
 800382a:	1852      	adds	r2, r2, r1
 800382c:	2195      	movs	r1, #149	; 0x95
 800382e:	0049      	lsls	r1, r1, #1
 8003830:	428a      	cmp	r2, r1
 8003832:	d803      	bhi.n	800383c <main+0x574>
 8003834:	2200      	movs	r2, #0
 8003836:	49a4      	ldr	r1, [pc, #656]	; (8003ac8 <main+0x800>)
 8003838:	601a      	str	r2, [r3, #0]
 800383a:	700a      	strb	r2, [r1, #0]
 800383c:	681a      	ldr	r2, [r3, #0]
 800383e:	0011      	movs	r1, r2
 8003840:	22fa      	movs	r2, #250	; 0xfa
 8003842:	00d2      	lsls	r2, r2, #3
 8003844:	4291      	cmp	r1, r2
 8003846:	dd00      	ble.n	800384a <main+0x582>
 8003848:	601a      	str	r2, [r3, #0]
 800384a:	681a      	ldr	r2, [r3, #0]
 800384c:	4ba6      	ldr	r3, [pc, #664]	; (8003ae8 <main+0x820>)
 800384e:	6819      	ldr	r1, [r3, #0]
 8003850:	1a50      	subs	r0, r2, r1
 8003852:	2819      	cmp	r0, #25
 8003854:	dc00      	bgt.n	8003858 <main+0x590>
 8003856:	e1d7      	b.n	8003c08 <main+0x940>
 8003858:	3105      	adds	r1, #5
 800385a:	6019      	str	r1, [r3, #0]
 800385c:	6819      	ldr	r1, [r3, #0]
 800385e:	428a      	cmp	r2, r1
 8003860:	dc00      	bgt.n	8003864 <main+0x59c>
 8003862:	601a      	str	r2, [r3, #0]
 8003864:	2314      	movs	r3, #20
 8003866:	4da1      	ldr	r5, [pc, #644]	; (8003aec <main+0x824>)
 8003868:	9300      	str	r3, [sp, #0]
 800386a:	4aa1      	ldr	r2, [pc, #644]	; (8003af0 <main+0x828>)
 800386c:	3b12      	subs	r3, #18
 800386e:	2164      	movs	r1, #100	; 0x64
 8003870:	6828      	ldr	r0, [r5, #0]
 8003872:	f7fe fe7d 	bl	8002570 <map>
 8003876:	4b9f      	ldr	r3, [pc, #636]	; (8003af4 <main+0x82c>)
 8003878:	4c9f      	ldr	r4, [pc, #636]	; (8003af8 <main+0x830>)
 800387a:	7018      	strb	r0, [r3, #0]
 800387c:	7823      	ldrb	r3, [r4, #0]
 800387e:	2b00      	cmp	r3, #0
 8003880:	d104      	bne.n	800388c <main+0x5c4>
 8003882:	200a      	movs	r0, #10
 8003884:	f7fc fdfc 	bl	8000480 <HAL_Delay>
 8003888:	f7ff fa7c 	bl	8002d84 <detectInput>
 800388c:	4e9b      	ldr	r6, [pc, #620]	; (8003afc <main+0x834>)
 800388e:	4f96      	ldr	r7, [pc, #600]	; (8003ae8 <main+0x820>)
 8003890:	7833      	ldrb	r3, [r6, #0]
 8003892:	2b00      	cmp	r3, #0
 8003894:	d11e      	bne.n	80038d4 <main+0x60c>
 8003896:	7823      	ldrb	r3, [r4, #0]
 8003898:	9303      	str	r3, [sp, #12]
 800389a:	2b01      	cmp	r3, #1
 800389c:	d113      	bne.n	80038c6 <main+0x5fe>
 800389e:	683b      	ldr	r3, [r7, #0]
 80038a0:	2b00      	cmp	r3, #0
 80038a2:	d110      	bne.n	80038c6 <main+0x5fe>
 80038a4:	4c96      	ldr	r4, [pc, #600]	; (8003b00 <main+0x838>)
 80038a6:	9802      	ldr	r0, [sp, #8]
 80038a8:	6823      	ldr	r3, [r4, #0]
 80038aa:	3301      	adds	r3, #1
 80038ac:	6023      	str	r3, [r4, #0]
 80038ae:	f7fc fde7 	bl	8000480 <HAL_Delay>
 80038b2:	23fa      	movs	r3, #250	; 0xfa
 80038b4:	6822      	ldr	r2, [r4, #0]
 80038b6:	009b      	lsls	r3, r3, #2
 80038b8:	429a      	cmp	r2, r3
 80038ba:	dd04      	ble.n	80038c6 <main+0x5fe>
 80038bc:	466b      	mov	r3, sp
 80038be:	7b1b      	ldrb	r3, [r3, #12]
 80038c0:	7033      	strb	r3, [r6, #0]
 80038c2:	f7ff fa33 	bl	8002d2c <playInputTune>
 80038c6:	4b88      	ldr	r3, [pc, #544]	; (8003ae8 <main+0x820>)
 80038c8:	681b      	ldr	r3, [r3, #0]
 80038ca:	2b01      	cmp	r3, #1
 80038cc:	dd02      	ble.n	80038d4 <main+0x60c>
 80038ce:	2200      	movs	r2, #0
 80038d0:	4b8b      	ldr	r3, [pc, #556]	; (8003b00 <main+0x838>)
 80038d2:	601a      	str	r2, [r3, #0]
 80038d4:	4b84      	ldr	r3, [pc, #528]	; (8003ae8 <main+0x820>)
 80038d6:	681b      	ldr	r3, [r3, #0]
 80038d8:	2b2f      	cmp	r3, #47	; 0x2f
 80038da:	dd2d      	ble.n	8003938 <main+0x670>
 80038dc:	7832      	ldrb	r2, [r6, #0]
 80038de:	2a01      	cmp	r2, #1
 80038e0:	d12a      	bne.n	8003938 <main+0x670>
 80038e2:	2000      	movs	r0, #0
 80038e4:	4978      	ldr	r1, [pc, #480]	; (8003ac8 <main+0x800>)
 80038e6:	105b      	asrs	r3, r3, #1
 80038e8:	7008      	strb	r0, [r1, #0]
 80038ea:	4986      	ldr	r1, [pc, #536]	; (8003b04 <main+0x83c>)
 80038ec:	3b0a      	subs	r3, #10
 80038ee:	600a      	str	r2, [r1, #0]
 80038f0:	497b      	ldr	r1, [pc, #492]	; (8003ae0 <main+0x818>)
 80038f2:	4a85      	ldr	r2, [pc, #532]	; (8003b08 <main+0x840>)
 80038f4:	6809      	ldr	r1, [r1, #0]
 80038f6:	6013      	str	r3, [r2, #0]
 80038f8:	290e      	cmp	r1, #14
 80038fa:	dc09      	bgt.n	8003910 <main+0x648>
 80038fc:	2b45      	cmp	r3, #69	; 0x45
 80038fe:	dc01      	bgt.n	8003904 <main+0x63c>
 8003900:	2346      	movs	r3, #70	; 0x46
 8003902:	6013      	str	r3, [r2, #0]
 8003904:	23c8      	movs	r3, #200	; 0xc8
 8003906:	6811      	ldr	r1, [r2, #0]
 8003908:	005b      	lsls	r3, r3, #1
 800390a:	4299      	cmp	r1, r3
 800390c:	dd00      	ble.n	8003910 <main+0x648>
 800390e:	6013      	str	r3, [r2, #0]
 8003910:	4b7e      	ldr	r3, [pc, #504]	; (8003b0c <main+0x844>)
 8003912:	681b      	ldr	r3, [r3, #0]
 8003914:	2b00      	cmp	r3, #0
 8003916:	d00f      	beq.n	8003938 <main+0x670>
 8003918:	4b7b      	ldr	r3, [pc, #492]	; (8003b08 <main+0x840>)
 800391a:	497d      	ldr	r1, [pc, #500]	; (8003b10 <main+0x848>)
 800391c:	6818      	ldr	r0, [r3, #0]
 800391e:	4288      	cmp	r0, r1
 8003920:	dd00      	ble.n	8003924 <main+0x65c>
 8003922:	6019      	str	r1, [r3, #0]
 8003924:	6819      	ldr	r1, [r3, #0]
 8003926:	292b      	cmp	r1, #43	; 0x2b
 8003928:	dc01      	bgt.n	800392e <main+0x666>
 800392a:	212c      	movs	r1, #44	; 0x2c
 800392c:	6019      	str	r1, [r3, #0]
 800392e:	6812      	ldr	r2, [r2, #0]
 8003930:	4b78      	ldr	r3, [pc, #480]	; (8003b14 <main+0x84c>)
 8003932:	635a      	str	r2, [r3, #52]	; 0x34
 8003934:	639a      	str	r2, [r3, #56]	; 0x38
 8003936:	63da      	str	r2, [r3, #60]	; 0x3c
 8003938:	4a77      	ldr	r2, [pc, #476]	; (8003b18 <main+0x850>)
 800393a:	6813      	ldr	r3, [r2, #0]
 800393c:	3301      	adds	r3, #1
 800393e:	6013      	str	r3, [r2, #0]
 8003940:	4a76      	ldr	r2, [pc, #472]	; (8003b1c <main+0x854>)
 8003942:	6812      	ldr	r2, [r2, #0]
 8003944:	4293      	cmp	r3, r2
 8003946:	dd08      	ble.n	800395a <main+0x692>
 8003948:	2300      	movs	r3, #0
 800394a:	4a6d      	ldr	r2, [pc, #436]	; (8003b00 <main+0x838>)
 800394c:	603b      	str	r3, [r7, #0]
 800394e:	6013      	str	r3, [r2, #0]
 8003950:	466a      	mov	r2, sp
 8003952:	7033      	strb	r3, [r6, #0]
 8003954:	7a12      	ldrb	r2, [r2, #8]
 8003956:	4b72      	ldr	r3, [pc, #456]	; (8003b20 <main+0x858>)
 8003958:	701a      	strb	r2, [r3, #0]
 800395a:	4b63      	ldr	r3, [pc, #396]	; (8003ae8 <main+0x820>)
 800395c:	4e69      	ldr	r6, [pc, #420]	; (8003b04 <main+0x83c>)
 800395e:	681b      	ldr	r3, [r3, #0]
 8003960:	4c69      	ldr	r4, [pc, #420]	; (8003b08 <main+0x840>)
 8003962:	2b2f      	cmp	r3, #47	; 0x2f
 8003964:	dc31      	bgt.n	80039ca <main+0x702>
 8003966:	2300      	movs	r3, #0
 8003968:	4f6e      	ldr	r7, [pc, #440]	; (8003b24 <main+0x85c>)
 800396a:	6033      	str	r3, [r6, #0]
 800396c:	683b      	ldr	r3, [r7, #0]
 800396e:	2b00      	cmp	r3, #0
 8003970:	d105      	bne.n	800397e <main+0x6b6>
 8003972:	4b55      	ldr	r3, [pc, #340]	; (8003ac8 <main+0x800>)
 8003974:	781b      	ldrb	r3, [r3, #0]
 8003976:	2b00      	cmp	r3, #0
 8003978:	d101      	bne.n	800397e <main+0x6b6>
 800397a:	f7fe ffcd 	bl	8002918 <allOff>
 800397e:	2300      	movs	r3, #0
 8003980:	6023      	str	r3, [r4, #0]
 8003982:	683b      	ldr	r3, [r7, #0]
 8003984:	2b00      	cmp	r3, #0
 8003986:	d103      	bne.n	8003990 <main+0x6c8>
 8003988:	4b67      	ldr	r3, [pc, #412]	; (8003b28 <main+0x860>)
 800398a:	681b      	ldr	r3, [r3, #0]
 800398c:	2b00      	cmp	r3, #0
 800398e:	d003      	beq.n	8003998 <main+0x6d0>
 8003990:	f7fe ffd0 	bl	8002934 <fullBrake>
 8003994:	2300      	movs	r3, #0
 8003996:	6023      	str	r3, [r4, #0]
 8003998:	4b64      	ldr	r3, [pc, #400]	; (8003b2c <main+0x864>)
 800399a:	781b      	ldrb	r3, [r3, #0]
 800399c:	2b00      	cmp	r3, #0
 800399e:	d008      	beq.n	80039b2 <main+0x6ea>
 80039a0:	4b49      	ldr	r3, [pc, #292]	; (8003ac8 <main+0x800>)
 80039a2:	781b      	ldrb	r3, [r3, #0]
 80039a4:	2b00      	cmp	r3, #0
 80039a6:	d004      	beq.n	80039b2 <main+0x6ea>
 80039a8:	4b61      	ldr	r3, [pc, #388]	; (8003b30 <main+0x868>)
 80039aa:	681b      	ldr	r3, [r3, #0]
 80039ac:	6023      	str	r3, [r4, #0]
 80039ae:	f7fe ffcf 	bl	8002950 <proBrake>
 80039b2:	6822      	ldr	r2, [r4, #0]
 80039b4:	4b57      	ldr	r3, [pc, #348]	; (8003b14 <main+0x84c>)
 80039b6:	635a      	str	r2, [r3, #52]	; 0x34
 80039b8:	639a      	str	r2, [r3, #56]	; 0x38
 80039ba:	63da      	str	r2, [r3, #60]	; 0x3c
 80039bc:	4b5d      	ldr	r3, [pc, #372]	; (8003b34 <main+0x86c>)
 80039be:	682a      	ldr	r2, [r5, #0]
 80039c0:	429a      	cmp	r2, r3
 80039c2:	dd02      	ble.n	80039ca <main+0x702>
 80039c4:	485c      	ldr	r0, [pc, #368]	; (8003b38 <main+0x870>)
 80039c6:	f7fc ffb7 	bl	8000938 <HAL_COMP_Stop_IT>
 80039ca:	4b45      	ldr	r3, [pc, #276]	; (8003ae0 <main+0x818>)
 80039cc:	681a      	ldr	r2, [r3, #0]
 80039ce:	4b5b      	ldr	r3, [pc, #364]	; (8003b3c <main+0x874>)
 80039d0:	2a63      	cmp	r2, #99	; 0x63
 80039d2:	dd04      	ble.n	80039de <main+0x716>
 80039d4:	4a5a      	ldr	r2, [pc, #360]	; (8003b40 <main+0x878>)
 80039d6:	6829      	ldr	r1, [r5, #0]
 80039d8:	4291      	cmp	r1, r2
 80039da:	dc00      	bgt.n	80039de <main+0x716>
 80039dc:	e116      	b.n	8003c0c <main+0x944>
 80039de:	220f      	movs	r2, #15
 80039e0:	210a      	movs	r1, #10
 80039e2:	601a      	str	r2, [r3, #0]
 80039e4:	4a57      	ldr	r2, [pc, #348]	; (8003b44 <main+0x87c>)
 80039e6:	7011      	strb	r1, [r2, #0]
 80039e8:	682a      	ldr	r2, [r5, #0]
 80039ea:	2ac7      	cmp	r2, #199	; 0xc7
 80039ec:	dc09      	bgt.n	8003a02 <main+0x73a>
 80039ee:	22fa      	movs	r2, #250	; 0xfa
 80039f0:	6821      	ldr	r1, [r4, #0]
 80039f2:	0052      	lsls	r2, r2, #1
 80039f4:	4291      	cmp	r1, r2
 80039f6:	dd04      	ble.n	8003a02 <main+0x73a>
 80039f8:	9a02      	ldr	r2, [sp, #8]
 80039fa:	601a      	str	r2, [r3, #0]
 80039fc:	2200      	movs	r2, #0
 80039fe:	4b51      	ldr	r3, [pc, #324]	; (8003b44 <main+0x87c>)
 8003a00:	701a      	strb	r2, [r3, #0]
 8003a02:	6833      	ldr	r3, [r6, #0]
 8003a04:	4e32      	ldr	r6, [pc, #200]	; (8003ad0 <main+0x808>)
 8003a06:	2b01      	cmp	r3, #1
 8003a08:	d10b      	bne.n	8003a22 <main+0x75a>
 8003a0a:	4b40      	ldr	r3, [pc, #256]	; (8003b0c <main+0x844>)
 8003a0c:	681b      	ldr	r3, [r3, #0]
 8003a0e:	2b00      	cmp	r3, #0
 8003a10:	d107      	bne.n	8003a22 <main+0x75a>
 8003a12:	2202      	movs	r2, #2
 8003a14:	494c      	ldr	r1, [pc, #304]	; (8003b48 <main+0x880>)
 8003a16:	6033      	str	r3, [r6, #0]
 8003a18:	600a      	str	r2, [r1, #0]
 8003a1a:	494c      	ldr	r1, [pc, #304]	; (8003b4c <main+0x884>)
 8003a1c:	600a      	str	r2, [r1, #0]
 8003a1e:	f7ff f825 	bl	8002a6c <startMotor>
 8003a22:	222c      	movs	r2, #44	; 0x2c
 8003a24:	6821      	ldr	r1, [r4, #0]
 8003a26:	32ff      	adds	r2, #255	; 0xff
 8003a28:	4b2a      	ldr	r3, [pc, #168]	; (8003ad4 <main+0x80c>)
 8003a2a:	4291      	cmp	r1, r2
 8003a2c:	dd00      	ble.n	8003a30 <main+0x768>
 8003a2e:	e0f2      	b.n	8003c16 <main+0x94e>
 8003a30:	22fa      	movs	r2, #250	; 0xfa
 8003a32:	0112      	lsls	r2, r2, #4
 8003a34:	4f27      	ldr	r7, [pc, #156]	; (8003ad4 <main+0x80c>)
 8003a36:	601a      	str	r2, [r3, #0]
 8003a38:	6833      	ldr	r3, [r6, #0]
 8003a3a:	683a      	ldr	r2, [r7, #0]
 8003a3c:	3301      	adds	r3, #1
 8003a3e:	6033      	str	r3, [r6, #0]
 8003a40:	4293      	cmp	r3, r2
 8003a42:	dc00      	bgt.n	8003a46 <main+0x77e>
 8003a44:	e644      	b.n	80036d0 <main+0x408>
 8003a46:	2500      	movs	r5, #0
 8003a48:	4b41      	ldr	r3, [pc, #260]	; (8003b50 <main+0x888>)
 8003a4a:	483b      	ldr	r0, [pc, #236]	; (8003b38 <main+0x870>)
 8003a4c:	701d      	strb	r5, [r3, #0]
 8003a4e:	4b41      	ldr	r3, [pc, #260]	; (8003b54 <main+0x88c>)
 8003a50:	601d      	str	r5, [r3, #0]
 8003a52:	f7fc ff71 	bl	8000938 <HAL_COMP_Stop_IT>
 8003a56:	4b2d      	ldr	r3, [pc, #180]	; (8003b0c <main+0x844>)
 8003a58:	6025      	str	r5, [r4, #0]
 8003a5a:	601d      	str	r5, [r3, #0]
 8003a5c:	683b      	ldr	r3, [r7, #0]
 8003a5e:	3301      	adds	r3, #1
 8003a60:	6033      	str	r3, [r6, #0]
 8003a62:	e635      	b.n	80036d0 <main+0x408>
 8003a64:	2b07      	cmp	r3, #7
 8003a66:	d102      	bne.n	8003a6e <main+0x7a6>
 8003a68:	2200      	movs	r2, #0
 8003a6a:	4b0f      	ldr	r3, [pc, #60]	; (8003aa8 <main+0x7e0>)
 8003a6c:	e673      	b.n	8003756 <main+0x48e>
 8003a6e:	2b08      	cmp	r3, #8
 8003a70:	d102      	bne.n	8003a78 <main+0x7b0>
 8003a72:	4b0d      	ldr	r3, [pc, #52]	; (8003aa8 <main+0x7e0>)
 8003a74:	9a02      	ldr	r2, [sp, #8]
 8003a76:	e66e      	b.n	8003756 <main+0x48e>
 8003a78:	2b09      	cmp	r3, #9
 8003a7a:	d105      	bne.n	8003a88 <main+0x7c0>
 8003a7c:	2300      	movs	r3, #0
 8003a7e:	4a0c      	ldr	r2, [pc, #48]	; (8003ab0 <main+0x7e8>)
 8003a80:	6013      	str	r3, [r2, #0]
 8003a82:	4a1e      	ldr	r2, [pc, #120]	; (8003afc <main+0x834>)
 8003a84:	7013      	strb	r3, [r2, #0]
 8003a86:	e694      	b.n	80037b2 <main+0x4ea>
 8003a88:	2b0a      	cmp	r3, #10
 8003a8a:	d106      	bne.n	8003a9a <main+0x7d2>
 8003a8c:	4b08      	ldr	r3, [pc, #32]	; (8003ab0 <main+0x7e8>)
 8003a8e:	9a02      	ldr	r2, [sp, #8]
 8003a90:	601a      	str	r2, [r3, #0]
 8003a92:	2200      	movs	r2, #0
 8003a94:	4b19      	ldr	r3, [pc, #100]	; (8003afc <main+0x834>)
 8003a96:	701a      	strb	r2, [r3, #0]
 8003a98:	e68b      	b.n	80037b2 <main+0x4ea>
 8003a9a:	2b0c      	cmp	r3, #12
 8003a9c:	d000      	beq.n	8003aa0 <main+0x7d8>
 8003a9e:	e688      	b.n	80037b2 <main+0x4ea>
 8003aa0:	f7fe fd78 	bl	8002594 <storeEEpromConfig>
 8003aa4:	e7fe      	b.n	8003aa4 <main+0x7dc>
 8003aa6:	46c0      	nop			; (mov r8, r8)
 8003aa8:	200000bc 	.word	0x200000bc
 8003aac:	20000020 	.word	0x20000020
 8003ab0:	200000a8 	.word	0x200000a8
 8003ab4:	2000011c 	.word	0x2000011c
 8003ab8:	20000134 	.word	0x20000134
 8003abc:	20000430 	.word	0x20000430
 8003ac0:	20000100 	.word	0x20000100
 8003ac4:	0000044c 	.word	0x0000044c
 8003ac8:	20000123 	.word	0x20000123
 8003acc:	fffffbe6 	.word	0xfffffbe6
 8003ad0:	20000160 	.word	0x20000160
 8003ad4:	2000005c 	.word	0x2000005c
 8003ad8:	20000058 	.word	0x20000058
 8003adc:	2000014c 	.word	0x2000014c
 8003ae0:	20000260 	.word	0x20000260
 8003ae4:	fffffcdf 	.word	0xfffffcdf
 8003ae8:	2000010c 	.word	0x2000010c
 8003aec:	200000ac 	.word	0x200000ac
 8003af0:	00001388 	.word	0x00001388
 8003af4:	20000006 	.word	0x20000006
 8003af8:	20000110 	.word	0x20000110
 8003afc:	2000009c 	.word	0x2000009c
 8003b00:	200000a0 	.word	0x200000a0
 8003b04:	20000148 	.word	0x20000148
 8003b08:	20000010 	.word	0x20000010
 8003b0c:	20000138 	.word	0x20000138
 8003b10:	000003e6 	.word	0x000003e6
 8003b14:	40012c00 	.word	0x40012c00
 8003b18:	20000144 	.word	0x20000144
 8003b1c:	20000038 	.word	0x20000038
 8003b20:	20000108 	.word	0x20000108
 8003b24:	20000008 	.word	0x20000008
 8003b28:	20000150 	.word	0x20000150
 8003b2c:	20000122 	.word	0x20000122
 8003b30:	2000002c 	.word	0x2000002c
 8003b34:	00007530 	.word	0x00007530
 8003b38:	200001f0 	.word	0x200001f0
 8003b3c:	20000014 	.word	0x20000014
 8003b40:	00002710 	.word	0x00002710
 8003b44:	20000018 	.word	0x20000018
 8003b48:	20000054 	.word	0x20000054
 8003b4c:	2000004c 	.word	0x2000004c
 8003b50:	200000a4 	.word	0x200000a4
 8003b54:	2000013c 	.word	0x2000013c
 8003b58:	4830      	ldr	r0, [pc, #192]	; (8003c1c <main+0x954>)
 8003b5a:	4282      	cmp	r2, r0
 8003b5c:	dd00      	ble.n	8003b60 <main+0x898>
 8003b5e:	e651      	b.n	8003804 <main+0x53c>
 8003b60:	482f      	ldr	r0, [pc, #188]	; (8003c20 <main+0x958>)
 8003b62:	4d30      	ldr	r5, [pc, #192]	; (8003c24 <main+0x95c>)
 8003b64:	6806      	ldr	r6, [r0, #0]
 8003b66:	4830      	ldr	r0, [pc, #192]	; (8003c28 <main+0x960>)
 8003b68:	1b8f      	subs	r7, r1, r6
 8003b6a:	4684      	mov	ip, r0
 8003b6c:	6828      	ldr	r0, [r5, #0]
 8003b6e:	4287      	cmp	r7, r0
 8003b70:	d103      	bne.n	8003b7a <main+0x8b2>
 8003b72:	4660      	mov	r0, ip
 8003b74:	601c      	str	r4, [r3, #0]
 8003b76:	7001      	strb	r1, [r0, #0]
 8003b78:	602e      	str	r6, [r5, #0]
 8003b7a:	4661      	mov	r1, ip
 8003b7c:	7809      	ldrb	r1, [r1, #0]
 8003b7e:	2900      	cmp	r1, #0
 8003b80:	d000      	beq.n	8003b84 <main+0x8bc>
 8003b82:	e63f      	b.n	8003804 <main+0x53c>
 8003b84:	20c8      	movs	r0, #200	; 0xc8
 8003b86:	0080      	lsls	r0, r0, #2
 8003b88:	1a80      	subs	r0, r0, r2
 8003b8a:	3103      	adds	r1, #3
 8003b8c:	e638      	b.n	8003800 <main+0x538>
 8003b8e:	7800      	ldrb	r0, [r0, #0]
 8003b90:	2800      	cmp	r0, #0
 8003b92:	d103      	bne.n	8003b9c <main+0x8d4>
 8003b94:	4825      	ldr	r0, [pc, #148]	; (8003c2c <main+0x964>)
 8003b96:	7800      	ldrb	r0, [r0, #0]
 8003b98:	2800      	cmp	r0, #0
 8003b9a:	d033      	beq.n	8003c04 <main+0x93c>
 8003b9c:	2900      	cmp	r1, #0
 8003b9e:	d031      	beq.n	8003c04 <main+0x93c>
 8003ba0:	6812      	ldr	r2, [r2, #0]
 8003ba2:	4923      	ldr	r1, [pc, #140]	; (8003c30 <main+0x968>)
 8003ba4:	428a      	cmp	r2, r1
 8003ba6:	dd0f      	ble.n	8003bc8 <main+0x900>
 8003ba8:	481e      	ldr	r0, [pc, #120]	; (8003c24 <main+0x95c>)
 8003baa:	4c1d      	ldr	r4, [pc, #116]	; (8003c20 <main+0x958>)
 8003bac:	6801      	ldr	r1, [r0, #0]
 8003bae:	6824      	ldr	r4, [r4, #0]
 8003bb0:	42a1      	cmp	r1, r4
 8003bb2:	d105      	bne.n	8003bc0 <main+0x8f8>
 8003bb4:	9c02      	ldr	r4, [sp, #8]
 8003bb6:	1a61      	subs	r1, r4, r1
 8003bb8:	6001      	str	r1, [r0, #0]
 8003bba:	2000      	movs	r0, #0
 8003bbc:	491d      	ldr	r1, [pc, #116]	; (8003c34 <main+0x96c>)
 8003bbe:	6008      	str	r0, [r1, #0]
 8003bc0:	491d      	ldr	r1, [pc, #116]	; (8003c38 <main+0x970>)
 8003bc2:	1851      	adds	r1, r2, r1
 8003bc4:	0049      	lsls	r1, r1, #1
 8003bc6:	6019      	str	r1, [r3, #0]
 8003bc8:	481c      	ldr	r0, [pc, #112]	; (8003c3c <main+0x974>)
 8003bca:	1e51      	subs	r1, r2, #1
 8003bcc:	4281      	cmp	r1, r0
 8003bce:	d80f      	bhi.n	8003bf0 <main+0x928>
 8003bd0:	4913      	ldr	r1, [pc, #76]	; (8003c20 <main+0x958>)
 8003bd2:	6808      	ldr	r0, [r1, #0]
 8003bd4:	9902      	ldr	r1, [sp, #8]
 8003bd6:	1a0c      	subs	r4, r1, r0
 8003bd8:	4912      	ldr	r1, [pc, #72]	; (8003c24 <main+0x95c>)
 8003bda:	680d      	ldr	r5, [r1, #0]
 8003bdc:	42ac      	cmp	r4, r5
 8003bde:	d103      	bne.n	8003be8 <main+0x920>
 8003be0:	2500      	movs	r5, #0
 8003be2:	4c14      	ldr	r4, [pc, #80]	; (8003c34 <main+0x96c>)
 8003be4:	6008      	str	r0, [r1, #0]
 8003be6:	6025      	str	r5, [r4, #0]
 8003be8:	0011      	movs	r1, r2
 8003bea:	395a      	subs	r1, #90	; 0x5a
 8003bec:	0049      	lsls	r1, r1, #1
 8003bee:	6019      	str	r1, [r3, #0]
 8003bf0:	4913      	ldr	r1, [pc, #76]	; (8003c40 <main+0x978>)
 8003bf2:	1851      	adds	r1, r2, r1
 8003bf4:	2931      	cmp	r1, #49	; 0x31
 8003bf6:	d902      	bls.n	8003bfe <main+0x936>
 8003bf8:	2a78      	cmp	r2, #120	; 0x78
 8003bfa:	dd00      	ble.n	8003bfe <main+0x936>
 8003bfc:	e61e      	b.n	800383c <main+0x574>
 8003bfe:	2200      	movs	r2, #0
 8003c00:	601a      	str	r2, [r3, #0]
 8003c02:	e61b      	b.n	800383c <main+0x574>
 8003c04:	6812      	ldr	r2, [r2, #0]
 8003c06:	e7fb      	b.n	8003c00 <main+0x938>
 8003c08:	601a      	str	r2, [r3, #0]
 8003c0a:	e627      	b.n	800385c <main+0x594>
 8003c0c:	2203      	movs	r2, #3
 8003c0e:	490d      	ldr	r1, [pc, #52]	; (8003c44 <main+0x97c>)
 8003c10:	601a      	str	r2, [r3, #0]
 8003c12:	700a      	strb	r2, [r1, #0]
 8003c14:	e6e8      	b.n	80039e8 <main+0x720>
 8003c16:	22fa      	movs	r2, #250	; 0xfa
 8003c18:	00d2      	lsls	r2, r2, #3
 8003c1a:	e70b      	b.n	8003a34 <main+0x76c>
 8003c1c:	0000031f 	.word	0x0000031f
 8003c20:	200000bc 	.word	0x200000bc
 8003c24:	20000020 	.word	0x20000020
 8003c28:	20000123 	.word	0x20000123
 8003c2c:	20000100 	.word	0x20000100
 8003c30:	00000449 	.word	0x00000449
 8003c34:	20000260 	.word	0x20000260
 8003c38:	fffffbe6 	.word	0xfffffbe6
 8003c3c:	00000416 	.word	0x00000416
 8003c40:	fffffbe8 	.word	0xfffffbe8
 8003c44:	20000018 	.word	0x20000018

08003c48 <_Error_Handler>:
 8003c48:	e7fe      	b.n	8003c48 <_Error_Handler>
	...

08003c4c <HAL_MspInit>:
 8003c4c:	b507      	push	{r0, r1, r2, lr}
 8003c4e:	2001      	movs	r0, #1
 8003c50:	4a0c      	ldr	r2, [pc, #48]	; (8003c84 <HAL_MspInit+0x38>)
 8003c52:	6991      	ldr	r1, [r2, #24]
 8003c54:	4301      	orrs	r1, r0
 8003c56:	6191      	str	r1, [r2, #24]
 8003c58:	6993      	ldr	r3, [r2, #24]
 8003c5a:	2200      	movs	r2, #0
 8003c5c:	4003      	ands	r3, r0
 8003c5e:	0011      	movs	r1, r2
 8003c60:	9301      	str	r3, [sp, #4]
 8003c62:	3806      	subs	r0, #6
 8003c64:	9b01      	ldr	r3, [sp, #4]
 8003c66:	f7fc fea9 	bl	80009bc <HAL_NVIC_SetPriority>
 8003c6a:	2200      	movs	r2, #0
 8003c6c:	2002      	movs	r0, #2
 8003c6e:	0011      	movs	r1, r2
 8003c70:	4240      	negs	r0, r0
 8003c72:	f7fc fea3 	bl	80009bc <HAL_NVIC_SetPriority>
 8003c76:	2200      	movs	r2, #0
 8003c78:	2001      	movs	r0, #1
 8003c7a:	0011      	movs	r1, r2
 8003c7c:	4240      	negs	r0, r0
 8003c7e:	f7fc fe9d 	bl	80009bc <HAL_NVIC_SetPriority>
 8003c82:	bd07      	pop	{r0, r1, r2, pc}
 8003c84:	40021000 	.word	0x40021000

08003c88 <HAL_ADC_MspInit>:
 8003c88:	b5f0      	push	{r4, r5, r6, r7, lr}
 8003c8a:	4b20      	ldr	r3, [pc, #128]	; (8003d0c <HAL_ADC_MspInit+0x84>)
 8003c8c:	6802      	ldr	r2, [r0, #0]
 8003c8e:	b087      	sub	sp, #28
 8003c90:	0005      	movs	r5, r0
 8003c92:	429a      	cmp	r2, r3
 8003c94:	d137      	bne.n	8003d06 <HAL_ADC_MspInit+0x7e>
 8003c96:	2680      	movs	r6, #128	; 0x80
 8003c98:	4b1d      	ldr	r3, [pc, #116]	; (8003d10 <HAL_ADC_MspInit+0x88>)
 8003c9a:	00b6      	lsls	r6, r6, #2
 8003c9c:	699a      	ldr	r2, [r3, #24]
 8003c9e:	2090      	movs	r0, #144	; 0x90
 8003ca0:	4332      	orrs	r2, r6
 8003ca2:	619a      	str	r2, [r3, #24]
 8003ca4:	699b      	ldr	r3, [r3, #24]
 8003ca6:	2700      	movs	r7, #0
 8003ca8:	4033      	ands	r3, r6
 8003caa:	9300      	str	r3, [sp, #0]
 8003cac:	9b00      	ldr	r3, [sp, #0]
 8003cae:	2348      	movs	r3, #72	; 0x48
 8003cb0:	05c0      	lsls	r0, r0, #23
 8003cb2:	9301      	str	r3, [sp, #4]
 8003cb4:	a901      	add	r1, sp, #4
 8003cb6:	3b45      	subs	r3, #69	; 0x45
 8003cb8:	9302      	str	r3, [sp, #8]
 8003cba:	9703      	str	r7, [sp, #12]
 8003cbc:	f7fd f8aa 	bl	8000e14 <HAL_GPIO_Init>
 8003cc0:	4c14      	ldr	r4, [pc, #80]	; (8003d14 <HAL_ADC_MspInit+0x8c>)
 8003cc2:	4b15      	ldr	r3, [pc, #84]	; (8003d18 <HAL_ADC_MspInit+0x90>)
 8003cc4:	0020      	movs	r0, r4
 8003cc6:	6023      	str	r3, [r4, #0]
 8003cc8:	2380      	movs	r3, #128	; 0x80
 8003cca:	60e3      	str	r3, [r4, #12]
 8003ccc:	2380      	movs	r3, #128	; 0x80
 8003cce:	011b      	lsls	r3, r3, #4
 8003cd0:	6163      	str	r3, [r4, #20]
 8003cd2:	2320      	movs	r3, #32
 8003cd4:	61a3      	str	r3, [r4, #24]
 8003cd6:	2380      	movs	r3, #128	; 0x80
 8003cd8:	015b      	lsls	r3, r3, #5
 8003cda:	6067      	str	r7, [r4, #4]
 8003cdc:	60a7      	str	r7, [r4, #8]
 8003cde:	6126      	str	r6, [r4, #16]
 8003ce0:	61e3      	str	r3, [r4, #28]
 8003ce2:	f7fc fed3 	bl	8000a8c <HAL_DMA_Init>
 8003ce6:	42b8      	cmp	r0, r7
 8003ce8:	d003      	beq.n	8003cf2 <HAL_ADC_MspInit+0x6a>
 8003cea:	216b      	movs	r1, #107	; 0x6b
 8003cec:	480b      	ldr	r0, [pc, #44]	; (8003d1c <HAL_ADC_MspInit+0x94>)
 8003cee:	f7ff ffab 	bl	8003c48 <_Error_Handler>
 8003cf2:	2200      	movs	r2, #0
 8003cf4:	200c      	movs	r0, #12
 8003cf6:	63ec      	str	r4, [r5, #60]	; 0x3c
 8003cf8:	0011      	movs	r1, r2
 8003cfa:	6265      	str	r5, [r4, #36]	; 0x24
 8003cfc:	f7fc fe5e 	bl	80009bc <HAL_NVIC_SetPriority>
 8003d00:	200c      	movs	r0, #12
 8003d02:	f7fc fe8b 	bl	8000a1c <HAL_NVIC_EnableIRQ>
 8003d06:	b007      	add	sp, #28
 8003d08:	bdf0      	pop	{r4, r5, r6, r7, pc}
 8003d0a:	46c0      	nop			; (mov r8, r8)
 8003d0c:	40012400 	.word	0x40012400
 8003d10:	40021000 	.word	0x40021000
 8003d14:	20000434 	.word	0x20000434
 8003d18:	40020008 	.word	0x40020008
 8003d1c:	08004064 	.word	0x08004064

08003d20 <HAL_COMP_MspInit>:
 8003d20:	b510      	push	{r4, lr}
 8003d22:	4b0d      	ldr	r3, [pc, #52]	; (8003d58 <HAL_COMP_MspInit+0x38>)
 8003d24:	6802      	ldr	r2, [r0, #0]
 8003d26:	b086      	sub	sp, #24
 8003d28:	429a      	cmp	r2, r3
 8003d2a:	d112      	bne.n	8003d52 <HAL_COMP_MspInit+0x32>
 8003d2c:	2322      	movs	r3, #34	; 0x22
 8003d2e:	2090      	movs	r0, #144	; 0x90
 8003d30:	2400      	movs	r4, #0
 8003d32:	9301      	str	r3, [sp, #4]
 8003d34:	a901      	add	r1, sp, #4
 8003d36:	3b1f      	subs	r3, #31
 8003d38:	05c0      	lsls	r0, r0, #23
 8003d3a:	9302      	str	r3, [sp, #8]
 8003d3c:	9403      	str	r4, [sp, #12]
 8003d3e:	f7fd f869 	bl	8000e14 <HAL_GPIO_Init>
 8003d42:	200c      	movs	r0, #12
 8003d44:	0022      	movs	r2, r4
 8003d46:	0021      	movs	r1, r4
 8003d48:	f7fc fe38 	bl	80009bc <HAL_NVIC_SetPriority>
 8003d4c:	200c      	movs	r0, #12
 8003d4e:	f7fc fe65 	bl	8000a1c <HAL_NVIC_EnableIRQ>
 8003d52:	b006      	add	sp, #24
 8003d54:	bd10      	pop	{r4, pc}
 8003d56:	46c0      	nop			; (mov r8, r8)
 8003d58:	4001001c 	.word	0x4001001c

08003d5c <HAL_TIM_Base_MspInit>:
 8003d5c:	b570      	push	{r4, r5, r6, lr}
 8003d5e:	6803      	ldr	r3, [r0, #0]
 8003d60:	4a39      	ldr	r2, [pc, #228]	; (8003e48 <HAL_TIM_Base_MspInit+0xec>)
 8003d62:	b088      	sub	sp, #32
 8003d64:	0005      	movs	r5, r0
 8003d66:	4293      	cmp	r3, r2
 8003d68:	d113      	bne.n	8003d92 <HAL_TIM_Base_MspInit+0x36>
 8003d6a:	2080      	movs	r0, #128	; 0x80
 8003d6c:	4a37      	ldr	r2, [pc, #220]	; (8003e4c <HAL_TIM_Base_MspInit+0xf0>)
 8003d6e:	0100      	lsls	r0, r0, #4
 8003d70:	6991      	ldr	r1, [r2, #24]
 8003d72:	4301      	orrs	r1, r0
 8003d74:	6191      	str	r1, [r2, #24]
 8003d76:	6993      	ldr	r3, [r2, #24]
 8003d78:	2200      	movs	r2, #0
 8003d7a:	4003      	ands	r3, r0
 8003d7c:	9300      	str	r3, [sp, #0]
 8003d7e:	200e      	movs	r0, #14
 8003d80:	0011      	movs	r1, r2
 8003d82:	9b00      	ldr	r3, [sp, #0]
 8003d84:	f7fc fe1a 	bl	80009bc <HAL_NVIC_SetPriority>
 8003d88:	200e      	movs	r0, #14
 8003d8a:	f7fc fe47 	bl	8000a1c <HAL_NVIC_EnableIRQ>
 8003d8e:	b008      	add	sp, #32
 8003d90:	bd70      	pop	{r4, r5, r6, pc}
 8003d92:	2280      	movs	r2, #128	; 0x80
 8003d94:	05d2      	lsls	r2, r2, #23
 8003d96:	4293      	cmp	r3, r2
 8003d98:	d10f      	bne.n	8003dba <HAL_TIM_Base_MspInit+0x5e>
 8003d9a:	2001      	movs	r0, #1
 8003d9c:	4a2b      	ldr	r2, [pc, #172]	; (8003e4c <HAL_TIM_Base_MspInit+0xf0>)
 8003d9e:	69d1      	ldr	r1, [r2, #28]
 8003da0:	4301      	orrs	r1, r0
 8003da2:	61d1      	str	r1, [r2, #28]
 8003da4:	69d3      	ldr	r3, [r2, #28]
 8003da6:	2200      	movs	r2, #0
 8003da8:	4003      	ands	r3, r0
 8003daa:	9301      	str	r3, [sp, #4]
 8003dac:	300e      	adds	r0, #14
 8003dae:	0011      	movs	r1, r2
 8003db0:	9b01      	ldr	r3, [sp, #4]
 8003db2:	f7fc fe03 	bl	80009bc <HAL_NVIC_SetPriority>
 8003db6:	200f      	movs	r0, #15
 8003db8:	e7e7      	b.n	8003d8a <HAL_TIM_Base_MspInit+0x2e>
 8003dba:	4a25      	ldr	r2, [pc, #148]	; (8003e50 <HAL_TIM_Base_MspInit+0xf4>)
 8003dbc:	4293      	cmp	r3, r2
 8003dbe:	d109      	bne.n	8003dd4 <HAL_TIM_Base_MspInit+0x78>
 8003dc0:	2002      	movs	r0, #2
 8003dc2:	4a22      	ldr	r2, [pc, #136]	; (8003e4c <HAL_TIM_Base_MspInit+0xf0>)
 8003dc4:	69d1      	ldr	r1, [r2, #28]
 8003dc6:	4301      	orrs	r1, r0
 8003dc8:	61d1      	str	r1, [r2, #28]
 8003dca:	69d3      	ldr	r3, [r2, #28]
 8003dcc:	4003      	ands	r3, r0
 8003dce:	9303      	str	r3, [sp, #12]
 8003dd0:	9b03      	ldr	r3, [sp, #12]
 8003dd2:	e7dc      	b.n	8003d8e <HAL_TIM_Base_MspInit+0x32>
 8003dd4:	4a1f      	ldr	r2, [pc, #124]	; (8003e54 <HAL_TIM_Base_MspInit+0xf8>)
 8003dd6:	4293      	cmp	r3, r2
 8003dd8:	d1d9      	bne.n	8003d8e <HAL_TIM_Base_MspInit+0x32>
 8003dda:	2080      	movs	r0, #128	; 0x80
 8003ddc:	4a1b      	ldr	r2, [pc, #108]	; (8003e4c <HAL_TIM_Base_MspInit+0xf0>)
 8003dde:	0240      	lsls	r0, r0, #9
 8003de0:	6991      	ldr	r1, [r2, #24]
 8003de2:	2600      	movs	r6, #0
 8003de4:	4301      	orrs	r1, r0
 8003de6:	6191      	str	r1, [r2, #24]
 8003de8:	6993      	ldr	r3, [r2, #24]
 8003dea:	a903      	add	r1, sp, #12
 8003dec:	4003      	ands	r3, r0
 8003dee:	9302      	str	r3, [sp, #8]
 8003df0:	9b02      	ldr	r3, [sp, #8]
 8003df2:	2090      	movs	r0, #144	; 0x90
 8003df4:	2304      	movs	r3, #4
 8003df6:	05c0      	lsls	r0, r0, #23
 8003df8:	9303      	str	r3, [sp, #12]
 8003dfa:	3b02      	subs	r3, #2
 8003dfc:	9304      	str	r3, [sp, #16]
 8003dfe:	9605      	str	r6, [sp, #20]
 8003e00:	9606      	str	r6, [sp, #24]
 8003e02:	9607      	str	r6, [sp, #28]
 8003e04:	f7fd f806 	bl	8000e14 <HAL_GPIO_Init>
 8003e08:	4c13      	ldr	r4, [pc, #76]	; (8003e58 <HAL_TIM_Base_MspInit+0xfc>)
 8003e0a:	4b14      	ldr	r3, [pc, #80]	; (8003e5c <HAL_TIM_Base_MspInit+0x100>)
 8003e0c:	0020      	movs	r0, r4
 8003e0e:	6023      	str	r3, [r4, #0]
 8003e10:	2380      	movs	r3, #128	; 0x80
 8003e12:	60e3      	str	r3, [r4, #12]
 8003e14:	18db      	adds	r3, r3, r3
 8003e16:	6123      	str	r3, [r4, #16]
 8003e18:	2380      	movs	r3, #128	; 0x80
 8003e1a:	011b      	lsls	r3, r3, #4
 8003e1c:	6163      	str	r3, [r4, #20]
 8003e1e:	2380      	movs	r3, #128	; 0x80
 8003e20:	019b      	lsls	r3, r3, #6
 8003e22:	6066      	str	r6, [r4, #4]
 8003e24:	60a6      	str	r6, [r4, #8]
 8003e26:	61a6      	str	r6, [r4, #24]
 8003e28:	61e3      	str	r3, [r4, #28]
 8003e2a:	f7fc fe2f 	bl	8000a8c <HAL_DMA_Init>
 8003e2e:	42b0      	cmp	r0, r6
 8003e30:	d004      	beq.n	8003e3c <HAL_TIM_Base_MspInit+0xe0>
 8003e32:	2124      	movs	r1, #36	; 0x24
 8003e34:	480a      	ldr	r0, [pc, #40]	; (8003e60 <HAL_TIM_Base_MspInit+0x104>)
 8003e36:	31ff      	adds	r1, #255	; 0xff
 8003e38:	f7ff ff06 	bl	8003c48 <_Error_Handler>
 8003e3c:	626c      	str	r4, [r5, #36]	; 0x24
 8003e3e:	622c      	str	r4, [r5, #32]
 8003e40:	63ac      	str	r4, [r5, #56]	; 0x38
 8003e42:	6265      	str	r5, [r4, #36]	; 0x24
 8003e44:	636c      	str	r4, [r5, #52]	; 0x34
 8003e46:	e7a2      	b.n	8003d8e <HAL_TIM_Base_MspInit+0x32>
 8003e48:	40012c00 	.word	0x40012c00
 8003e4c:	40021000 	.word	0x40021000
 8003e50:	40000400 	.word	0x40000400
 8003e54:	40014000 	.word	0x40014000
 8003e58:	20000368 	.word	0x20000368
 8003e5c:	40020058 	.word	0x40020058
 8003e60:	08004064 	.word	0x08004064

08003e64 <HAL_TIM_MspPostInit>:
 8003e64:	b530      	push	{r4, r5, lr}
 8003e66:	4b0f      	ldr	r3, [pc, #60]	; (8003ea4 <HAL_TIM_MspPostInit+0x40>)
 8003e68:	6802      	ldr	r2, [r0, #0]
 8003e6a:	b087      	sub	sp, #28
 8003e6c:	429a      	cmp	r2, r3
 8003e6e:	d117      	bne.n	8003ea0 <HAL_TIM_MspPostInit+0x3c>
 8003e70:	23f8      	movs	r3, #248	; 0xf8
 8003e72:	2090      	movs	r0, #144	; 0x90
 8003e74:	2402      	movs	r4, #2
 8003e76:	2500      	movs	r5, #0
 8003e78:	011b      	lsls	r3, r3, #4
 8003e7a:	a901      	add	r1, sp, #4
 8003e7c:	05c0      	lsls	r0, r0, #23
 8003e7e:	9301      	str	r3, [sp, #4]
 8003e80:	9402      	str	r4, [sp, #8]
 8003e82:	9503      	str	r5, [sp, #12]
 8003e84:	9504      	str	r5, [sp, #16]
 8003e86:	9405      	str	r4, [sp, #20]
 8003e88:	f7fc ffc4 	bl	8000e14 <HAL_GPIO_Init>
 8003e8c:	2303      	movs	r3, #3
 8003e8e:	a901      	add	r1, sp, #4
 8003e90:	4805      	ldr	r0, [pc, #20]	; (8003ea8 <HAL_TIM_MspPostInit+0x44>)
 8003e92:	9301      	str	r3, [sp, #4]
 8003e94:	9402      	str	r4, [sp, #8]
 8003e96:	9503      	str	r5, [sp, #12]
 8003e98:	9504      	str	r5, [sp, #16]
 8003e9a:	9405      	str	r4, [sp, #20]
 8003e9c:	f7fc ffba 	bl	8000e14 <HAL_GPIO_Init>
 8003ea0:	b007      	add	sp, #28
 8003ea2:	bd30      	pop	{r4, r5, pc}
 8003ea4:	40012c00 	.word	0x40012c00
 8003ea8:	48000400 	.word	0x48000400

08003eac <NMI_Handler>:
 8003eac:	4770      	bx	lr

08003eae <HardFault_Handler>:
 8003eae:	e7fe      	b.n	8003eae <HardFault_Handler>

08003eb0 <SVC_Handler>:
 8003eb0:	4770      	bx	lr

08003eb2 <PendSV_Handler>:
 8003eb2:	4770      	bx	lr

08003eb4 <SysTick_Handler>:
 8003eb4:	b510      	push	{r4, lr}
 8003eb6:	f7fc fad5 	bl	8000464 <HAL_IncTick>
 8003eba:	f7fc fde2 	bl	8000a82 <HAL_SYSTICK_IRQHandler>
 8003ebe:	bd10      	pop	{r4, pc}

08003ec0 <DMA1_Channel1_IRQHandler>:
 8003ec0:	b510      	push	{r4, lr}
 8003ec2:	4802      	ldr	r0, [pc, #8]	; (8003ecc <DMA1_Channel1_IRQHandler+0xc>)
 8003ec4:	f7fc fe53 	bl	8000b6e <HAL_DMA_IRQHandler>
 8003ec8:	bd10      	pop	{r4, pc}
 8003eca:	46c0      	nop			; (mov r8, r8)
 8003ecc:	20000434 	.word	0x20000434

08003ed0 <DMA1_Channel4_5_IRQHandler>:
 8003ed0:	b510      	push	{r4, lr}
 8003ed2:	4803      	ldr	r0, [pc, #12]	; (8003ee0 <DMA1_Channel4_5_IRQHandler+0x10>)
 8003ed4:	f7fc fe4b 	bl	8000b6e <HAL_DMA_IRQHandler>
 8003ed8:	f7ff f952 	bl	8003180 <transferComplete>
 8003edc:	bd10      	pop	{r4, pc}
 8003ede:	46c0      	nop			; (mov r8, r8)
 8003ee0:	20000368 	.word	0x20000368

08003ee4 <ADC1_COMP_IRQHandler>:
 8003ee4:	b510      	push	{r4, lr}
 8003ee6:	4803      	ldr	r0, [pc, #12]	; (8003ef4 <ADC1_COMP_IRQHandler+0x10>)
 8003ee8:	f7fc fb82 	bl	80005f0 <HAL_ADC_IRQHandler>
 8003eec:	4802      	ldr	r0, [pc, #8]	; (8003ef8 <ADC1_COMP_IRQHandler+0x14>)
 8003eee:	f7fc fd4f 	bl	8000990 <HAL_COMP_IRQHandler>
 8003ef2:	bd10      	pop	{r4, pc}
 8003ef4:	20000478 	.word	0x20000478
 8003ef8:	200001f0 	.word	0x200001f0

08003efc <TIM1_CC_IRQHandler>:
 8003efc:	b510      	push	{r4, lr}
 8003efe:	4802      	ldr	r0, [pc, #8]	; (8003f08 <TIM1_CC_IRQHandler+0xc>)
 8003f00:	f7fd fc1d 	bl	800173e <HAL_TIM_IRQHandler>
 8003f04:	bd10      	pop	{r4, pc}
 8003f06:	46c0      	nop			; (mov r8, r8)
 8003f08:	200003ac 	.word	0x200003ac

08003f0c <TIM2_IRQHandler>:
 8003f0c:	b510      	push	{r4, lr}
 8003f0e:	4802      	ldr	r0, [pc, #8]	; (8003f18 <TIM2_IRQHandler+0xc>)
 8003f10:	f7fd fc15 	bl	800173e <HAL_TIM_IRQHandler>
 8003f14:	bd10      	pop	{r4, pc}
 8003f16:	46c0      	nop			; (mov r8, r8)
 8003f18:	200003ec 	.word	0x200003ec

08003f1c <SystemInit>:
 8003f1c:	2101      	movs	r1, #1
 8003f1e:	4b11      	ldr	r3, [pc, #68]	; (8003f64 <SystemInit+0x48>)
 8003f20:	4811      	ldr	r0, [pc, #68]	; (8003f68 <SystemInit+0x4c>)
 8003f22:	681a      	ldr	r2, [r3, #0]
 8003f24:	430a      	orrs	r2, r1
 8003f26:	601a      	str	r2, [r3, #0]
 8003f28:	685a      	ldr	r2, [r3, #4]
 8003f2a:	4002      	ands	r2, r0
 8003f2c:	605a      	str	r2, [r3, #4]
 8003f2e:	681a      	ldr	r2, [r3, #0]
 8003f30:	480e      	ldr	r0, [pc, #56]	; (8003f6c <SystemInit+0x50>)
 8003f32:	4002      	ands	r2, r0
 8003f34:	601a      	str	r2, [r3, #0]
 8003f36:	681a      	ldr	r2, [r3, #0]
 8003f38:	480d      	ldr	r0, [pc, #52]	; (8003f70 <SystemInit+0x54>)
 8003f3a:	4002      	ands	r2, r0
 8003f3c:	601a      	str	r2, [r3, #0]
 8003f3e:	685a      	ldr	r2, [r3, #4]
 8003f40:	480c      	ldr	r0, [pc, #48]	; (8003f74 <SystemInit+0x58>)
 8003f42:	4002      	ands	r2, r0
 8003f44:	200f      	movs	r0, #15
 8003f46:	605a      	str	r2, [r3, #4]
 8003f48:	6ada      	ldr	r2, [r3, #44]	; 0x2c
 8003f4a:	4382      	bics	r2, r0
 8003f4c:	62da      	str	r2, [r3, #44]	; 0x2c
 8003f4e:	6b1a      	ldr	r2, [r3, #48]	; 0x30
 8003f50:	4809      	ldr	r0, [pc, #36]	; (8003f78 <SystemInit+0x5c>)
 8003f52:	4002      	ands	r2, r0
 8003f54:	631a      	str	r2, [r3, #48]	; 0x30
 8003f56:	6b5a      	ldr	r2, [r3, #52]	; 0x34
 8003f58:	438a      	bics	r2, r1
 8003f5a:	635a      	str	r2, [r3, #52]	; 0x34
 8003f5c:	2200      	movs	r2, #0
 8003f5e:	609a      	str	r2, [r3, #8]
 8003f60:	4770      	bx	lr
 8003f62:	46c0      	nop			; (mov r8, r8)
 8003f64:	40021000 	.word	0x40021000
 8003f68:	f8ffb80c 	.word	0xf8ffb80c
 8003f6c:	fef6ffff 	.word	0xfef6ffff
 8003f70:	fffbffff 	.word	0xfffbffff
 8003f74:	ffc0ffff 	.word	0xffc0ffff
 8003f78:	fffffeac 	.word	0xfffffeac

08003f7c <Reset_Handler>:
 8003f7c:	480d      	ldr	r0, [pc, #52]	; (8003fb4 <LoopForever+0x2>)
 8003f7e:	4685      	mov	sp, r0
 8003f80:	480d      	ldr	r0, [pc, #52]	; (8003fb8 <LoopForever+0x6>)
 8003f82:	490e      	ldr	r1, [pc, #56]	; (8003fbc <LoopForever+0xa>)
 8003f84:	4a0e      	ldr	r2, [pc, #56]	; (8003fc0 <LoopForever+0xe>)
 8003f86:	2300      	movs	r3, #0
 8003f88:	e002      	b.n	8003f90 <LoopCopyDataInit>

08003f8a <CopyDataInit>:
 8003f8a:	58d4      	ldr	r4, [r2, r3]
 8003f8c:	50c4      	str	r4, [r0, r3]
 8003f8e:	3304      	adds	r3, #4

08003f90 <LoopCopyDataInit>:
 8003f90:	18c4      	adds	r4, r0, r3
 8003f92:	428c      	cmp	r4, r1
 8003f94:	d3f9      	bcc.n	8003f8a <CopyDataInit>
 8003f96:	4a0b      	ldr	r2, [pc, #44]	; (8003fc4 <LoopForever+0x12>)
 8003f98:	4c0b      	ldr	r4, [pc, #44]	; (8003fc8 <LoopForever+0x16>)
 8003f9a:	2300      	movs	r3, #0
 8003f9c:	e001      	b.n	8003fa2 <LoopFillZerobss>

08003f9e <FillZerobss>:
 8003f9e:	6013      	str	r3, [r2, #0]
 8003fa0:	3204      	adds	r2, #4

08003fa2 <LoopFillZerobss>:
 8003fa2:	42a2      	cmp	r2, r4
 8003fa4:	d3fb      	bcc.n	8003f9e <FillZerobss>
 8003fa6:	f7ff ffb9 	bl	8003f1c <SystemInit>
 8003faa:	f000 f811 	bl	8003fd0 <__libc_init_array>
 8003fae:	f7ff f98b 	bl	80032c8 <main>

08003fb2 <LoopForever>:
 8003fb2:	e7fe      	b.n	8003fb2 <LoopForever>
 8003fb4:	20002000 	.word	0x20002000
 8003fb8:	20000000 	.word	0x20000000
 8003fbc:	20000064 	.word	0x20000064
 8003fc0:	08004098 	.word	0x08004098
 8003fc4:	20000068 	.word	0x20000068
 8003fc8:	200004c4 	.word	0x200004c4

08003fcc <CEC_CAN_IRQHandler>:
 8003fcc:	e7fe      	b.n	8003fcc <CEC_CAN_IRQHandler>
	...

08003fd0 <__libc_init_array>:
 8003fd0:	b570      	push	{r4, r5, r6, lr}
 8003fd2:	2600      	movs	r6, #0
 8003fd4:	4d0c      	ldr	r5, [pc, #48]	; (8004008 <__libc_init_array+0x38>)
 8003fd6:	4c0d      	ldr	r4, [pc, #52]	; (800400c <__libc_init_array+0x3c>)
 8003fd8:	1b64      	subs	r4, r4, r5
 8003fda:	10a4      	asrs	r4, r4, #2
 8003fdc:	42a6      	cmp	r6, r4
 8003fde:	d109      	bne.n	8003ff4 <__libc_init_array+0x24>
 8003fe0:	2600      	movs	r6, #0
 8003fe2:	f000 f823 	bl	800402c <_init>
 8003fe6:	4d0a      	ldr	r5, [pc, #40]	; (8004010 <__libc_init_array+0x40>)
 8003fe8:	4c0a      	ldr	r4, [pc, #40]	; (8004014 <__libc_init_array+0x44>)
 8003fea:	1b64      	subs	r4, r4, r5
 8003fec:	10a4      	asrs	r4, r4, #2
 8003fee:	42a6      	cmp	r6, r4
 8003ff0:	d105      	bne.n	8003ffe <__libc_init_array+0x2e>
 8003ff2:	bd70      	pop	{r4, r5, r6, pc}
 8003ff4:	00b3      	lsls	r3, r6, #2
 8003ff6:	58eb      	ldr	r3, [r5, r3]
 8003ff8:	4798      	blx	r3
 8003ffa:	3601      	adds	r6, #1
 8003ffc:	e7ee      	b.n	8003fdc <__libc_init_array+0xc>
 8003ffe:	00b3      	lsls	r3, r6, #2
 8004000:	58eb      	ldr	r3, [r5, r3]
 8004002:	4798      	blx	r3
 8004004:	3601      	adds	r6, #1
 8004006:	e7f2      	b.n	8003fee <__libc_init_array+0x1e>
 8004008:	08004090 	.word	0x08004090
 800400c:	08004090 	.word	0x08004090
 8004010:	08004090 	.word	0x08004090
 8004014:	08004094 	.word	0x08004094

08004018 <memcpy>:
 8004018:	2300      	movs	r3, #0
 800401a:	b510      	push	{r4, lr}
 800401c:	429a      	cmp	r2, r3
 800401e:	d100      	bne.n	8004022 <memcpy+0xa>
 8004020:	bd10      	pop	{r4, pc}
 8004022:	5ccc      	ldrb	r4, [r1, r3]
 8004024:	54c4      	strb	r4, [r0, r3]
 8004026:	3301      	adds	r3, #1
 8004028:	e7f8      	b.n	800401c <memcpy+0x4>
	...

0800402c <_init>:
 800402c:	b5f8      	push	{r3, r4, r5, r6, r7, lr}
 800402e:	46c0      	nop			; (mov r8, r8)
 8004030:	bcf8      	pop	{r3, r4, r5, r6, r7}
 8004032:	bc08      	pop	{r3}
 8004034:	469e      	mov	lr, r3
 8004036:	4770      	bx	lr

08004038 <_fini>:
 8004038:	b5f8      	push	{r3, r4, r5, r6, r7, lr}
 800403a:	46c0      	nop			; (mov r8, r8)
 800403c:	bcf8      	pop	{r3, r4, r5, r6, r7}
 800403e:	bc08      	pop	{r3}
 8004040:	469e      	mov	lr, r3
 8004042:	4770      	bx	lr
