
f051bldc.elf:     file format elf32-littlearm

Sections:
Idx Name          Size      VMA       LMA       File off  Algn
  0 .isr_vector   000000c0  08000000  08000000  00010000  2**0
                  CONTENTS, ALLOC, LOAD, READONLY, DATA
  1 .text         00005ba0  080000c0  080000c0  000100c0  2**2
                  CONTENTS, ALLOC, LOAD, READONLY, CODE
  2 .rodata       0000004c  08005c60  08005c60  00015c60  2**2
                  CONTENTS, ALLOC, LOAD, READONLY, DATA
  3 .init_array   00000004  08005cac  08005cac  00015cac  2**2
                  CONTENTS, ALLOC, LOAD, DATA
  4 .fini_array   00000004  08005cb0  08005cb0  00015cb0  2**2
                  CONTENTS, ALLOC, LOAD, DATA
  5 .data         00000064  20000000  08005cb4  00020000  2**2
                  CONTENTS, ALLOC, LOAD, DATA
  6 .bss          000004bc  20000068  08005d18  00020068  2**3
                  ALLOC
  7 ._user_heap_stack 00000600  20000524  08005d18  00020524  2**0
                  ALLOC
  8 .ARM.attributes 00000028  00000000  00000000  00020064  2**0
                  CONTENTS, READONLY
  9 .comment      0000007c  00000000  00000000  0002008c  2**0
                  CONTENTS, READONLY
 10 .debug_frame  0000008c  00000000  00000000  00020108  2**2
                  CONTENTS, READONLY, DEBUGGING

Disassembly of section .text:

080000c0 <__do_global_dtors_aux>:
 80000c0:	b510      	push	{r4, lr}
 80000c2:	4c06      	ldr	r4, [pc, #24]	; (80000dc <__do_global_dtors_aux+0x1c>)
 80000c4:	7823      	ldrb	r3, [r4, #0]
 80000c6:	2b00      	cmp	r3, #0
 80000c8:	d107      	bne.n	80000da <__do_global_dtors_aux+0x1a>
 80000ca:	4b05      	ldr	r3, [pc, #20]	; (80000e0 <__do_global_dtors_aux+0x20>)
 80000cc:	2b00      	cmp	r3, #0
 80000ce:	d002      	beq.n	80000d6 <__do_global_dtors_aux+0x16>
 80000d0:	4804      	ldr	r0, [pc, #16]	; (80000e4 <__do_global_dtors_aux+0x24>)
 80000d2:	e000      	b.n	80000d6 <__do_global_dtors_aux+0x16>
 80000d4:	bf00      	nop
 80000d6:	2301      	movs	r3, #1
 80000d8:	7023      	strb	r3, [r4, #0]
 80000da:	bd10      	pop	{r4, pc}
 80000dc:	20000068 	.word	0x20000068
 80000e0:	00000000 	.word	0x00000000
 80000e4:	08005c48 	.word	0x08005c48

080000e8 <frame_dummy>:
 80000e8:	4b04      	ldr	r3, [pc, #16]	; (80000fc <frame_dummy+0x14>)
 80000ea:	b510      	push	{r4, lr}
 80000ec:	2b00      	cmp	r3, #0
 80000ee:	d003      	beq.n	80000f8 <frame_dummy+0x10>
 80000f0:	4903      	ldr	r1, [pc, #12]	; (8000100 <frame_dummy+0x18>)
 80000f2:	4804      	ldr	r0, [pc, #16]	; (8000104 <frame_dummy+0x1c>)
 80000f4:	e000      	b.n	80000f8 <frame_dummy+0x10>
 80000f6:	bf00      	nop
 80000f8:	bd10      	pop	{r4, pc}
 80000fa:	46c0      	nop			; (mov r8, r8)
 80000fc:	00000000 	.word	0x00000000
 8000100:	2000006c 	.word	0x2000006c
 8000104:	08005c48 	.word	0x08005c48

08000108 <__udivsi3>:
 8000108:	2200      	movs	r2, #0
 800010a:	0843      	lsrs	r3, r0, #1
 800010c:	428b      	cmp	r3, r1
 800010e:	d374      	bcc.n	80001fa <__udivsi3+0xf2>
 8000110:	0903      	lsrs	r3, r0, #4
 8000112:	428b      	cmp	r3, r1
 8000114:	d35f      	bcc.n	80001d6 <__udivsi3+0xce>
 8000116:	0a03      	lsrs	r3, r0, #8
 8000118:	428b      	cmp	r3, r1
 800011a:	d344      	bcc.n	80001a6 <__udivsi3+0x9e>
 800011c:	0b03      	lsrs	r3, r0, #12
 800011e:	428b      	cmp	r3, r1
 8000120:	d328      	bcc.n	8000174 <__udivsi3+0x6c>
 8000122:	0c03      	lsrs	r3, r0, #16
 8000124:	428b      	cmp	r3, r1
 8000126:	d30d      	bcc.n	8000144 <__udivsi3+0x3c>
 8000128:	22ff      	movs	r2, #255	; 0xff
 800012a:	0209      	lsls	r1, r1, #8
 800012c:	ba12      	rev	r2, r2
 800012e:	0c03      	lsrs	r3, r0, #16
 8000130:	428b      	cmp	r3, r1
 8000132:	d302      	bcc.n	800013a <__udivsi3+0x32>
 8000134:	1212      	asrs	r2, r2, #8
 8000136:	0209      	lsls	r1, r1, #8
 8000138:	d065      	beq.n	8000206 <__udivsi3+0xfe>
 800013a:	0b03      	lsrs	r3, r0, #12
 800013c:	428b      	cmp	r3, r1
 800013e:	d319      	bcc.n	8000174 <__udivsi3+0x6c>
 8000140:	e000      	b.n	8000144 <__udivsi3+0x3c>
 8000142:	0a09      	lsrs	r1, r1, #8
 8000144:	0bc3      	lsrs	r3, r0, #15
 8000146:	428b      	cmp	r3, r1
 8000148:	d301      	bcc.n	800014e <__udivsi3+0x46>
 800014a:	03cb      	lsls	r3, r1, #15
 800014c:	1ac0      	subs	r0, r0, r3
 800014e:	4152      	adcs	r2, r2
 8000150:	0b83      	lsrs	r3, r0, #14
 8000152:	428b      	cmp	r3, r1
 8000154:	d301      	bcc.n	800015a <__udivsi3+0x52>
 8000156:	038b      	lsls	r3, r1, #14
 8000158:	1ac0      	subs	r0, r0, r3
 800015a:	4152      	adcs	r2, r2
 800015c:	0b43      	lsrs	r3, r0, #13
 800015e:	428b      	cmp	r3, r1
 8000160:	d301      	bcc.n	8000166 <__udivsi3+0x5e>
 8000162:	034b      	lsls	r3, r1, #13
 8000164:	1ac0      	subs	r0, r0, r3
 8000166:	4152      	adcs	r2, r2
 8000168:	0b03      	lsrs	r3, r0, #12
 800016a:	428b      	cmp	r3, r1
 800016c:	d301      	bcc.n	8000172 <__udivsi3+0x6a>
 800016e:	030b      	lsls	r3, r1, #12
 8000170:	1ac0      	subs	r0, r0, r3
 8000172:	4152      	adcs	r2, r2
 8000174:	0ac3      	lsrs	r3, r0, #11
 8000176:	428b      	cmp	r3, r1
 8000178:	d301      	bcc.n	800017e <__udivsi3+0x76>
 800017a:	02cb      	lsls	r3, r1, #11
 800017c:	1ac0      	subs	r0, r0, r3
 800017e:	4152      	adcs	r2, r2
 8000180:	0a83      	lsrs	r3, r0, #10
 8000182:	428b      	cmp	r3, r1
 8000184:	d301      	bcc.n	800018a <__udivsi3+0x82>
 8000186:	028b      	lsls	r3, r1, #10
 8000188:	1ac0      	subs	r0, r0, r3
 800018a:	4152      	adcs	r2, r2
 800018c:	0a43      	lsrs	r3, r0, #9
 800018e:	428b      	cmp	r3, r1
 8000190:	d301      	bcc.n	8000196 <__udivsi3+0x8e>
 8000192:	024b      	lsls	r3, r1, #9
 8000194:	1ac0      	subs	r0, r0, r3
 8000196:	4152      	adcs	r2, r2
 8000198:	0a03      	lsrs	r3, r0, #8
 800019a:	428b      	cmp	r3, r1
 800019c:	d301      	bcc.n	80001a2 <__udivsi3+0x9a>
 800019e:	020b      	lsls	r3, r1, #8
 80001a0:	1ac0      	subs	r0, r0, r3
 80001a2:	4152      	adcs	r2, r2
 80001a4:	d2cd      	bcs.n	8000142 <__udivsi3+0x3a>
 80001a6:	09c3      	lsrs	r3, r0, #7
 80001a8:	428b      	cmp	r3, r1
 80001aa:	d301      	bcc.n	80001b0 <__udivsi3+0xa8>
 80001ac:	01cb      	lsls	r3, r1, #7
 80001ae:	1ac0      	subs	r0, r0, r3
 80001b0:	4152      	adcs	r2, r2
 80001b2:	0983      	lsrs	r3, r0, #6
 80001b4:	428b      	cmp	r3, r1
 80001b6:	d301      	bcc.n	80001bc <__udivsi3+0xb4>
 80001b8:	018b      	lsls	r3, r1, #6
 80001ba:	1ac0      	subs	r0, r0, r3
 80001bc:	4152      	adcs	r2, r2
 80001be:	0943      	lsrs	r3, r0, #5
 80001c0:	428b      	cmp	r3, r1
 80001c2:	d301      	bcc.n	80001c8 <__udivsi3+0xc0>
 80001c4:	014b      	lsls	r3, r1, #5
 80001c6:	1ac0      	subs	r0, r0, r3
 80001c8:	4152      	adcs	r2, r2
 80001ca:	0903      	lsrs	r3, r0, #4
 80001cc:	428b      	cmp	r3, r1
 80001ce:	d301      	bcc.n	80001d4 <__udivsi3+0xcc>
 80001d0:	010b      	lsls	r3, r1, #4
 80001d2:	1ac0      	subs	r0, r0, r3
 80001d4:	4152      	adcs	r2, r2
 80001d6:	08c3      	lsrs	r3, r0, #3
 80001d8:	428b      	cmp	r3, r1
 80001da:	d301      	bcc.n	80001e0 <__udivsi3+0xd8>
 80001dc:	00cb      	lsls	r3, r1, #3
 80001de:	1ac0      	subs	r0, r0, r3
 80001e0:	4152      	adcs	r2, r2
 80001e2:	0883      	lsrs	r3, r0, #2
 80001e4:	428b      	cmp	r3, r1
 80001e6:	d301      	bcc.n	80001ec <__udivsi3+0xe4>
 80001e8:	008b      	lsls	r3, r1, #2
 80001ea:	1ac0      	subs	r0, r0, r3
 80001ec:	4152      	adcs	r2, r2
 80001ee:	0843      	lsrs	r3, r0, #1
 80001f0:	428b      	cmp	r3, r1
 80001f2:	d301      	bcc.n	80001f8 <__udivsi3+0xf0>
 80001f4:	004b      	lsls	r3, r1, #1
 80001f6:	1ac0      	subs	r0, r0, r3
 80001f8:	4152      	adcs	r2, r2
 80001fa:	1a41      	subs	r1, r0, r1
 80001fc:	d200      	bcs.n	8000200 <__udivsi3+0xf8>
 80001fe:	4601      	mov	r1, r0
 8000200:	4152      	adcs	r2, r2
 8000202:	4610      	mov	r0, r2
 8000204:	4770      	bx	lr
 8000206:	e7ff      	b.n	8000208 <__udivsi3+0x100>
 8000208:	b501      	push	{r0, lr}
 800020a:	2000      	movs	r0, #0
 800020c:	f000 f8f0 	bl	80003f0 <__aeabi_idiv0>
 8000210:	bd02      	pop	{r1, pc}
 8000212:	46c0      	nop			; (mov r8, r8)

08000214 <__aeabi_uidivmod>:
 8000214:	2900      	cmp	r1, #0
 8000216:	d0f7      	beq.n	8000208 <__udivsi3+0x100>
 8000218:	e776      	b.n	8000108 <__udivsi3>
 800021a:	4770      	bx	lr

0800021c <__divsi3>:
 800021c:	4603      	mov	r3, r0
 800021e:	430b      	orrs	r3, r1
 8000220:	d47f      	bmi.n	8000322 <__divsi3+0x106>
 8000222:	2200      	movs	r2, #0
 8000224:	0843      	lsrs	r3, r0, #1
 8000226:	428b      	cmp	r3, r1
 8000228:	d374      	bcc.n	8000314 <__divsi3+0xf8>
 800022a:	0903      	lsrs	r3, r0, #4
 800022c:	428b      	cmp	r3, r1
 800022e:	d35f      	bcc.n	80002f0 <__divsi3+0xd4>
 8000230:	0a03      	lsrs	r3, r0, #8
 8000232:	428b      	cmp	r3, r1
 8000234:	d344      	bcc.n	80002c0 <__divsi3+0xa4>
 8000236:	0b03      	lsrs	r3, r0, #12
 8000238:	428b      	cmp	r3, r1
 800023a:	d328      	bcc.n	800028e <__divsi3+0x72>
 800023c:	0c03      	lsrs	r3, r0, #16
 800023e:	428b      	cmp	r3, r1
 8000240:	d30d      	bcc.n	800025e <__divsi3+0x42>
 8000242:	22ff      	movs	r2, #255	; 0xff
 8000244:	0209      	lsls	r1, r1, #8
 8000246:	ba12      	rev	r2, r2
 8000248:	0c03      	lsrs	r3, r0, #16
 800024a:	428b      	cmp	r3, r1
 800024c:	d302      	bcc.n	8000254 <__divsi3+0x38>
 800024e:	1212      	asrs	r2, r2, #8
 8000250:	0209      	lsls	r1, r1, #8
 8000252:	d065      	beq.n	8000320 <__divsi3+0x104>
 8000254:	0b03      	lsrs	r3, r0, #12
 8000256:	428b      	cmp	r3, r1
 8000258:	d319      	bcc.n	800028e <__divsi3+0x72>
 800025a:	e000      	b.n	800025e <__divsi3+0x42>
 800025c:	0a09      	lsrs	r1, r1, #8
 800025e:	0bc3      	lsrs	r3, r0, #15
 8000260:	428b      	cmp	r3, r1
 8000262:	d301      	bcc.n	8000268 <__divsi3+0x4c>
 8000264:	03cb      	lsls	r3, r1, #15
 8000266:	1ac0      	subs	r0, r0, r3
 8000268:	4152      	adcs	r2, r2
 800026a:	0b83      	lsrs	r3, r0, #14
 800026c:	428b      	cmp	r3, r1
 800026e:	d301      	bcc.n	8000274 <__divsi3+0x58>
 8000270:	038b      	lsls	r3, r1, #14
 8000272:	1ac0      	subs	r0, r0, r3
 8000274:	4152      	adcs	r2, r2
 8000276:	0b43      	lsrs	r3, r0, #13
 8000278:	428b      	cmp	r3, r1
 800027a:	d301      	bcc.n	8000280 <__divsi3+0x64>
 800027c:	034b      	lsls	r3, r1, #13
 800027e:	1ac0      	subs	r0, r0, r3
 8000280:	4152      	adcs	r2, r2
 8000282:	0b03      	lsrs	r3, r0, #12
 8000284:	428b      	cmp	r3, r1
 8000286:	d301      	bcc.n	800028c <__divsi3+0x70>
 8000288:	030b      	lsls	r3, r1, #12
 800028a:	1ac0      	subs	r0, r0, r3
 800028c:	4152      	adcs	r2, r2
 800028e:	0ac3      	lsrs	r3, r0, #11
 8000290:	428b      	cmp	r3, r1
 8000292:	d301      	bcc.n	8000298 <__divsi3+0x7c>
 8000294:	02cb      	lsls	r3, r1, #11
 8000296:	1ac0      	subs	r0, r0, r3
 8000298:	4152      	adcs	r2, r2
 800029a:	0a83      	lsrs	r3, r0, #10
 800029c:	428b      	cmp	r3, r1
 800029e:	d301      	bcc.n	80002a4 <__divsi3+0x88>
 80002a0:	028b      	lsls	r3, r1, #10
 80002a2:	1ac0      	subs	r0, r0, r3
 80002a4:	4152      	adcs	r2, r2
 80002a6:	0a43      	lsrs	r3, r0, #9
 80002a8:	428b      	cmp	r3, r1
 80002aa:	d301      	bcc.n	80002b0 <__divsi3+0x94>
 80002ac:	024b      	lsls	r3, r1, #9
 80002ae:	1ac0      	subs	r0, r0, r3
 80002b0:	4152      	adcs	r2, r2
 80002b2:	0a03      	lsrs	r3, r0, #8
 80002b4:	428b      	cmp	r3, r1
 80002b6:	d301      	bcc.n	80002bc <__divsi3+0xa0>
 80002b8:	020b      	lsls	r3, r1, #8
 80002ba:	1ac0      	subs	r0, r0, r3
 80002bc:	4152      	adcs	r2, r2
 80002be:	d2cd      	bcs.n	800025c <__divsi3+0x40>
 80002c0:	09c3      	lsrs	r3, r0, #7
 80002c2:	428b      	cmp	r3, r1
 80002c4:	d301      	bcc.n	80002ca <__divsi3+0xae>
 80002c6:	01cb      	lsls	r3, r1, #7
 80002c8:	1ac0      	subs	r0, r0, r3
 80002ca:	4152      	adcs	r2, r2
 80002cc:	0983      	lsrs	r3, r0, #6
 80002ce:	428b      	cmp	r3, r1
 80002d0:	d301      	bcc.n	80002d6 <__divsi3+0xba>
 80002d2:	018b      	lsls	r3, r1, #6
 80002d4:	1ac0      	subs	r0, r0, r3
 80002d6:	4152      	adcs	r2, r2
 80002d8:	0943      	lsrs	r3, r0, #5
 80002da:	428b      	cmp	r3, r1
 80002dc:	d301      	bcc.n	80002e2 <__divsi3+0xc6>
 80002de:	014b      	lsls	r3, r1, #5
 80002e0:	1ac0      	subs	r0, r0, r3
 80002e2:	4152      	adcs	r2, r2
 80002e4:	0903      	lsrs	r3, r0, #4
 80002e6:	428b      	cmp	r3, r1
 80002e8:	d301      	bcc.n	80002ee <__divsi3+0xd2>
 80002ea:	010b      	lsls	r3, r1, #4
 80002ec:	1ac0      	subs	r0, r0, r3
 80002ee:	4152      	adcs	r2, r2
 80002f0:	08c3      	lsrs	r3, r0, #3
 80002f2:	428b      	cmp	r3, r1
 80002f4:	d301      	bcc.n	80002fa <__divsi3+0xde>
 80002f6:	00cb      	lsls	r3, r1, #3
 80002f8:	1ac0      	subs	r0, r0, r3
 80002fa:	4152      	adcs	r2, r2
 80002fc:	0883      	lsrs	r3, r0, #2
 80002fe:	428b      	cmp	r3, r1
 8000300:	d301      	bcc.n	8000306 <__divsi3+0xea>
 8000302:	008b      	lsls	r3, r1, #2
 8000304:	1ac0      	subs	r0, r0, r3
 8000306:	4152      	adcs	r2, r2
 8000308:	0843      	lsrs	r3, r0, #1
 800030a:	428b      	cmp	r3, r1
 800030c:	d301      	bcc.n	8000312 <__divsi3+0xf6>
 800030e:	004b      	lsls	r3, r1, #1
 8000310:	1ac0      	subs	r0, r0, r3
 8000312:	4152      	adcs	r2, r2
 8000314:	1a41      	subs	r1, r0, r1
 8000316:	d200      	bcs.n	800031a <__divsi3+0xfe>
 8000318:	4601      	mov	r1, r0
 800031a:	4152      	adcs	r2, r2
 800031c:	4610      	mov	r0, r2
 800031e:	4770      	bx	lr
 8000320:	e05d      	b.n	80003de <__divsi3+0x1c2>
 8000322:	0fca      	lsrs	r2, r1, #31
 8000324:	d000      	beq.n	8000328 <__divsi3+0x10c>
 8000326:	4249      	negs	r1, r1
 8000328:	1003      	asrs	r3, r0, #32
 800032a:	d300      	bcc.n	800032e <__divsi3+0x112>
 800032c:	4240      	negs	r0, r0
 800032e:	4053      	eors	r3, r2
 8000330:	2200      	movs	r2, #0
 8000332:	469c      	mov	ip, r3
 8000334:	0903      	lsrs	r3, r0, #4
 8000336:	428b      	cmp	r3, r1
 8000338:	d32d      	bcc.n	8000396 <__divsi3+0x17a>
 800033a:	0a03      	lsrs	r3, r0, #8
 800033c:	428b      	cmp	r3, r1
 800033e:	d312      	bcc.n	8000366 <__divsi3+0x14a>
 8000340:	22fc      	movs	r2, #252	; 0xfc
 8000342:	0189      	lsls	r1, r1, #6
 8000344:	ba12      	rev	r2, r2
 8000346:	0a03      	lsrs	r3, r0, #8
 8000348:	428b      	cmp	r3, r1
 800034a:	d30c      	bcc.n	8000366 <__divsi3+0x14a>
 800034c:	0189      	lsls	r1, r1, #6
 800034e:	1192      	asrs	r2, r2, #6
 8000350:	428b      	cmp	r3, r1
 8000352:	d308      	bcc.n	8000366 <__divsi3+0x14a>
 8000354:	0189      	lsls	r1, r1, #6
 8000356:	1192      	asrs	r2, r2, #6
 8000358:	428b      	cmp	r3, r1
 800035a:	d304      	bcc.n	8000366 <__divsi3+0x14a>
 800035c:	0189      	lsls	r1, r1, #6
 800035e:	d03a      	beq.n	80003d6 <__divsi3+0x1ba>
 8000360:	1192      	asrs	r2, r2, #6
 8000362:	e000      	b.n	8000366 <__divsi3+0x14a>
 8000364:	0989      	lsrs	r1, r1, #6
 8000366:	09c3      	lsrs	r3, r0, #7
 8000368:	428b      	cmp	r3, r1
 800036a:	d301      	bcc.n	8000370 <__divsi3+0x154>
 800036c:	01cb      	lsls	r3, r1, #7
 800036e:	1ac0      	subs	r0, r0, r3
 8000370:	4152      	adcs	r2, r2
 8000372:	0983      	lsrs	r3, r0, #6
 8000374:	428b      	cmp	r3, r1
 8000376:	d301      	bcc.n	800037c <__divsi3+0x160>
 8000378:	018b      	lsls	r3, r1, #6
 800037a:	1ac0      	subs	r0, r0, r3
 800037c:	4152      	adcs	r2, r2
 800037e:	0943      	lsrs	r3, r0, #5
 8000380:	428b      	cmp	r3, r1
 8000382:	d301      	bcc.n	8000388 <__divsi3+0x16c>
 8000384:	014b      	lsls	r3, r1, #5
 8000386:	1ac0      	subs	r0, r0, r3
 8000388:	4152      	adcs	r2, r2
 800038a:	0903      	lsrs	r3, r0, #4
 800038c:	428b      	cmp	r3, r1
 800038e:	d301      	bcc.n	8000394 <__divsi3+0x178>
 8000390:	010b      	lsls	r3, r1, #4
 8000392:	1ac0      	subs	r0, r0, r3
 8000394:	4152      	adcs	r2, r2
 8000396:	08c3      	lsrs	r3, r0, #3
 8000398:	428b      	cmp	r3, r1
 800039a:	d301      	bcc.n	80003a0 <__divsi3+0x184>
 800039c:	00cb      	lsls	r3, r1, #3
 800039e:	1ac0      	subs	r0, r0, r3
 80003a0:	4152      	adcs	r2, r2
 80003a2:	0883      	lsrs	r3, r0, #2
 80003a4:	428b      	cmp	r3, r1
 80003a6:	d301      	bcc.n	80003ac <__divsi3+0x190>
 80003a8:	008b      	lsls	r3, r1, #2
 80003aa:	1ac0      	subs	r0, r0, r3
 80003ac:	4152      	adcs	r2, r2
 80003ae:	d2d9      	bcs.n	8000364 <__divsi3+0x148>
 80003b0:	0843      	lsrs	r3, r0, #1
 80003b2:	428b      	cmp	r3, r1
 80003b4:	d301      	bcc.n	80003ba <__divsi3+0x19e>
 80003b6:	004b      	lsls	r3, r1, #1
 80003b8:	1ac0      	subs	r0, r0, r3
 80003ba:	4152      	adcs	r2, r2
 80003bc:	1a41      	subs	r1, r0, r1
 80003be:	d200      	bcs.n	80003c2 <__divsi3+0x1a6>
 80003c0:	4601      	mov	r1, r0
 80003c2:	4663      	mov	r3, ip
 80003c4:	4152      	adcs	r2, r2
 80003c6:	105b      	asrs	r3, r3, #1
 80003c8:	4610      	mov	r0, r2
 80003ca:	d301      	bcc.n	80003d0 <__divsi3+0x1b4>
 80003cc:	4240      	negs	r0, r0
 80003ce:	2b00      	cmp	r3, #0
 80003d0:	d500      	bpl.n	80003d4 <__divsi3+0x1b8>
 80003d2:	4249      	negs	r1, r1
 80003d4:	4770      	bx	lr
 80003d6:	4663      	mov	r3, ip
 80003d8:	105b      	asrs	r3, r3, #1
 80003da:	d300      	bcc.n	80003de <__divsi3+0x1c2>
 80003dc:	4240      	negs	r0, r0
 80003de:	b501      	push	{r0, lr}
 80003e0:	2000      	movs	r0, #0
 80003e2:	f000 f805 	bl	80003f0 <__aeabi_idiv0>
 80003e6:	bd02      	pop	{r1, pc}

080003e8 <__aeabi_idivmod>:
 80003e8:	2900      	cmp	r1, #0
 80003ea:	d0f8      	beq.n	80003de <__divsi3+0x1c2>
 80003ec:	e716      	b.n	800021c <__divsi3>
 80003ee:	4770      	bx	lr

080003f0 <__aeabi_idiv0>:
 80003f0:	4770      	bx	lr
 80003f2:	46c0      	nop			; (mov r8, r8)

080003f4 <HAL_InitTick>:
 80003f4:	b510      	push	{r4, lr}
 80003f6:	0004      	movs	r4, r0
 80003f8:	f001 facc 	bl	8001994 <HAL_RCC_GetHCLKFreq>
 80003fc:	21fa      	movs	r1, #250	; 0xfa
 80003fe:	0089      	lsls	r1, r1, #2
 8000400:	f7ff fe82 	bl	8000108 <__udivsi3>
 8000404:	f000 fc06 	bl	8000c14 <HAL_SYSTICK_Config>
 8000408:	2001      	movs	r0, #1
 800040a:	2200      	movs	r2, #0
 800040c:	0021      	movs	r1, r4
 800040e:	4240      	negs	r0, r0
 8000410:	f000 fbc2 	bl	8000b98 <HAL_NVIC_SetPriority>
 8000414:	2000      	movs	r0, #0
 8000416:	bd10      	pop	{r4, pc}

08000418 <HAL_Init>:
 8000418:	2110      	movs	r1, #16
 800041a:	4a06      	ldr	r2, [pc, #24]	; (8000434 <HAL_Init+0x1c>)
 800041c:	b510      	push	{r4, lr}
 800041e:	6813      	ldr	r3, [r2, #0]
 8000420:	2000      	movs	r0, #0
 8000422:	430b      	orrs	r3, r1
 8000424:	6013      	str	r3, [r2, #0]
 8000426:	f7ff ffe5 	bl	80003f4 <HAL_InitTick>
 800042a:	f005 fa0d 	bl	8005848 <HAL_MspInit>
 800042e:	2000      	movs	r0, #0
 8000430:	bd10      	pop	{r4, pc}
 8000432:	46c0      	nop			; (mov r8, r8)
 8000434:	40022000 	.word	0x40022000

08000438 <HAL_IncTick>:
 8000438:	4a02      	ldr	r2, [pc, #8]	; (8000444 <HAL_IncTick+0xc>)
 800043a:	6813      	ldr	r3, [r2, #0]
 800043c:	3301      	adds	r3, #1
 800043e:	6013      	str	r3, [r2, #0]
 8000440:	4770      	bx	lr
 8000442:	46c0      	nop			; (mov r8, r8)
 8000444:	20000180 	.word	0x20000180

08000448 <HAL_GetTick>:
 8000448:	4b01      	ldr	r3, [pc, #4]	; (8000450 <HAL_GetTick+0x8>)
 800044a:	6818      	ldr	r0, [r3, #0]
 800044c:	4770      	bx	lr
 800044e:	46c0      	nop			; (mov r8, r8)
 8000450:	20000180 	.word	0x20000180

08000454 <HAL_Delay>:
 8000454:	b530      	push	{r4, r5, lr}
 8000456:	b083      	sub	sp, #12
 8000458:	9001      	str	r0, [sp, #4]
 800045a:	f7ff fff5 	bl	8000448 <HAL_GetTick>
 800045e:	9c01      	ldr	r4, [sp, #4]
 8000460:	0005      	movs	r5, r0
 8000462:	1c63      	adds	r3, r4, #1
 8000464:	1e5a      	subs	r2, r3, #1
 8000466:	4193      	sbcs	r3, r2
 8000468:	18e4      	adds	r4, r4, r3
 800046a:	f7ff ffed 	bl	8000448 <HAL_GetTick>
 800046e:	1b40      	subs	r0, r0, r5
 8000470:	42a0      	cmp	r0, r4
 8000472:	d3fa      	bcc.n	800046a <HAL_Delay+0x16>
 8000474:	b003      	add	sp, #12
 8000476:	bd30      	pop	{r4, r5, pc}

08000478 <ADC_Enable>:
 8000478:	2300      	movs	r3, #0
 800047a:	b570      	push	{r4, r5, r6, lr}
 800047c:	6802      	ldr	r2, [r0, #0]
 800047e:	b082      	sub	sp, #8
 8000480:	9301      	str	r3, [sp, #4]
 8000482:	6891      	ldr	r1, [r2, #8]
 8000484:	3303      	adds	r3, #3
 8000486:	0004      	movs	r4, r0
 8000488:	400b      	ands	r3, r1
 800048a:	2b01      	cmp	r3, #1
 800048c:	d031      	beq.n	80004f2 <ADC_Enable+0x7a>
 800048e:	6891      	ldr	r1, [r2, #8]
 8000490:	4b20      	ldr	r3, [pc, #128]	; (8000514 <ADC_Enable+0x9c>)
 8000492:	4219      	tst	r1, r3
 8000494:	d122      	bne.n	80004dc <ADC_Enable+0x64>
 8000496:	2101      	movs	r1, #1
 8000498:	6893      	ldr	r3, [r2, #8]
 800049a:	430b      	orrs	r3, r1
 800049c:	6093      	str	r3, [r2, #8]
 800049e:	4b1e      	ldr	r3, [pc, #120]	; (8000518 <ADC_Enable+0xa0>)
 80004a0:	491e      	ldr	r1, [pc, #120]	; (800051c <ADC_Enable+0xa4>)
 80004a2:	6818      	ldr	r0, [r3, #0]
 80004a4:	f7ff fe30 	bl	8000108 <__udivsi3>
 80004a8:	9001      	str	r0, [sp, #4]
 80004aa:	9b01      	ldr	r3, [sp, #4]
 80004ac:	2b00      	cmp	r3, #0
 80004ae:	d005      	beq.n	80004bc <ADC_Enable+0x44>
 80004b0:	9b01      	ldr	r3, [sp, #4]
 80004b2:	3b01      	subs	r3, #1
 80004b4:	9301      	str	r3, [sp, #4]
 80004b6:	9b01      	ldr	r3, [sp, #4]
 80004b8:	2b00      	cmp	r3, #0
 80004ba:	d1f9      	bne.n	80004b0 <ADC_Enable+0x38>
 80004bc:	f7ff ffc4 	bl	8000448 <HAL_GetTick>
 80004c0:	2501      	movs	r5, #1
 80004c2:	0006      	movs	r6, r0
 80004c4:	e004      	b.n	80004d0 <ADC_Enable+0x58>
 80004c6:	f7ff ffbf 	bl	8000448 <HAL_GetTick>
 80004ca:	1b80      	subs	r0, r0, r6
 80004cc:	2802      	cmp	r0, #2
 80004ce:	d818      	bhi.n	8000502 <ADC_Enable+0x8a>
 80004d0:	6823      	ldr	r3, [r4, #0]
 80004d2:	681b      	ldr	r3, [r3, #0]
 80004d4:	421d      	tst	r5, r3
 80004d6:	d0f6      	beq.n	80004c6 <ADC_Enable+0x4e>
 80004d8:	2000      	movs	r0, #0
 80004da:	e008      	b.n	80004ee <ADC_Enable+0x76>
 80004dc:	2210      	movs	r2, #16
 80004de:	2001      	movs	r0, #1
 80004e0:	6c63      	ldr	r3, [r4, #68]	; 0x44
 80004e2:	4313      	orrs	r3, r2
 80004e4:	6463      	str	r3, [r4, #68]	; 0x44
 80004e6:	6ca3      	ldr	r3, [r4, #72]	; 0x48
 80004e8:	3a0f      	subs	r2, #15
 80004ea:	4313      	orrs	r3, r2
 80004ec:	64a3      	str	r3, [r4, #72]	; 0x48
 80004ee:	b002      	add	sp, #8
 80004f0:	bd70      	pop	{r4, r5, r6, pc}
 80004f2:	6811      	ldr	r1, [r2, #0]
 80004f4:	420b      	tst	r3, r1
 80004f6:	d1ef      	bne.n	80004d8 <ADC_Enable+0x60>
 80004f8:	68d3      	ldr	r3, [r2, #12]
 80004fa:	041b      	lsls	r3, r3, #16
 80004fc:	d5c7      	bpl.n	800048e <ADC_Enable+0x16>
 80004fe:	2000      	movs	r0, #0
 8000500:	e7f5      	b.n	80004ee <ADC_Enable+0x76>
 8000502:	2210      	movs	r2, #16
 8000504:	6c63      	ldr	r3, [r4, #68]	; 0x44
 8000506:	2001      	movs	r0, #1
 8000508:	4313      	orrs	r3, r2
 800050a:	6463      	str	r3, [r4, #68]	; 0x44
 800050c:	6ca3      	ldr	r3, [r4, #72]	; 0x48
 800050e:	431d      	orrs	r5, r3
 8000510:	64a5      	str	r5, [r4, #72]	; 0x48
 8000512:	e7ec      	b.n	80004ee <ADC_Enable+0x76>
 8000514:	80000017 	.word	0x80000017
 8000518:	20000060 	.word	0x20000060
 800051c:	000f4240 	.word	0x000f4240

08000520 <HAL_ADC_Init>:
 8000520:	b5f8      	push	{r3, r4, r5, r6, r7, lr}
 8000522:	1e04      	subs	r4, r0, #0
 8000524:	d100      	bne.n	8000528 <HAL_ADC_Init+0x8>
 8000526:	e080      	b.n	800062a <HAL_ADC_Init+0x10a>
 8000528:	6c43      	ldr	r3, [r0, #68]	; 0x44
 800052a:	2b00      	cmp	r3, #0
 800052c:	d067      	beq.n	80005fe <HAL_ADC_Init+0xde>
 800052e:	6c63      	ldr	r3, [r4, #68]	; 0x44
 8000530:	06db      	lsls	r3, r3, #27
 8000532:	d45e      	bmi.n	80005f2 <HAL_ADC_Init+0xd2>
 8000534:	2004      	movs	r0, #4
 8000536:	6823      	ldr	r3, [r4, #0]
 8000538:	689a      	ldr	r2, [r3, #8]
 800053a:	4010      	ands	r0, r2
 800053c:	d159      	bne.n	80005f2 <HAL_ADC_Init+0xd2>
 800053e:	6c62      	ldr	r2, [r4, #68]	; 0x44
 8000540:	4948      	ldr	r1, [pc, #288]	; (8000664 <HAL_ADC_Init+0x144>)
 8000542:	400a      	ands	r2, r1
 8000544:	3106      	adds	r1, #6
 8000546:	31ff      	adds	r1, #255	; 0xff
 8000548:	430a      	orrs	r2, r1
 800054a:	6462      	str	r2, [r4, #68]	; 0x44
 800054c:	2203      	movs	r2, #3
 800054e:	6899      	ldr	r1, [r3, #8]
 8000550:	400a      	ands	r2, r1
 8000552:	2a01      	cmp	r2, #1
 8000554:	d059      	beq.n	800060a <HAL_ADC_Init+0xea>
 8000556:	2118      	movs	r1, #24
 8000558:	68da      	ldr	r2, [r3, #12]
 800055a:	438a      	bics	r2, r1
 800055c:	68a1      	ldr	r1, [r4, #8]
 800055e:	430a      	orrs	r2, r1
 8000560:	60da      	str	r2, [r3, #12]
 8000562:	691a      	ldr	r2, [r3, #16]
 8000564:	6861      	ldr	r1, [r4, #4]
 8000566:	0092      	lsls	r2, r2, #2
 8000568:	0892      	lsrs	r2, r2, #2
 800056a:	430a      	orrs	r2, r1
 800056c:	611a      	str	r2, [r3, #16]
 800056e:	68da      	ldr	r2, [r3, #12]
 8000570:	493d      	ldr	r1, [pc, #244]	; (8000668 <HAL_ADC_Init+0x148>)
 8000572:	6a26      	ldr	r6, [r4, #32]
 8000574:	400a      	ands	r2, r1
 8000576:	60da      	str	r2, [r3, #12]
 8000578:	69a2      	ldr	r2, [r4, #24]
 800057a:	0377      	lsls	r7, r6, #13
 800057c:	0391      	lsls	r1, r2, #14
 800057e:	69e2      	ldr	r2, [r4, #28]
 8000580:	03d2      	lsls	r2, r2, #15
 8000582:	4311      	orrs	r1, r2
 8000584:	6b62      	ldr	r2, [r4, #52]	; 0x34
 8000586:	3a01      	subs	r2, #1
 8000588:	1e55      	subs	r5, r2, #1
 800058a:	41aa      	sbcs	r2, r5
 800058c:	0315      	lsls	r5, r2, #12
 800058e:	68e2      	ldr	r2, [r4, #12]
 8000590:	4311      	orrs	r1, r2
 8000592:	6922      	ldr	r2, [r4, #16]
 8000594:	4339      	orrs	r1, r7
 8000596:	2a02      	cmp	r2, #2
 8000598:	d059      	beq.n	800064e <HAL_ADC_Init+0x12e>
 800059a:	6b22      	ldr	r2, [r4, #48]	; 0x30
 800059c:	0052      	lsls	r2, r2, #1
 800059e:	430a      	orrs	r2, r1
 80005a0:	6a61      	ldr	r1, [r4, #36]	; 0x24
 80005a2:	432a      	orrs	r2, r5
 80005a4:	4302      	orrs	r2, r0
 80005a6:	2901      	cmp	r1, #1
 80005a8:	d04b      	beq.n	8000642 <HAL_ADC_Init+0x122>
 80005aa:	20c2      	movs	r0, #194	; 0xc2
 80005ac:	6aa1      	ldr	r1, [r4, #40]	; 0x28
 80005ae:	30ff      	adds	r0, #255	; 0xff
 80005b0:	4281      	cmp	r1, r0
 80005b2:	d002      	beq.n	80005ba <HAL_ADC_Init+0x9a>
 80005b4:	6ae0      	ldr	r0, [r4, #44]	; 0x2c
 80005b6:	4301      	orrs	r1, r0
 80005b8:	430a      	orrs	r2, r1
 80005ba:	68d9      	ldr	r1, [r3, #12]
 80005bc:	6ba5      	ldr	r5, [r4, #56]	; 0x38
 80005be:	4311      	orrs	r1, r2
 80005c0:	60d9      	str	r1, [r3, #12]
 80005c2:	2180      	movs	r1, #128	; 0x80
 80005c4:	0549      	lsls	r1, r1, #21
 80005c6:	428d      	cmp	r5, r1
 80005c8:	d026      	beq.n	8000618 <HAL_ADC_Init+0xf8>
 80005ca:	1e69      	subs	r1, r5, #1
 80005cc:	2906      	cmp	r1, #6
 80005ce:	d923      	bls.n	8000618 <HAL_ADC_Init+0xf8>
 80005d0:	68db      	ldr	r3, [r3, #12]
 80005d2:	4926      	ldr	r1, [pc, #152]	; (800066c <HAL_ADC_Init+0x14c>)
 80005d4:	400b      	ands	r3, r1
 80005d6:	429a      	cmp	r2, r3
 80005d8:	d029      	beq.n	800062e <HAL_ADC_Init+0x10e>
 80005da:	2212      	movs	r2, #18
 80005dc:	6c63      	ldr	r3, [r4, #68]	; 0x44
 80005de:	2001      	movs	r0, #1
 80005e0:	4393      	bics	r3, r2
 80005e2:	3a02      	subs	r2, #2
 80005e4:	4313      	orrs	r3, r2
 80005e6:	6463      	str	r3, [r4, #68]	; 0x44
 80005e8:	6ca3      	ldr	r3, [r4, #72]	; 0x48
 80005ea:	3a0f      	subs	r2, #15
 80005ec:	4313      	orrs	r3, r2
 80005ee:	64a3      	str	r3, [r4, #72]	; 0x48
 80005f0:	e004      	b.n	80005fc <HAL_ADC_Init+0xdc>
 80005f2:	2210      	movs	r2, #16
 80005f4:	2001      	movs	r0, #1
 80005f6:	6c63      	ldr	r3, [r4, #68]	; 0x44
 80005f8:	4313      	orrs	r3, r2
 80005fa:	6463      	str	r3, [r4, #68]	; 0x44
 80005fc:	bdf8      	pop	{r3, r4, r5, r6, r7, pc}
 80005fe:	2240      	movs	r2, #64	; 0x40
 8000600:	6483      	str	r3, [r0, #72]	; 0x48
 8000602:	5483      	strb	r3, [r0, r2]
 8000604:	f005 f942 	bl	800588c <HAL_ADC_MspInit>
 8000608:	e791      	b.n	800052e <HAL_ADC_Init+0xe>
 800060a:	6819      	ldr	r1, [r3, #0]
 800060c:	420a      	tst	r2, r1
 800060e:	d1ae      	bne.n	800056e <HAL_ADC_Init+0x4e>
 8000610:	68da      	ldr	r2, [r3, #12]
 8000612:	0412      	lsls	r2, r2, #16
 8000614:	d59f      	bpl.n	8000556 <HAL_ADC_Init+0x36>
 8000616:	e7aa      	b.n	800056e <HAL_ADC_Init+0x4e>
 8000618:	2107      	movs	r1, #7
 800061a:	6958      	ldr	r0, [r3, #20]
 800061c:	4388      	bics	r0, r1
 800061e:	6158      	str	r0, [r3, #20]
 8000620:	6958      	ldr	r0, [r3, #20]
 8000622:	4029      	ands	r1, r5
 8000624:	4301      	orrs	r1, r0
 8000626:	6159      	str	r1, [r3, #20]
 8000628:	e7d2      	b.n	80005d0 <HAL_ADC_Init+0xb0>
 800062a:	2001      	movs	r0, #1
 800062c:	e7e6      	b.n	80005fc <HAL_ADC_Init+0xdc>
 800062e:	2300      	movs	r3, #0
 8000630:	2203      	movs	r2, #3
 8000632:	64a3      	str	r3, [r4, #72]	; 0x48
 8000634:	6c63      	ldr	r3, [r4, #68]	; 0x44
 8000636:	2000      	movs	r0, #0
 8000638:	4393      	bics	r3, r2
 800063a:	3a02      	subs	r2, #2
 800063c:	4313      	orrs	r3, r2
 800063e:	6463      	str	r3, [r4, #68]	; 0x44
 8000640:	e7dc      	b.n	80005fc <HAL_ADC_Init+0xdc>
 8000642:	2e00      	cmp	r6, #0
 8000644:	d105      	bne.n	8000652 <HAL_ADC_Init+0x132>
 8000646:	2180      	movs	r1, #128	; 0x80
 8000648:	0249      	lsls	r1, r1, #9
 800064a:	430a      	orrs	r2, r1
 800064c:	e7ad      	b.n	80005aa <HAL_ADC_Init+0x8a>
 800064e:	2004      	movs	r0, #4
 8000650:	e7a3      	b.n	800059a <HAL_ADC_Init+0x7a>
 8000652:	2520      	movs	r5, #32
 8000654:	6c60      	ldr	r0, [r4, #68]	; 0x44
 8000656:	4328      	orrs	r0, r5
 8000658:	6460      	str	r0, [r4, #68]	; 0x44
 800065a:	6ca0      	ldr	r0, [r4, #72]	; 0x48
 800065c:	4301      	orrs	r1, r0
 800065e:	64a1      	str	r1, [r4, #72]	; 0x48
 8000660:	e7a3      	b.n	80005aa <HAL_ADC_Init+0x8a>
 8000662:	46c0      	nop			; (mov r8, r8)
 8000664:	fffffefd 	.word	0xfffffefd
 8000668:	fffe0219 	.word	0xfffe0219
 800066c:	833fffe7 	.word	0x833fffe7

08000670 <HAL_ADC_Start_DMA>:
 8000670:	b570      	push	{r4, r5, r6, lr}
 8000672:	000d      	movs	r5, r1
 8000674:	6801      	ldr	r1, [r0, #0]
 8000676:	0004      	movs	r4, r0
 8000678:	688b      	ldr	r3, [r1, #8]
 800067a:	0016      	movs	r6, r2
 800067c:	2002      	movs	r0, #2
 800067e:	075b      	lsls	r3, r3, #29
 8000680:	d500      	bpl.n	8000684 <HAL_ADC_Start_DMA+0x14>
 8000682:	bd70      	pop	{r4, r5, r6, pc}
 8000684:	2340      	movs	r3, #64	; 0x40
 8000686:	5ce2      	ldrb	r2, [r4, r3]
 8000688:	2a01      	cmp	r2, #1
 800068a:	d0fa      	beq.n	8000682 <HAL_ADC_Start_DMA+0x12>
 800068c:	2201      	movs	r2, #1
 800068e:	54e2      	strb	r2, [r4, r3]
 8000690:	69e3      	ldr	r3, [r4, #28]
 8000692:	2b01      	cmp	r3, #1
 8000694:	d127      	bne.n	80006e6 <HAL_ADC_Start_DMA+0x76>
 8000696:	6c63      	ldr	r3, [r4, #68]	; 0x44
 8000698:	4a16      	ldr	r2, [pc, #88]	; (80006f4 <HAL_ADC_Start_DMA+0x84>)
 800069a:	6be0      	ldr	r0, [r4, #60]	; 0x3c
 800069c:	401a      	ands	r2, r3
 800069e:	2380      	movs	r3, #128	; 0x80
 80006a0:	005b      	lsls	r3, r3, #1
 80006a2:	4313      	orrs	r3, r2
 80006a4:	6463      	str	r3, [r4, #68]	; 0x44
 80006a6:	2240      	movs	r2, #64	; 0x40
 80006a8:	2300      	movs	r3, #0
 80006aa:	64a3      	str	r3, [r4, #72]	; 0x48
 80006ac:	54a3      	strb	r3, [r4, r2]
 80006ae:	4b12      	ldr	r3, [pc, #72]	; (80006f8 <HAL_ADC_Start_DMA+0x88>)
 80006b0:	3a30      	subs	r2, #48	; 0x30
 80006b2:	6283      	str	r3, [r0, #40]	; 0x28
 80006b4:	4b11      	ldr	r3, [pc, #68]	; (80006fc <HAL_ADC_Start_DMA+0x8c>)
 80006b6:	62c3      	str	r3, [r0, #44]	; 0x2c
 80006b8:	4b11      	ldr	r3, [pc, #68]	; (8000700 <HAL_ADC_Start_DMA+0x90>)
 80006ba:	6303      	str	r3, [r0, #48]	; 0x30
 80006bc:	231c      	movs	r3, #28
 80006be:	600b      	str	r3, [r1, #0]
 80006c0:	684b      	ldr	r3, [r1, #4]
 80006c2:	4313      	orrs	r3, r2
 80006c4:	604b      	str	r3, [r1, #4]
 80006c6:	68cb      	ldr	r3, [r1, #12]
 80006c8:	3a0f      	subs	r2, #15
 80006ca:	4313      	orrs	r3, r2
 80006cc:	60cb      	str	r3, [r1, #12]
 80006ce:	002a      	movs	r2, r5
 80006d0:	3140      	adds	r1, #64	; 0x40
 80006d2:	0033      	movs	r3, r6
 80006d4:	f000 fb06 	bl	8000ce4 <HAL_DMA_Start_IT>
 80006d8:	2104      	movs	r1, #4
 80006da:	6822      	ldr	r2, [r4, #0]
 80006dc:	2000      	movs	r0, #0
 80006de:	6893      	ldr	r3, [r2, #8]
 80006e0:	430b      	orrs	r3, r1
 80006e2:	6093      	str	r3, [r2, #8]
 80006e4:	e7cd      	b.n	8000682 <HAL_ADC_Start_DMA+0x12>
 80006e6:	0020      	movs	r0, r4
 80006e8:	f7ff fec6 	bl	8000478 <ADC_Enable>
 80006ec:	2800      	cmp	r0, #0
 80006ee:	d1c8      	bne.n	8000682 <HAL_ADC_Start_DMA+0x12>
 80006f0:	6821      	ldr	r1, [r4, #0]
 80006f2:	e7d0      	b.n	8000696 <HAL_ADC_Start_DMA+0x26>
 80006f4:	fffff0fe 	.word	0xfffff0fe
 80006f8:	08000705 	.word	0x08000705
 80006fc:	08000779 	.word	0x08000779
 8000700:	0800078d 	.word	0x0800078d

08000704 <ADC_DMAConvCplt>:
 8000704:	2150      	movs	r1, #80	; 0x50
 8000706:	6a43      	ldr	r3, [r0, #36]	; 0x24
 8000708:	b510      	push	{r4, lr}
 800070a:	6c5a      	ldr	r2, [r3, #68]	; 0x44
 800070c:	4211      	tst	r1, r2
 800070e:	d122      	bne.n	8000756 <ADC_DMAConvCplt+0x52>
 8000710:	2280      	movs	r2, #128	; 0x80
 8000712:	6c59      	ldr	r1, [r3, #68]	; 0x44
 8000714:	0092      	lsls	r2, r2, #2
 8000716:	430a      	orrs	r2, r1
 8000718:	21c0      	movs	r1, #192	; 0xc0
 800071a:	645a      	str	r2, [r3, #68]	; 0x44
 800071c:	681a      	ldr	r2, [r3, #0]
 800071e:	0109      	lsls	r1, r1, #4
 8000720:	68d0      	ldr	r0, [r2, #12]
 8000722:	4208      	tst	r0, r1
 8000724:	d113      	bne.n	800074e <ADC_DMAConvCplt+0x4a>
 8000726:	6a19      	ldr	r1, [r3, #32]
 8000728:	2900      	cmp	r1, #0
 800072a:	d110      	bne.n	800074e <ADC_DMAConvCplt+0x4a>
 800072c:	6811      	ldr	r1, [r2, #0]
 800072e:	0709      	lsls	r1, r1, #28
 8000730:	d50d      	bpl.n	800074e <ADC_DMAConvCplt+0x4a>
 8000732:	6891      	ldr	r1, [r2, #8]
 8000734:	0749      	lsls	r1, r1, #29
 8000736:	d412      	bmi.n	800075e <ADC_DMAConvCplt+0x5a>
 8000738:	200c      	movs	r0, #12
 800073a:	6851      	ldr	r1, [r2, #4]
 800073c:	4381      	bics	r1, r0
 800073e:	6051      	str	r1, [r2, #4]
 8000740:	6c5a      	ldr	r2, [r3, #68]	; 0x44
 8000742:	490b      	ldr	r1, [pc, #44]	; (8000770 <ADC_DMAConvCplt+0x6c>)
 8000744:	400a      	ands	r2, r1
 8000746:	3104      	adds	r1, #4
 8000748:	31ff      	adds	r1, #255	; 0xff
 800074a:	430a      	orrs	r2, r1
 800074c:	645a      	str	r2, [r3, #68]	; 0x44
 800074e:	0018      	movs	r0, r3
 8000750:	f003 fff6 	bl	8004740 <HAL_ADC_ConvCpltCallback>
 8000754:	bd10      	pop	{r4, pc}
 8000756:	6bdb      	ldr	r3, [r3, #60]	; 0x3c
 8000758:	6b1b      	ldr	r3, [r3, #48]	; 0x30
 800075a:	4798      	blx	r3
 800075c:	e7fa      	b.n	8000754 <ADC_DMAConvCplt+0x50>
 800075e:	2120      	movs	r1, #32
 8000760:	6c5a      	ldr	r2, [r3, #68]	; 0x44
 8000762:	430a      	orrs	r2, r1
 8000764:	645a      	str	r2, [r3, #68]	; 0x44
 8000766:	6c9a      	ldr	r2, [r3, #72]	; 0x48
 8000768:	391f      	subs	r1, #31
 800076a:	430a      	orrs	r2, r1
 800076c:	649a      	str	r2, [r3, #72]	; 0x48
 800076e:	e7ee      	b.n	800074e <ADC_DMAConvCplt+0x4a>
 8000770:	fffffefe 	.word	0xfffffefe

08000774 <HAL_ADC_ConvHalfCpltCallback>:
 8000774:	4770      	bx	lr
 8000776:	46c0      	nop			; (mov r8, r8)

08000778 <ADC_DMAHalfConvCplt>:
 8000778:	b510      	push	{r4, lr}
 800077a:	6a40      	ldr	r0, [r0, #36]	; 0x24
 800077c:	f7ff fffa 	bl	8000774 <HAL_ADC_ConvHalfCpltCallback>
 8000780:	bd10      	pop	{r4, pc}
 8000782:	46c0      	nop			; (mov r8, r8)

08000784 <HAL_ADC_LevelOutOfWindowCallback>:
 8000784:	4770      	bx	lr
 8000786:	46c0      	nop			; (mov r8, r8)

08000788 <HAL_ADC_ErrorCallback>:
 8000788:	4770      	bx	lr
 800078a:	46c0      	nop			; (mov r8, r8)

0800078c <ADC_DMAError>:
 800078c:	2240      	movs	r2, #64	; 0x40
 800078e:	6a40      	ldr	r0, [r0, #36]	; 0x24
 8000790:	b510      	push	{r4, lr}
 8000792:	6c43      	ldr	r3, [r0, #68]	; 0x44
 8000794:	4313      	orrs	r3, r2
 8000796:	6443      	str	r3, [r0, #68]	; 0x44
 8000798:	6c83      	ldr	r3, [r0, #72]	; 0x48
 800079a:	3a3c      	subs	r2, #60	; 0x3c
 800079c:	4313      	orrs	r3, r2
 800079e:	6483      	str	r3, [r0, #72]	; 0x48
 80007a0:	f7ff fff2 	bl	8000788 <HAL_ADC_ErrorCallback>
 80007a4:	bd10      	pop	{r4, pc}
 80007a6:	46c0      	nop			; (mov r8, r8)

080007a8 <HAL_ADC_IRQHandler>:
 80007a8:	2204      	movs	r2, #4
 80007aa:	6803      	ldr	r3, [r0, #0]
 80007ac:	b570      	push	{r4, r5, r6, lr}
 80007ae:	6819      	ldr	r1, [r3, #0]
 80007b0:	0004      	movs	r4, r0
 80007b2:	420a      	tst	r2, r1
 80007b4:	d04a      	beq.n	800084c <HAL_ADC_IRQHandler+0xa4>
 80007b6:	6859      	ldr	r1, [r3, #4]
 80007b8:	420a      	tst	r2, r1
 80007ba:	d047      	beq.n	800084c <HAL_ADC_IRQHandler+0xa4>
 80007bc:	6c62      	ldr	r2, [r4, #68]	; 0x44
 80007be:	06d2      	lsls	r2, r2, #27
 80007c0:	d404      	bmi.n	80007cc <HAL_ADC_IRQHandler+0x24>
 80007c2:	2280      	movs	r2, #128	; 0x80
 80007c4:	6c61      	ldr	r1, [r4, #68]	; 0x44
 80007c6:	0092      	lsls	r2, r2, #2
 80007c8:	430a      	orrs	r2, r1
 80007ca:	6462      	str	r2, [r4, #68]	; 0x44
 80007cc:	22c0      	movs	r2, #192	; 0xc0
 80007ce:	68d9      	ldr	r1, [r3, #12]
 80007d0:	0112      	lsls	r2, r2, #4
 80007d2:	4211      	tst	r1, r2
 80007d4:	d113      	bne.n	80007fe <HAL_ADC_IRQHandler+0x56>
 80007d6:	6a22      	ldr	r2, [r4, #32]
 80007d8:	2a00      	cmp	r2, #0
 80007da:	d110      	bne.n	80007fe <HAL_ADC_IRQHandler+0x56>
 80007dc:	681a      	ldr	r2, [r3, #0]
 80007de:	0712      	lsls	r2, r2, #28
 80007e0:	d50d      	bpl.n	80007fe <HAL_ADC_IRQHandler+0x56>
 80007e2:	689a      	ldr	r2, [r3, #8]
 80007e4:	0752      	lsls	r2, r2, #29
 80007e6:	d444      	bmi.n	8000872 <HAL_ADC_IRQHandler+0xca>
 80007e8:	210c      	movs	r1, #12
 80007ea:	685a      	ldr	r2, [r3, #4]
 80007ec:	438a      	bics	r2, r1
 80007ee:	605a      	str	r2, [r3, #4]
 80007f0:	6c63      	ldr	r3, [r4, #68]	; 0x44
 80007f2:	4a24      	ldr	r2, [pc, #144]	; (8000884 <HAL_ADC_IRQHandler+0xdc>)
 80007f4:	4013      	ands	r3, r2
 80007f6:	3204      	adds	r2, #4
 80007f8:	32ff      	adds	r2, #255	; 0xff
 80007fa:	4313      	orrs	r3, r2
 80007fc:	6463      	str	r3, [r4, #68]	; 0x44
 80007fe:	0020      	movs	r0, r4
 8000800:	f003 ff9e 	bl	8004740 <HAL_ADC_ConvCpltCallback>
 8000804:	220c      	movs	r2, #12
 8000806:	6823      	ldr	r3, [r4, #0]
 8000808:	601a      	str	r2, [r3, #0]
 800080a:	2580      	movs	r5, #128	; 0x80
 800080c:	681a      	ldr	r2, [r3, #0]
 800080e:	4215      	tst	r5, r2
 8000810:	d002      	beq.n	8000818 <HAL_ADC_IRQHandler+0x70>
 8000812:	685a      	ldr	r2, [r3, #4]
 8000814:	4215      	tst	r5, r2
 8000816:	d121      	bne.n	800085c <HAL_ADC_IRQHandler+0xb4>
 8000818:	2210      	movs	r2, #16
 800081a:	6819      	ldr	r1, [r3, #0]
 800081c:	420a      	tst	r2, r1
 800081e:	d014      	beq.n	800084a <HAL_ADC_IRQHandler+0xa2>
 8000820:	6859      	ldr	r1, [r3, #4]
 8000822:	420a      	tst	r2, r1
 8000824:	d011      	beq.n	800084a <HAL_ADC_IRQHandler+0xa2>
 8000826:	6b62      	ldr	r2, [r4, #52]	; 0x34
 8000828:	2a01      	cmp	r2, #1
 800082a:	d002      	beq.n	8000832 <HAL_ADC_IRQHandler+0x8a>
 800082c:	68da      	ldr	r2, [r3, #12]
 800082e:	07d2      	lsls	r2, r2, #31
 8000830:	d509      	bpl.n	8000846 <HAL_ADC_IRQHandler+0x9e>
 8000832:	2102      	movs	r1, #2
 8000834:	6ca2      	ldr	r2, [r4, #72]	; 0x48
 8000836:	0020      	movs	r0, r4
 8000838:	430a      	orrs	r2, r1
 800083a:	64a2      	str	r2, [r4, #72]	; 0x48
 800083c:	2210      	movs	r2, #16
 800083e:	601a      	str	r2, [r3, #0]
 8000840:	f7ff ffa2 	bl	8000788 <HAL_ADC_ErrorCallback>
 8000844:	6823      	ldr	r3, [r4, #0]
 8000846:	2210      	movs	r2, #16
 8000848:	601a      	str	r2, [r3, #0]
 800084a:	bd70      	pop	{r4, r5, r6, pc}
 800084c:	2208      	movs	r2, #8
 800084e:	6819      	ldr	r1, [r3, #0]
 8000850:	420a      	tst	r2, r1
 8000852:	d0da      	beq.n	800080a <HAL_ADC_IRQHandler+0x62>
 8000854:	6859      	ldr	r1, [r3, #4]
 8000856:	420a      	tst	r2, r1
 8000858:	d0d7      	beq.n	800080a <HAL_ADC_IRQHandler+0x62>
 800085a:	e7af      	b.n	80007bc <HAL_ADC_IRQHandler+0x14>
 800085c:	2380      	movs	r3, #128	; 0x80
 800085e:	6c62      	ldr	r2, [r4, #68]	; 0x44
 8000860:	025b      	lsls	r3, r3, #9
 8000862:	4313      	orrs	r3, r2
 8000864:	6463      	str	r3, [r4, #68]	; 0x44
 8000866:	0020      	movs	r0, r4
 8000868:	f7ff ff8c 	bl	8000784 <HAL_ADC_LevelOutOfWindowCallback>
 800086c:	6823      	ldr	r3, [r4, #0]
 800086e:	601d      	str	r5, [r3, #0]
 8000870:	e7d2      	b.n	8000818 <HAL_ADC_IRQHandler+0x70>
 8000872:	2220      	movs	r2, #32
 8000874:	6c63      	ldr	r3, [r4, #68]	; 0x44
 8000876:	4313      	orrs	r3, r2
 8000878:	6463      	str	r3, [r4, #68]	; 0x44
 800087a:	6ca3      	ldr	r3, [r4, #72]	; 0x48
 800087c:	3a1f      	subs	r2, #31
 800087e:	4313      	orrs	r3, r2
 8000880:	64a3      	str	r3, [r4, #72]	; 0x48
 8000882:	e7bc      	b.n	80007fe <HAL_ADC_IRQHandler+0x56>
 8000884:	fffffefe 	.word	0xfffffefe

08000888 <HAL_ADC_ConfigChannel>:
 8000888:	2300      	movs	r3, #0
 800088a:	b570      	push	{r4, r5, r6, lr}
 800088c:	b082      	sub	sp, #8
 800088e:	9301      	str	r3, [sp, #4]
 8000890:	3340      	adds	r3, #64	; 0x40
 8000892:	5cc2      	ldrb	r2, [r0, r3]
 8000894:	0004      	movs	r4, r0
 8000896:	2002      	movs	r0, #2
 8000898:	2a01      	cmp	r2, #1
 800089a:	d03c      	beq.n	8000916 <HAL_ADC_ConfigChannel+0x8e>
 800089c:	2201      	movs	r2, #1
 800089e:	6ba0      	ldr	r0, [r4, #56]	; 0x38
 80008a0:	54e2      	strb	r2, [r4, r3]
 80008a2:	6823      	ldr	r3, [r4, #0]
 80008a4:	689d      	ldr	r5, [r3, #8]
 80008a6:	076d      	lsls	r5, r5, #29
 80008a8:	d42d      	bmi.n	8000906 <HAL_ADC_ConfigChannel+0x7e>
 80008aa:	4d35      	ldr	r5, [pc, #212]	; (8000980 <HAL_ADC_ConfigChannel+0xf8>)
 80008ac:	684e      	ldr	r6, [r1, #4]
 80008ae:	42ae      	cmp	r6, r5
 80008b0:	d033      	beq.n	800091a <HAL_ADC_ConfigChannel+0x92>
 80008b2:	680d      	ldr	r5, [r1, #0]
 80008b4:	6a9e      	ldr	r6, [r3, #40]	; 0x28
 80008b6:	40aa      	lsls	r2, r5
 80008b8:	4332      	orrs	r2, r6
 80008ba:	629a      	str	r2, [r3, #40]	; 0x28
 80008bc:	2280      	movs	r2, #128	; 0x80
 80008be:	0552      	lsls	r2, r2, #21
 80008c0:	4290      	cmp	r0, r2
 80008c2:	d00f      	beq.n	80008e4 <HAL_ADC_ConfigChannel+0x5c>
 80008c4:	3801      	subs	r0, #1
 80008c6:	2806      	cmp	r0, #6
 80008c8:	d90c      	bls.n	80008e4 <HAL_ADC_ConfigChannel+0x5c>
 80008ca:	2207      	movs	r2, #7
 80008cc:	6888      	ldr	r0, [r1, #8]
 80008ce:	6959      	ldr	r1, [r3, #20]
 80008d0:	4011      	ands	r1, r2
 80008d2:	4288      	cmp	r0, r1
 80008d4:	d006      	beq.n	80008e4 <HAL_ADC_ConfigChannel+0x5c>
 80008d6:	6959      	ldr	r1, [r3, #20]
 80008d8:	4391      	bics	r1, r2
 80008da:	6159      	str	r1, [r3, #20]
 80008dc:	6959      	ldr	r1, [r3, #20]
 80008de:	4002      	ands	r2, r0
 80008e0:	430a      	orrs	r2, r1
 80008e2:	615a      	str	r2, [r3, #20]
 80008e4:	002b      	movs	r3, r5
 80008e6:	3b10      	subs	r3, #16
 80008e8:	2b02      	cmp	r3, #2
 80008ea:	d829      	bhi.n	8000940 <HAL_ADC_ConfigChannel+0xb8>
 80008ec:	4a25      	ldr	r2, [pc, #148]	; (8000984 <HAL_ADC_ConfigChannel+0xfc>)
 80008ee:	6813      	ldr	r3, [r2, #0]
 80008f0:	2d10      	cmp	r5, #16
 80008f2:	d027      	beq.n	8000944 <HAL_ADC_ConfigChannel+0xbc>
 80008f4:	2280      	movs	r2, #128	; 0x80
 80008f6:	2d11      	cmp	r5, #17
 80008f8:	d03c      	beq.n	8000974 <HAL_ADC_ConfigChannel+0xec>
 80008fa:	0452      	lsls	r2, r2, #17
 80008fc:	4313      	orrs	r3, r2
 80008fe:	4a21      	ldr	r2, [pc, #132]	; (8000984 <HAL_ADC_ConfigChannel+0xfc>)
 8000900:	2000      	movs	r0, #0
 8000902:	6013      	str	r3, [r2, #0]
 8000904:	e004      	b.n	8000910 <HAL_ADC_ConfigChannel+0x88>
 8000906:	2220      	movs	r2, #32
 8000908:	2001      	movs	r0, #1
 800090a:	6c63      	ldr	r3, [r4, #68]	; 0x44
 800090c:	4313      	orrs	r3, r2
 800090e:	6463      	str	r3, [r4, #68]	; 0x44
 8000910:	2200      	movs	r2, #0
 8000912:	2340      	movs	r3, #64	; 0x40
 8000914:	54e2      	strb	r2, [r4, r3]
 8000916:	b002      	add	sp, #8
 8000918:	bd70      	pop	{r4, r5, r6, pc}
 800091a:	6809      	ldr	r1, [r1, #0]
 800091c:	6a98      	ldr	r0, [r3, #40]	; 0x28
 800091e:	408a      	lsls	r2, r1
 8000920:	4390      	bics	r0, r2
 8000922:	6298      	str	r0, [r3, #40]	; 0x28
 8000924:	000b      	movs	r3, r1
 8000926:	3b10      	subs	r3, #16
 8000928:	2b02      	cmp	r3, #2
 800092a:	d809      	bhi.n	8000940 <HAL_ADC_ConfigChannel+0xb8>
 800092c:	4b15      	ldr	r3, [pc, #84]	; (8000984 <HAL_ADC_ConfigChannel+0xfc>)
 800092e:	681b      	ldr	r3, [r3, #0]
 8000930:	2910      	cmp	r1, #16
 8000932:	d021      	beq.n	8000978 <HAL_ADC_ConfigChannel+0xf0>
 8000934:	2911      	cmp	r1, #17
 8000936:	d021      	beq.n	800097c <HAL_ADC_ConfigChannel+0xf4>
 8000938:	4a13      	ldr	r2, [pc, #76]	; (8000988 <HAL_ADC_ConfigChannel+0x100>)
 800093a:	4013      	ands	r3, r2
 800093c:	4a11      	ldr	r2, [pc, #68]	; (8000984 <HAL_ADC_ConfigChannel+0xfc>)
 800093e:	6013      	str	r3, [r2, #0]
 8000940:	2000      	movs	r0, #0
 8000942:	e7e5      	b.n	8000910 <HAL_ADC_ConfigChannel+0x88>
 8000944:	2180      	movs	r1, #128	; 0x80
 8000946:	0409      	lsls	r1, r1, #16
 8000948:	430b      	orrs	r3, r1
 800094a:	6013      	str	r3, [r2, #0]
 800094c:	4b0f      	ldr	r3, [pc, #60]	; (800098c <HAL_ADC_ConfigChannel+0x104>)
 800094e:	4910      	ldr	r1, [pc, #64]	; (8000990 <HAL_ADC_ConfigChannel+0x108>)
 8000950:	6818      	ldr	r0, [r3, #0]
 8000952:	f7ff fbd9 	bl	8000108 <__udivsi3>
 8000956:	0083      	lsls	r3, r0, #2
 8000958:	1818      	adds	r0, r3, r0
 800095a:	0040      	lsls	r0, r0, #1
 800095c:	9001      	str	r0, [sp, #4]
 800095e:	9b01      	ldr	r3, [sp, #4]
 8000960:	2b00      	cmp	r3, #0
 8000962:	d0ed      	beq.n	8000940 <HAL_ADC_ConfigChannel+0xb8>
 8000964:	9b01      	ldr	r3, [sp, #4]
 8000966:	3b01      	subs	r3, #1
 8000968:	9301      	str	r3, [sp, #4]
 800096a:	9b01      	ldr	r3, [sp, #4]
 800096c:	2b00      	cmp	r3, #0
 800096e:	d1f9      	bne.n	8000964 <HAL_ADC_ConfigChannel+0xdc>
 8000970:	2000      	movs	r0, #0
 8000972:	e7cd      	b.n	8000910 <HAL_ADC_ConfigChannel+0x88>
 8000974:	03d2      	lsls	r2, r2, #15
 8000976:	e7c1      	b.n	80008fc <HAL_ADC_ConfigChannel+0x74>
 8000978:	4a06      	ldr	r2, [pc, #24]	; (8000994 <HAL_ADC_ConfigChannel+0x10c>)
 800097a:	e7de      	b.n	800093a <HAL_ADC_ConfigChannel+0xb2>
 800097c:	4a06      	ldr	r2, [pc, #24]	; (8000998 <HAL_ADC_ConfigChannel+0x110>)
 800097e:	e7dc      	b.n	800093a <HAL_ADC_ConfigChannel+0xb2>
 8000980:	00001001 	.word	0x00001001
 8000984:	40012708 	.word	0x40012708
 8000988:	feffffff 	.word	0xfeffffff
 800098c:	20000060 	.word	0x20000060
 8000990:	000f4240 	.word	0x000f4240
 8000994:	ff7fffff 	.word	0xff7fffff
 8000998:	ffbfffff 	.word	0xffbfffff

0800099c <HAL_COMP_Init>:
 800099c:	b570      	push	{r4, r5, r6, lr}
 800099e:	0004      	movs	r4, r0
 80009a0:	b082      	sub	sp, #8
 80009a2:	2800      	cmp	r0, #0
 80009a4:	d03b      	beq.n	8000a1e <HAL_COMP_Init+0x82>
 80009a6:	6a83      	ldr	r3, [r0, #40]	; 0x28
 80009a8:	2001      	movs	r0, #1
 80009aa:	06db      	lsls	r3, r3, #27
 80009ac:	d501      	bpl.n	80009b2 <HAL_COMP_Init+0x16>
 80009ae:	b002      	add	sp, #8
 80009b0:	bd70      	pop	{r4, r5, r6, pc}
 80009b2:	4b1d      	ldr	r3, [pc, #116]	; (8000a28 <HAL_COMP_Init+0x8c>)
 80009b4:	699a      	ldr	r2, [r3, #24]
 80009b6:	4302      	orrs	r2, r0
 80009b8:	619a      	str	r2, [r3, #24]
 80009ba:	699b      	ldr	r3, [r3, #24]
 80009bc:	4018      	ands	r0, r3
 80009be:	9001      	str	r0, [sp, #4]
 80009c0:	0020      	movs	r0, r4
 80009c2:	9b01      	ldr	r3, [sp, #4]
 80009c4:	f004 ffae 	bl	8005924 <HAL_COMP_MspInit>
 80009c8:	6aa3      	ldr	r3, [r4, #40]	; 0x28
 80009ca:	2b00      	cmp	r3, #0
 80009cc:	d024      	beq.n	8000a18 <HAL_COMP_Init+0x7c>
 80009ce:	2302      	movs	r3, #2
 80009d0:	6822      	ldr	r2, [r4, #0]
 80009d2:	62a3      	str	r3, [r4, #40]	; 0x28
 80009d4:	4b15      	ldr	r3, [pc, #84]	; (8000a2c <HAL_COMP_Init+0x90>)
 80009d6:	429a      	cmp	r2, r3
 80009d8:	d023      	beq.n	8000a22 <HAL_COMP_Init+0x86>
 80009da:	2500      	movs	r5, #0
 80009dc:	4914      	ldr	r1, [pc, #80]	; (8000a30 <HAL_COMP_Init+0x94>)
 80009de:	68a6      	ldr	r6, [r4, #8]
 80009e0:	6863      	ldr	r3, [r4, #4]
 80009e2:	4a14      	ldr	r2, [pc, #80]	; (8000a34 <HAL_COMP_Init+0x98>)
 80009e4:	4333      	orrs	r3, r6
 80009e6:	68e6      	ldr	r6, [r4, #12]
 80009e8:	6810      	ldr	r0, [r2, #0]
 80009ea:	4333      	orrs	r3, r6
 80009ec:	6926      	ldr	r6, [r4, #16]
 80009ee:	4001      	ands	r1, r0
 80009f0:	4333      	orrs	r3, r6
 80009f2:	6966      	ldr	r6, [r4, #20]
 80009f4:	4333      	orrs	r3, r6
 80009f6:	69a6      	ldr	r6, [r4, #24]
 80009f8:	4333      	orrs	r3, r6
 80009fa:	40ab      	lsls	r3, r5
 80009fc:	430b      	orrs	r3, r1
 80009fe:	6013      	str	r3, [r2, #0]
 8000a00:	69e3      	ldr	r3, [r4, #28]
 8000a02:	2b00      	cmp	r3, #0
 8000a04:	d004      	beq.n	8000a10 <HAL_COMP_Init+0x74>
 8000a06:	2380      	movs	r3, #128	; 0x80
 8000a08:	6811      	ldr	r1, [r2, #0]
 8000a0a:	041b      	lsls	r3, r3, #16
 8000a0c:	430b      	orrs	r3, r1
 8000a0e:	6013      	str	r3, [r2, #0]
 8000a10:	2301      	movs	r3, #1
 8000a12:	2000      	movs	r0, #0
 8000a14:	62a3      	str	r3, [r4, #40]	; 0x28
 8000a16:	e7ca      	b.n	80009ae <HAL_COMP_Init+0x12>
 8000a18:	2224      	movs	r2, #36	; 0x24
 8000a1a:	54a3      	strb	r3, [r4, r2]
 8000a1c:	e7d7      	b.n	80009ce <HAL_COMP_Init+0x32>
 8000a1e:	2001      	movs	r0, #1
 8000a20:	e7c5      	b.n	80009ae <HAL_COMP_Init+0x12>
 8000a22:	4905      	ldr	r1, [pc, #20]	; (8000a38 <HAL_COMP_Init+0x9c>)
 8000a24:	2510      	movs	r5, #16
 8000a26:	e7da      	b.n	80009de <HAL_COMP_Init+0x42>
 8000a28:	40021000 	.word	0x40021000
 8000a2c:	4001001e 	.word	0x4001001e
 8000a30:	ffffc081 	.word	0xffffc081
 8000a34:	4001001c 	.word	0x4001001c
 8000a38:	c081ffff 	.word	0xc081ffff

08000a3c <HAL_COMP_Start_IT>:
 8000a3c:	b510      	push	{r4, lr}
 8000a3e:	1e03      	subs	r3, r0, #0
 8000a40:	d034      	beq.n	8000aac <HAL_COMP_Start_IT+0x70>
 8000a42:	6a82      	ldr	r2, [r0, #40]	; 0x28
 8000a44:	2001      	movs	r0, #1
 8000a46:	06d2      	lsls	r2, r2, #27
 8000a48:	d402      	bmi.n	8000a50 <HAL_COMP_Start_IT+0x14>
 8000a4a:	6a9c      	ldr	r4, [r3, #40]	; 0x28
 8000a4c:	2c01      	cmp	r4, #1
 8000a4e:	d000      	beq.n	8000a52 <HAL_COMP_Start_IT+0x16>
 8000a50:	bd10      	pop	{r4, pc}
 8000a52:	6818      	ldr	r0, [r3, #0]
 8000a54:	4a1e      	ldr	r2, [pc, #120]	; (8000ad0 <HAL_COMP_Start_IT+0x94>)
 8000a56:	4290      	cmp	r0, r2
 8000a58:	d02e      	beq.n	8000ab8 <HAL_COMP_Start_IT+0x7c>
 8000a5a:	4a1e      	ldr	r2, [pc, #120]	; (8000ad4 <HAL_COMP_Start_IT+0x98>)
 8000a5c:	6811      	ldr	r1, [r2, #0]
 8000a5e:	4321      	orrs	r1, r4
 8000a60:	6011      	str	r1, [r2, #0]
 8000a62:	2102      	movs	r1, #2
 8000a64:	6299      	str	r1, [r3, #40]	; 0x28
 8000a66:	4290      	cmp	r0, r2
 8000a68:	d022      	beq.n	8000ab0 <HAL_COMP_Start_IT+0x74>
 8000a6a:	2180      	movs	r1, #128	; 0x80
 8000a6c:	4a1a      	ldr	r2, [pc, #104]	; (8000ad8 <HAL_COMP_Start_IT+0x9c>)
 8000a6e:	03c9      	lsls	r1, r1, #15
 8000a70:	6a1b      	ldr	r3, [r3, #32]
 8000a72:	4c1a      	ldr	r4, [pc, #104]	; (8000adc <HAL_COMP_Start_IT+0xa0>)
 8000a74:	07d8      	lsls	r0, r3, #31
 8000a76:	d50f      	bpl.n	8000a98 <HAL_COMP_Start_IT+0x5c>
 8000a78:	68a0      	ldr	r0, [r4, #8]
 8000a7a:	4308      	orrs	r0, r1
 8000a7c:	60a0      	str	r0, [r4, #8]
 8000a7e:	079b      	lsls	r3, r3, #30
 8000a80:	d50f      	bpl.n	8000aa2 <HAL_COMP_Start_IT+0x66>
 8000a82:	4a16      	ldr	r2, [pc, #88]	; (8000adc <HAL_COMP_Start_IT+0xa0>)
 8000a84:	68d3      	ldr	r3, [r2, #12]
 8000a86:	430b      	orrs	r3, r1
 8000a88:	60d3      	str	r3, [r2, #12]
 8000a8a:	4b14      	ldr	r3, [pc, #80]	; (8000adc <HAL_COMP_Start_IT+0xa0>)
 8000a8c:	2000      	movs	r0, #0
 8000a8e:	6159      	str	r1, [r3, #20]
 8000a90:	681a      	ldr	r2, [r3, #0]
 8000a92:	430a      	orrs	r2, r1
 8000a94:	601a      	str	r2, [r3, #0]
 8000a96:	e7db      	b.n	8000a50 <HAL_COMP_Start_IT+0x14>
 8000a98:	68a0      	ldr	r0, [r4, #8]
 8000a9a:	4010      	ands	r0, r2
 8000a9c:	60a0      	str	r0, [r4, #8]
 8000a9e:	079b      	lsls	r3, r3, #30
 8000aa0:	d4ef      	bmi.n	8000a82 <HAL_COMP_Start_IT+0x46>
 8000aa2:	4b0e      	ldr	r3, [pc, #56]	; (8000adc <HAL_COMP_Start_IT+0xa0>)
 8000aa4:	68d8      	ldr	r0, [r3, #12]
 8000aa6:	4002      	ands	r2, r0
 8000aa8:	60da      	str	r2, [r3, #12]
 8000aaa:	e7ee      	b.n	8000a8a <HAL_COMP_Start_IT+0x4e>
 8000aac:	2001      	movs	r0, #1
 8000aae:	e7cf      	b.n	8000a50 <HAL_COMP_Start_IT+0x14>
 8000ab0:	2180      	movs	r1, #128	; 0x80
 8000ab2:	4a0b      	ldr	r2, [pc, #44]	; (8000ae0 <HAL_COMP_Start_IT+0xa4>)
 8000ab4:	0389      	lsls	r1, r1, #14
 8000ab6:	e7db      	b.n	8000a70 <HAL_COMP_Start_IT+0x34>
 8000ab8:	2280      	movs	r2, #128	; 0x80
 8000aba:	4906      	ldr	r1, [pc, #24]	; (8000ad4 <HAL_COMP_Start_IT+0x98>)
 8000abc:	0252      	lsls	r2, r2, #9
 8000abe:	6808      	ldr	r0, [r1, #0]
 8000ac0:	4302      	orrs	r2, r0
 8000ac2:	600a      	str	r2, [r1, #0]
 8000ac4:	2202      	movs	r2, #2
 8000ac6:	2180      	movs	r1, #128	; 0x80
 8000ac8:	629a      	str	r2, [r3, #40]	; 0x28
 8000aca:	03c9      	lsls	r1, r1, #15
 8000acc:	4a02      	ldr	r2, [pc, #8]	; (8000ad8 <HAL_COMP_Start_IT+0x9c>)
 8000ace:	e7cf      	b.n	8000a70 <HAL_COMP_Start_IT+0x34>
 8000ad0:	4001001e 	.word	0x4001001e
 8000ad4:	4001001c 	.word	0x4001001c
 8000ad8:	ffbfffff 	.word	0xffbfffff
 8000adc:	40010400 	.word	0x40010400
 8000ae0:	ffdfffff 	.word	0xffdfffff

08000ae4 <HAL_COMP_Stop_IT>:
 8000ae4:	0002      	movs	r2, r0
 8000ae6:	4b11      	ldr	r3, [pc, #68]	; (8000b2c <HAL_COMP_Stop_IT+0x48>)
 8000ae8:	6801      	ldr	r1, [r0, #0]
 8000aea:	4811      	ldr	r0, [pc, #68]	; (8000b30 <HAL_COMP_Stop_IT+0x4c>)
 8000aec:	681b      	ldr	r3, [r3, #0]
 8000aee:	4281      	cmp	r1, r0
 8000af0:	d018      	beq.n	8000b24 <HAL_COMP_Stop_IT+0x40>
 8000af2:	4810      	ldr	r0, [pc, #64]	; (8000b34 <HAL_COMP_Stop_IT+0x50>)
 8000af4:	4003      	ands	r3, r0
 8000af6:	480d      	ldr	r0, [pc, #52]	; (8000b2c <HAL_COMP_Stop_IT+0x48>)
 8000af8:	6003      	str	r3, [r0, #0]
 8000afa:	6a93      	ldr	r3, [r2, #40]	; 0x28
 8000afc:	2001      	movs	r0, #1
 8000afe:	06db      	lsls	r3, r3, #27
 8000b00:	d402      	bmi.n	8000b08 <HAL_COMP_Stop_IT+0x24>
 8000b02:	6a93      	ldr	r3, [r2, #40]	; 0x28
 8000b04:	2b02      	cmp	r3, #2
 8000b06:	d000      	beq.n	8000b0a <HAL_COMP_Stop_IT+0x26>
 8000b08:	4770      	bx	lr
 8000b0a:	4b0b      	ldr	r3, [pc, #44]	; (8000b38 <HAL_COMP_Stop_IT+0x54>)
 8000b0c:	4299      	cmp	r1, r3
 8000b0e:	d00b      	beq.n	8000b28 <HAL_COMP_Stop_IT+0x44>
 8000b10:	2302      	movs	r3, #2
 8000b12:	425b      	negs	r3, r3
 8000b14:	4906      	ldr	r1, [pc, #24]	; (8000b30 <HAL_COMP_Stop_IT+0x4c>)
 8000b16:	6808      	ldr	r0, [r1, #0]
 8000b18:	4003      	ands	r3, r0
 8000b1a:	600b      	str	r3, [r1, #0]
 8000b1c:	2301      	movs	r3, #1
 8000b1e:	2000      	movs	r0, #0
 8000b20:	6293      	str	r3, [r2, #40]	; 0x28
 8000b22:	e7f1      	b.n	8000b08 <HAL_COMP_Stop_IT+0x24>
 8000b24:	4805      	ldr	r0, [pc, #20]	; (8000b3c <HAL_COMP_Stop_IT+0x58>)
 8000b26:	e7e5      	b.n	8000af4 <HAL_COMP_Stop_IT+0x10>
 8000b28:	4b05      	ldr	r3, [pc, #20]	; (8000b40 <HAL_COMP_Stop_IT+0x5c>)
 8000b2a:	e7f3      	b.n	8000b14 <HAL_COMP_Stop_IT+0x30>
 8000b2c:	40010400 	.word	0x40010400
 8000b30:	4001001c 	.word	0x4001001c
 8000b34:	ffbfffff 	.word	0xffbfffff
 8000b38:	4001001e 	.word	0x4001001e
 8000b3c:	ffdfffff 	.word	0xffdfffff
 8000b40:	fffeffff 	.word	0xfffeffff

08000b44 <HAL_COMP_GetOutputLevel>:
 8000b44:	6802      	ldr	r2, [r0, #0]
 8000b46:	4b07      	ldr	r3, [pc, #28]	; (8000b64 <HAL_COMP_GetOutputLevel+0x20>)
 8000b48:	2080      	movs	r0, #128	; 0x80
 8000b4a:	429a      	cmp	r2, r3
 8000b4c:	d007      	beq.n	8000b5e <HAL_COMP_GetOutputLevel+0x1a>
 8000b4e:	01c0      	lsls	r0, r0, #7
 8000b50:	4b05      	ldr	r3, [pc, #20]	; (8000b68 <HAL_COMP_GetOutputLevel+0x24>)
 8000b52:	681b      	ldr	r3, [r3, #0]
 8000b54:	4018      	ands	r0, r3
 8000b56:	d001      	beq.n	8000b5c <HAL_COMP_GetOutputLevel+0x18>
 8000b58:	2080      	movs	r0, #128	; 0x80
 8000b5a:	01c0      	lsls	r0, r0, #7
 8000b5c:	4770      	bx	lr
 8000b5e:	05c0      	lsls	r0, r0, #23
 8000b60:	e7f6      	b.n	8000b50 <HAL_COMP_GetOutputLevel+0xc>
 8000b62:	46c0      	nop			; (mov r8, r8)
 8000b64:	4001001e 	.word	0x4001001e
 8000b68:	4001001c 	.word	0x4001001c

08000b6c <HAL_COMP_IRQHandler>:
 8000b6c:	4b08      	ldr	r3, [pc, #32]	; (8000b90 <HAL_COMP_IRQHandler+0x24>)
 8000b6e:	6802      	ldr	r2, [r0, #0]
 8000b70:	b510      	push	{r4, lr}
 8000b72:	429a      	cmp	r2, r3
 8000b74:	d009      	beq.n	8000b8a <HAL_COMP_IRQHandler+0x1e>
 8000b76:	2280      	movs	r2, #128	; 0x80
 8000b78:	03d2      	lsls	r2, r2, #15
 8000b7a:	4b06      	ldr	r3, [pc, #24]	; (8000b94 <HAL_COMP_IRQHandler+0x28>)
 8000b7c:	6959      	ldr	r1, [r3, #20]
 8000b7e:	4211      	tst	r1, r2
 8000b80:	d002      	beq.n	8000b88 <HAL_COMP_IRQHandler+0x1c>
 8000b82:	615a      	str	r2, [r3, #20]
 8000b84:	f003 f9fe 	bl	8003f84 <HAL_COMP_TriggerCallback>
 8000b88:	bd10      	pop	{r4, pc}
 8000b8a:	2280      	movs	r2, #128	; 0x80
 8000b8c:	0392      	lsls	r2, r2, #14
 8000b8e:	e7f4      	b.n	8000b7a <HAL_COMP_IRQHandler+0xe>
 8000b90:	4001001c 	.word	0x4001001c
 8000b94:	40010400 	.word	0x40010400

08000b98 <HAL_NVIC_SetPriority>:
 8000b98:	b570      	push	{r4, r5, r6, lr}
 8000b9a:	2800      	cmp	r0, #0
 8000b9c:	db14      	blt.n	8000bc8 <HAL_NVIC_SetPriority+0x30>
 8000b9e:	4a16      	ldr	r2, [pc, #88]	; (8000bf8 <HAL_NVIC_SetPriority+0x60>)
 8000ba0:	2403      	movs	r4, #3
 8000ba2:	4694      	mov	ip, r2
 8000ba4:	22ff      	movs	r2, #255	; 0xff
 8000ba6:	0883      	lsrs	r3, r0, #2
 8000ba8:	4020      	ands	r0, r4
 8000baa:	0014      	movs	r4, r2
 8000bac:	26c0      	movs	r6, #192	; 0xc0
 8000bae:	00c0      	lsls	r0, r0, #3
 8000bb0:	0189      	lsls	r1, r1, #6
 8000bb2:	4084      	lsls	r4, r0
 8000bb4:	400a      	ands	r2, r1
 8000bb6:	4082      	lsls	r2, r0
 8000bb8:	009b      	lsls	r3, r3, #2
 8000bba:	4463      	add	r3, ip
 8000bbc:	00b6      	lsls	r6, r6, #2
 8000bbe:	599d      	ldr	r5, [r3, r6]
 8000bc0:	43a5      	bics	r5, r4
 8000bc2:	432a      	orrs	r2, r5
 8000bc4:	519a      	str	r2, [r3, r6]
 8000bc6:	bd70      	pop	{r4, r5, r6, pc}
 8000bc8:	4a0c      	ldr	r2, [pc, #48]	; (8000bfc <HAL_NVIC_SetPriority+0x64>)
 8000bca:	24ff      	movs	r4, #255	; 0xff
 8000bcc:	4694      	mov	ip, r2
 8000bce:	230f      	movs	r3, #15
 8000bd0:	2203      	movs	r2, #3
 8000bd2:	b2c0      	uxtb	r0, r0
 8000bd4:	4003      	ands	r3, r0
 8000bd6:	4010      	ands	r0, r2
 8000bd8:	0022      	movs	r2, r4
 8000bda:	00c0      	lsls	r0, r0, #3
 8000bdc:	0189      	lsls	r1, r1, #6
 8000bde:	4082      	lsls	r2, r0
 8000be0:	400c      	ands	r4, r1
 8000be2:	4084      	lsls	r4, r0
 8000be4:	3b08      	subs	r3, #8
 8000be6:	089b      	lsrs	r3, r3, #2
 8000be8:	009b      	lsls	r3, r3, #2
 8000bea:	4463      	add	r3, ip
 8000bec:	69dd      	ldr	r5, [r3, #28]
 8000bee:	4395      	bics	r5, r2
 8000bf0:	432c      	orrs	r4, r5
 8000bf2:	61dc      	str	r4, [r3, #28]
 8000bf4:	e7e7      	b.n	8000bc6 <HAL_NVIC_SetPriority+0x2e>
 8000bf6:	46c0      	nop			; (mov r8, r8)
 8000bf8:	e000e100 	.word	0xe000e100
 8000bfc:	e000ed00 	.word	0xe000ed00

08000c00 <HAL_NVIC_EnableIRQ>:
 8000c00:	231f      	movs	r3, #31
 8000c02:	4018      	ands	r0, r3
 8000c04:	3b1e      	subs	r3, #30
 8000c06:	4083      	lsls	r3, r0
 8000c08:	4a01      	ldr	r2, [pc, #4]	; (8000c10 <HAL_NVIC_EnableIRQ+0x10>)
 8000c0a:	6013      	str	r3, [r2, #0]
 8000c0c:	4770      	bx	lr
 8000c0e:	46c0      	nop			; (mov r8, r8)
 8000c10:	e000e100 	.word	0xe000e100

08000c14 <HAL_SYSTICK_Config>:
 8000c14:	4a0a      	ldr	r2, [pc, #40]	; (8000c40 <HAL_SYSTICK_Config+0x2c>)
 8000c16:	1e43      	subs	r3, r0, #1
 8000c18:	2001      	movs	r0, #1
 8000c1a:	4293      	cmp	r3, r2
 8000c1c:	d80e      	bhi.n	8000c3c <HAL_SYSTICK_Config+0x28>
 8000c1e:	21c0      	movs	r1, #192	; 0xc0
 8000c20:	4a08      	ldr	r2, [pc, #32]	; (8000c44 <HAL_SYSTICK_Config+0x30>)
 8000c22:	4809      	ldr	r0, [pc, #36]	; (8000c48 <HAL_SYSTICK_Config+0x34>)
 8000c24:	6053      	str	r3, [r2, #4]
 8000c26:	6a03      	ldr	r3, [r0, #32]
 8000c28:	0609      	lsls	r1, r1, #24
 8000c2a:	021b      	lsls	r3, r3, #8
 8000c2c:	0a1b      	lsrs	r3, r3, #8
 8000c2e:	430b      	orrs	r3, r1
 8000c30:	6203      	str	r3, [r0, #32]
 8000c32:	2300      	movs	r3, #0
 8000c34:	2000      	movs	r0, #0
 8000c36:	6093      	str	r3, [r2, #8]
 8000c38:	3307      	adds	r3, #7
 8000c3a:	6013      	str	r3, [r2, #0]
 8000c3c:	4770      	bx	lr
 8000c3e:	46c0      	nop			; (mov r8, r8)
 8000c40:	00ffffff 	.word	0x00ffffff
 8000c44:	e000e010 	.word	0xe000e010
 8000c48:	e000ed00 	.word	0xe000ed00

08000c4c <HAL_SYSTICK_CLKSourceConfig>:
 8000c4c:	4a05      	ldr	r2, [pc, #20]	; (8000c64 <HAL_SYSTICK_CLKSourceConfig+0x18>)
 8000c4e:	6813      	ldr	r3, [r2, #0]
 8000c50:	2804      	cmp	r0, #4
 8000c52:	d003      	beq.n	8000c5c <HAL_SYSTICK_CLKSourceConfig+0x10>
 8000c54:	2104      	movs	r1, #4
 8000c56:	438b      	bics	r3, r1
 8000c58:	6013      	str	r3, [r2, #0]
 8000c5a:	4770      	bx	lr
 8000c5c:	4318      	orrs	r0, r3
 8000c5e:	6010      	str	r0, [r2, #0]
 8000c60:	e7fb      	b.n	8000c5a <HAL_SYSTICK_CLKSourceConfig+0xe>
 8000c62:	46c0      	nop			; (mov r8, r8)
 8000c64:	e000e010 	.word	0xe000e010

08000c68 <HAL_SYSTICK_Callback>:
 8000c68:	4770      	bx	lr
 8000c6a:	46c0      	nop			; (mov r8, r8)

08000c6c <HAL_SYSTICK_IRQHandler>:
 8000c6c:	b510      	push	{r4, lr}
 8000c6e:	f7ff fffb 	bl	8000c68 <HAL_SYSTICK_Callback>
 8000c72:	bd10      	pop	{r4, pc}

08000c74 <HAL_DMA_Init>:
 8000c74:	b570      	push	{r4, r5, r6, lr}
 8000c76:	1e04      	subs	r4, r0, #0
 8000c78:	d02b      	beq.n	8000cd2 <HAL_DMA_Init+0x5e>
 8000c7a:	2521      	movs	r5, #33	; 0x21
 8000c7c:	2302      	movs	r3, #2
 8000c7e:	5543      	strb	r3, [r0, r5]
 8000c80:	6800      	ldr	r0, [r0, #0]
 8000c82:	4a15      	ldr	r2, [pc, #84]	; (8000cd8 <HAL_DMA_Init+0x64>)
 8000c84:	6803      	ldr	r3, [r0, #0]
 8000c86:	68a1      	ldr	r1, [r4, #8]
 8000c88:	401a      	ands	r2, r3
 8000c8a:	6863      	ldr	r3, [r4, #4]
 8000c8c:	430b      	orrs	r3, r1
 8000c8e:	68e1      	ldr	r1, [r4, #12]
 8000c90:	430b      	orrs	r3, r1
 8000c92:	6921      	ldr	r1, [r4, #16]
 8000c94:	430b      	orrs	r3, r1
 8000c96:	6961      	ldr	r1, [r4, #20]
 8000c98:	430b      	orrs	r3, r1
 8000c9a:	69a1      	ldr	r1, [r4, #24]
 8000c9c:	430b      	orrs	r3, r1
 8000c9e:	69e1      	ldr	r1, [r4, #28]
 8000ca0:	430b      	orrs	r3, r1
 8000ca2:	4313      	orrs	r3, r2
 8000ca4:	6003      	str	r3, [r0, #0]
 8000ca6:	4b0d      	ldr	r3, [pc, #52]	; (8000cdc <HAL_DMA_Init+0x68>)
 8000ca8:	2114      	movs	r1, #20
 8000caa:	469c      	mov	ip, r3
 8000cac:	4460      	add	r0, ip
 8000cae:	f7ff fa2b 	bl	8000108 <__udivsi3>
 8000cb2:	4b0b      	ldr	r3, [pc, #44]	; (8000ce0 <HAL_DMA_Init+0x6c>)
 8000cb4:	2201      	movs	r2, #1
 8000cb6:	63e3      	str	r3, [r4, #60]	; 0x3c
 8000cb8:	2300      	movs	r3, #0
 8000cba:	0080      	lsls	r0, r0, #2
 8000cbc:	6420      	str	r0, [r4, #64]	; 0x40
 8000cbe:	2000      	movs	r0, #0
 8000cc0:	62a3      	str	r3, [r4, #40]	; 0x28
 8000cc2:	62e3      	str	r3, [r4, #44]	; 0x2c
 8000cc4:	6323      	str	r3, [r4, #48]	; 0x30
 8000cc6:	6363      	str	r3, [r4, #52]	; 0x34
 8000cc8:	63a3      	str	r3, [r4, #56]	; 0x38
 8000cca:	5562      	strb	r2, [r4, r5]
 8000ccc:	321f      	adds	r2, #31
 8000cce:	54a3      	strb	r3, [r4, r2]
 8000cd0:	bd70      	pop	{r4, r5, r6, pc}
 8000cd2:	2001      	movs	r0, #1
 8000cd4:	e7fc      	b.n	8000cd0 <HAL_DMA_Init+0x5c>
 8000cd6:	46c0      	nop			; (mov r8, r8)
 8000cd8:	ffffc00f 	.word	0xffffc00f
 8000cdc:	bffdfff8 	.word	0xbffdfff8
 8000ce0:	40020000 	.word	0x40020000

08000ce4 <HAL_DMA_Start_IT>:
 8000ce4:	b5f0      	push	{r4, r5, r6, r7, lr}
 8000ce6:	2420      	movs	r4, #32
 8000ce8:	5d05      	ldrb	r5, [r0, r4]
 8000cea:	2602      	movs	r6, #2
 8000cec:	2d01      	cmp	r5, #1
 8000cee:	d008      	beq.n	8000d02 <HAL_DMA_Start_IT+0x1e>
 8000cf0:	2501      	movs	r5, #1
 8000cf2:	2721      	movs	r7, #33	; 0x21
 8000cf4:	5505      	strb	r5, [r0, r4]
 8000cf6:	5dc5      	ldrb	r5, [r0, r7]
 8000cf8:	b2ed      	uxtb	r5, r5
 8000cfa:	2d01      	cmp	r5, #1
 8000cfc:	d003      	beq.n	8000d06 <HAL_DMA_Start_IT+0x22>
 8000cfe:	2300      	movs	r3, #0
 8000d00:	5503      	strb	r3, [r0, r4]
 8000d02:	0030      	movs	r0, r6
 8000d04:	bdf0      	pop	{r4, r5, r6, r7, pc}
 8000d06:	2400      	movs	r4, #0
 8000d08:	55c6      	strb	r6, [r0, r7]
 8000d0a:	6384      	str	r4, [r0, #56]	; 0x38
 8000d0c:	6804      	ldr	r4, [r0, #0]
 8000d0e:	6c07      	ldr	r7, [r0, #64]	; 0x40
 8000d10:	6826      	ldr	r6, [r4, #0]
 8000d12:	43ae      	bics	r6, r5
 8000d14:	40bd      	lsls	r5, r7
 8000d16:	6026      	str	r6, [r4, #0]
 8000d18:	6bc6      	ldr	r6, [r0, #60]	; 0x3c
 8000d1a:	6075      	str	r5, [r6, #4]
 8000d1c:	6063      	str	r3, [r4, #4]
 8000d1e:	6843      	ldr	r3, [r0, #4]
 8000d20:	2b10      	cmp	r3, #16
 8000d22:	d00e      	beq.n	8000d42 <HAL_DMA_Start_IT+0x5e>
 8000d24:	60a1      	str	r1, [r4, #8]
 8000d26:	60e2      	str	r2, [r4, #12]
 8000d28:	6ac3      	ldr	r3, [r0, #44]	; 0x2c
 8000d2a:	2b00      	cmp	r3, #0
 8000d2c:	d00c      	beq.n	8000d48 <HAL_DMA_Start_IT+0x64>
 8000d2e:	220e      	movs	r2, #14
 8000d30:	6823      	ldr	r3, [r4, #0]
 8000d32:	4313      	orrs	r3, r2
 8000d34:	6023      	str	r3, [r4, #0]
 8000d36:	2201      	movs	r2, #1
 8000d38:	6823      	ldr	r3, [r4, #0]
 8000d3a:	2600      	movs	r6, #0
 8000d3c:	4313      	orrs	r3, r2
 8000d3e:	6023      	str	r3, [r4, #0]
 8000d40:	e7df      	b.n	8000d02 <HAL_DMA_Start_IT+0x1e>
 8000d42:	60a2      	str	r2, [r4, #8]
 8000d44:	60e1      	str	r1, [r4, #12]
 8000d46:	e7ef      	b.n	8000d28 <HAL_DMA_Start_IT+0x44>
 8000d48:	220a      	movs	r2, #10
 8000d4a:	6823      	ldr	r3, [r4, #0]
 8000d4c:	4313      	orrs	r3, r2
 8000d4e:	6023      	str	r3, [r4, #0]
 8000d50:	6823      	ldr	r3, [r4, #0]
 8000d52:	3a06      	subs	r2, #6
 8000d54:	4393      	bics	r3, r2
 8000d56:	6023      	str	r3, [r4, #0]
 8000d58:	e7ed      	b.n	8000d36 <HAL_DMA_Start_IT+0x52>
 8000d5a:	46c0      	nop			; (mov r8, r8)

08000d5c <HAL_DMA_IRQHandler>:
 8000d5c:	b5f8      	push	{r3, r4, r5, r6, r7, lr}
 8000d5e:	2504      	movs	r5, #4
 8000d60:	002e      	movs	r6, r5
 8000d62:	6c03      	ldr	r3, [r0, #64]	; 0x40
 8000d64:	6bc4      	ldr	r4, [r0, #60]	; 0x3c
 8000d66:	409e      	lsls	r6, r3
 8000d68:	6822      	ldr	r2, [r4, #0]
 8000d6a:	6801      	ldr	r1, [r0, #0]
 8000d6c:	680f      	ldr	r7, [r1, #0]
 8000d6e:	4216      	tst	r6, r2
 8000d70:	d00d      	beq.n	8000d8e <HAL_DMA_IRQHandler+0x32>
 8000d72:	423d      	tst	r5, r7
 8000d74:	d00b      	beq.n	8000d8e <HAL_DMA_IRQHandler+0x32>
 8000d76:	680b      	ldr	r3, [r1, #0]
 8000d78:	069b      	lsls	r3, r3, #26
 8000d7a:	d402      	bmi.n	8000d82 <HAL_DMA_IRQHandler+0x26>
 8000d7c:	680b      	ldr	r3, [r1, #0]
 8000d7e:	43ab      	bics	r3, r5
 8000d80:	600b      	str	r3, [r1, #0]
 8000d82:	6ac3      	ldr	r3, [r0, #44]	; 0x2c
 8000d84:	6066      	str	r6, [r4, #4]
 8000d86:	2b00      	cmp	r3, #0
 8000d88:	d000      	beq.n	8000d8c <HAL_DMA_IRQHandler+0x30>
 8000d8a:	4798      	blx	r3
 8000d8c:	bdf8      	pop	{r3, r4, r5, r6, r7, pc}
 8000d8e:	2502      	movs	r5, #2
 8000d90:	002e      	movs	r6, r5
 8000d92:	409e      	lsls	r6, r3
 8000d94:	4216      	tst	r6, r2
 8000d96:	d014      	beq.n	8000dc2 <HAL_DMA_IRQHandler+0x66>
 8000d98:	423d      	tst	r5, r7
 8000d9a:	d012      	beq.n	8000dc2 <HAL_DMA_IRQHandler+0x66>
 8000d9c:	680b      	ldr	r3, [r1, #0]
 8000d9e:	069b      	lsls	r3, r3, #26
 8000da0:	d406      	bmi.n	8000db0 <HAL_DMA_IRQHandler+0x54>
 8000da2:	220a      	movs	r2, #10
 8000da4:	680b      	ldr	r3, [r1, #0]
 8000da6:	4393      	bics	r3, r2
 8000da8:	600b      	str	r3, [r1, #0]
 8000daa:	2321      	movs	r3, #33	; 0x21
 8000dac:	3a09      	subs	r2, #9
 8000dae:	54c2      	strb	r2, [r0, r3]
 8000db0:	2320      	movs	r3, #32
 8000db2:	2200      	movs	r2, #0
 8000db4:	6066      	str	r6, [r4, #4]
 8000db6:	54c2      	strb	r2, [r0, r3]
 8000db8:	6a83      	ldr	r3, [r0, #40]	; 0x28
 8000dba:	2b00      	cmp	r3, #0
 8000dbc:	d0e6      	beq.n	8000d8c <HAL_DMA_IRQHandler+0x30>
 8000dbe:	4798      	blx	r3
 8000dc0:	e7e4      	b.n	8000d8c <HAL_DMA_IRQHandler+0x30>
 8000dc2:	2508      	movs	r5, #8
 8000dc4:	002e      	movs	r6, r5
 8000dc6:	409e      	lsls	r6, r3
 8000dc8:	4232      	tst	r2, r6
 8000dca:	d0df      	beq.n	8000d8c <HAL_DMA_IRQHandler+0x30>
 8000dcc:	423d      	tst	r5, r7
 8000dce:	d0dd      	beq.n	8000d8c <HAL_DMA_IRQHandler+0x30>
 8000dd0:	680a      	ldr	r2, [r1, #0]
 8000dd2:	3506      	adds	r5, #6
 8000dd4:	43aa      	bics	r2, r5
 8000dd6:	600a      	str	r2, [r1, #0]
 8000dd8:	2201      	movs	r2, #1
 8000dda:	0011      	movs	r1, r2
 8000ddc:	4099      	lsls	r1, r3
 8000dde:	2321      	movs	r3, #33	; 0x21
 8000de0:	6061      	str	r1, [r4, #4]
 8000de2:	6382      	str	r2, [r0, #56]	; 0x38
 8000de4:	54c2      	strb	r2, [r0, r3]
 8000de6:	2200      	movs	r2, #0
 8000de8:	3b01      	subs	r3, #1
 8000dea:	54c2      	strb	r2, [r0, r3]
 8000dec:	6b03      	ldr	r3, [r0, #48]	; 0x30
 8000dee:	2b00      	cmp	r3, #0
 8000df0:	d0cc      	beq.n	8000d8c <HAL_DMA_IRQHandler+0x30>
 8000df2:	4798      	blx	r3
 8000df4:	e7ca      	b.n	8000d8c <HAL_DMA_IRQHandler+0x30>
 8000df6:	46c0      	nop			; (mov r8, r8)

08000df8 <HAL_FLASH_Program>:
 8000df8:	b5f0      	push	{r4, r5, r6, r7, lr}
 8000dfa:	46de      	mov	lr, fp
 8000dfc:	4657      	mov	r7, sl
 8000dfe:	464e      	mov	r6, r9
 8000e00:	4645      	mov	r5, r8
 8000e02:	b5e0      	push	{r5, r6, r7, lr}
 8000e04:	469b      	mov	fp, r3
 8000e06:	b083      	sub	sp, #12
 8000e08:	4b67      	ldr	r3, [pc, #412]	; (8000fa8 <HAL_FLASH_Program+0x1b0>)
 8000e0a:	9201      	str	r2, [sp, #4]
 8000e0c:	469a      	mov	sl, r3
 8000e0e:	7e1b      	ldrb	r3, [r3, #24]
 8000e10:	4680      	mov	r8, r0
 8000e12:	4689      	mov	r9, r1
 8000e14:	2002      	movs	r0, #2
 8000e16:	2b01      	cmp	r3, #1
 8000e18:	d106      	bne.n	8000e28 <HAL_FLASH_Program+0x30>
 8000e1a:	b003      	add	sp, #12
 8000e1c:	bc3c      	pop	{r2, r3, r4, r5}
 8000e1e:	4690      	mov	r8, r2
 8000e20:	4699      	mov	r9, r3
 8000e22:	46a2      	mov	sl, r4
 8000e24:	46ab      	mov	fp, r5
 8000e26:	bdf0      	pop	{r4, r5, r6, r7, pc}
 8000e28:	2301      	movs	r3, #1
 8000e2a:	4652      	mov	r2, sl
 8000e2c:	7613      	strb	r3, [r2, #24]
 8000e2e:	f7ff fb0b 	bl	8000448 <HAL_GetTick>
 8000e32:	4c5e      	ldr	r4, [pc, #376]	; (8000fac <HAL_FLASH_Program+0x1b4>)
 8000e34:	0007      	movs	r7, r0
 8000e36:	2501      	movs	r5, #1
 8000e38:	4e5d      	ldr	r6, [pc, #372]	; (8000fb0 <HAL_FLASH_Program+0x1b8>)
 8000e3a:	e005      	b.n	8000e48 <HAL_FLASH_Program+0x50>
 8000e3c:	f7ff fb04 	bl	8000448 <HAL_GetTick>
 8000e40:	1bc0      	subs	r0, r0, r7
 8000e42:	42b0      	cmp	r0, r6
 8000e44:	d900      	bls.n	8000e48 <HAL_FLASH_Program+0x50>
 8000e46:	e0a6      	b.n	8000f96 <HAL_FLASH_Program+0x19e>
 8000e48:	68e3      	ldr	r3, [r4, #12]
 8000e4a:	421d      	tst	r5, r3
 8000e4c:	d1f6      	bne.n	8000e3c <HAL_FLASH_Program+0x44>
 8000e4e:	2320      	movs	r3, #32
 8000e50:	68e2      	ldr	r2, [r4, #12]
 8000e52:	4213      	tst	r3, r2
 8000e54:	d000      	beq.n	8000e58 <HAL_FLASH_Program+0x60>
 8000e56:	60e3      	str	r3, [r4, #12]
 8000e58:	4b54      	ldr	r3, [pc, #336]	; (8000fac <HAL_FLASH_Program+0x1b4>)
 8000e5a:	68da      	ldr	r2, [r3, #12]
 8000e5c:	06d2      	lsls	r2, r2, #27
 8000e5e:	d402      	bmi.n	8000e66 <HAL_FLASH_Program+0x6e>
 8000e60:	68db      	ldr	r3, [r3, #12]
 8000e62:	075b      	lsls	r3, r3, #29
 8000e64:	d51e      	bpl.n	8000ea4 <HAL_FLASH_Program+0xac>
 8000e66:	4b51      	ldr	r3, [pc, #324]	; (8000fac <HAL_FLASH_Program+0x1b4>)
 8000e68:	68db      	ldr	r3, [r3, #12]
 8000e6a:	06db      	lsls	r3, r3, #27
 8000e6c:	d400      	bmi.n	8000e70 <HAL_FLASH_Program+0x78>
 8000e6e:	e094      	b.n	8000f9a <HAL_FLASH_Program+0x1a2>
 8000e70:	4653      	mov	r3, sl
 8000e72:	2202      	movs	r2, #2
 8000e74:	69db      	ldr	r3, [r3, #28]
 8000e76:	2114      	movs	r1, #20
 8000e78:	4313      	orrs	r3, r2
 8000e7a:	4652      	mov	r2, sl
 8000e7c:	61d3      	str	r3, [r2, #28]
 8000e7e:	2310      	movs	r3, #16
 8000e80:	4a4a      	ldr	r2, [pc, #296]	; (8000fac <HAL_FLASH_Program+0x1b4>)
 8000e82:	68d2      	ldr	r2, [r2, #12]
 8000e84:	0752      	lsls	r2, r2, #29
 8000e86:	d506      	bpl.n	8000e96 <HAL_FLASH_Program+0x9e>
 8000e88:	4653      	mov	r3, sl
 8000e8a:	2201      	movs	r2, #1
 8000e8c:	69db      	ldr	r3, [r3, #28]
 8000e8e:	4313      	orrs	r3, r2
 8000e90:	4652      	mov	r2, sl
 8000e92:	61d3      	str	r3, [r2, #28]
 8000e94:	000b      	movs	r3, r1
 8000e96:	2001      	movs	r0, #1
 8000e98:	4a44      	ldr	r2, [pc, #272]	; (8000fac <HAL_FLASH_Program+0x1b4>)
 8000e9a:	60d3      	str	r3, [r2, #12]
 8000e9c:	2300      	movs	r3, #0
 8000e9e:	4652      	mov	r2, sl
 8000ea0:	7613      	strb	r3, [r2, #24]
 8000ea2:	e7ba      	b.n	8000e1a <HAL_FLASH_Program+0x22>
 8000ea4:	4643      	mov	r3, r8
 8000ea6:	2b01      	cmp	r3, #1
 8000ea8:	d07a      	beq.n	8000fa0 <HAL_FLASH_Program+0x1a8>
 8000eaa:	4642      	mov	r2, r8
 8000eac:	2304      	movs	r3, #4
 8000eae:	2a02      	cmp	r2, #2
 8000eb0:	d078      	beq.n	8000fa4 <HAL_FLASH_Program+0x1ac>
 8000eb2:	464a      	mov	r2, r9
 8000eb4:	3b01      	subs	r3, #1
 8000eb6:	b2db      	uxtb	r3, r3
 8000eb8:	005b      	lsls	r3, r3, #1
 8000eba:	3202      	adds	r2, #2
 8000ebc:	189b      	adds	r3, r3, r2
 8000ebe:	9300      	str	r3, [sp, #0]
 8000ec0:	2300      	movs	r3, #0
 8000ec2:	2501      	movs	r5, #1
 8000ec4:	4698      	mov	r8, r3
 8000ec6:	4c39      	ldr	r4, [pc, #228]	; (8000fac <HAL_FLASH_Program+0x1b4>)
 8000ec8:	2220      	movs	r2, #32
 8000eca:	4643      	mov	r3, r8
 8000ecc:	4252      	negs	r2, r2
 8000ece:	189b      	adds	r3, r3, r2
 8000ed0:	d457      	bmi.n	8000f82 <HAL_FLASH_Program+0x18a>
 8000ed2:	465a      	mov	r2, fp
 8000ed4:	40da      	lsrs	r2, r3
 8000ed6:	0013      	movs	r3, r2
 8000ed8:	2200      	movs	r2, #0
 8000eda:	4651      	mov	r1, sl
 8000edc:	61ca      	str	r2, [r1, #28]
 8000ede:	6922      	ldr	r2, [r4, #16]
 8000ee0:	b29b      	uxth	r3, r3
 8000ee2:	432a      	orrs	r2, r5
 8000ee4:	6122      	str	r2, [r4, #16]
 8000ee6:	464a      	mov	r2, r9
 8000ee8:	8013      	strh	r3, [r2, #0]
 8000eea:	f7ff faad 	bl	8000448 <HAL_GetTick>
 8000eee:	4e30      	ldr	r6, [pc, #192]	; (8000fb0 <HAL_FLASH_Program+0x1b8>)
 8000ef0:	0007      	movs	r7, r0
 8000ef2:	e004      	b.n	8000efe <HAL_FLASH_Program+0x106>
 8000ef4:	f7ff faa8 	bl	8000448 <HAL_GetTick>
 8000ef8:	1bc0      	subs	r0, r0, r7
 8000efa:	42b0      	cmp	r0, r6
 8000efc:	d83c      	bhi.n	8000f78 <HAL_FLASH_Program+0x180>
 8000efe:	68e3      	ldr	r3, [r4, #12]
 8000f00:	421d      	tst	r5, r3
 8000f02:	d1f7      	bne.n	8000ef4 <HAL_FLASH_Program+0xfc>
 8000f04:	2220      	movs	r2, #32
 8000f06:	68e3      	ldr	r3, [r4, #12]
 8000f08:	421a      	tst	r2, r3
 8000f0a:	d001      	beq.n	8000f10 <HAL_FLASH_Program+0x118>
 8000f0c:	2320      	movs	r3, #32
 8000f0e:	60e3      	str	r3, [r4, #12]
 8000f10:	68e3      	ldr	r3, [r4, #12]
 8000f12:	06db      	lsls	r3, r3, #27
 8000f14:	d402      	bmi.n	8000f1c <HAL_FLASH_Program+0x124>
 8000f16:	68e3      	ldr	r3, [r4, #12]
 8000f18:	075b      	lsls	r3, r3, #29
 8000f1a:	d51f      	bpl.n	8000f5c <HAL_FLASH_Program+0x164>
 8000f1c:	4b23      	ldr	r3, [pc, #140]	; (8000fac <HAL_FLASH_Program+0x1b4>)
 8000f1e:	68db      	ldr	r3, [r3, #12]
 8000f20:	06db      	lsls	r3, r3, #27
 8000f22:	d52b      	bpl.n	8000f7c <HAL_FLASH_Program+0x184>
 8000f24:	4653      	mov	r3, sl
 8000f26:	2202      	movs	r2, #2
 8000f28:	69db      	ldr	r3, [r3, #28]
 8000f2a:	2114      	movs	r1, #20
 8000f2c:	4313      	orrs	r3, r2
 8000f2e:	4652      	mov	r2, sl
 8000f30:	61d3      	str	r3, [r2, #28]
 8000f32:	2310      	movs	r3, #16
 8000f34:	4a1d      	ldr	r2, [pc, #116]	; (8000fac <HAL_FLASH_Program+0x1b4>)
 8000f36:	68d2      	ldr	r2, [r2, #12]
 8000f38:	0752      	lsls	r2, r2, #29
 8000f3a:	d506      	bpl.n	8000f4a <HAL_FLASH_Program+0x152>
 8000f3c:	4653      	mov	r3, sl
 8000f3e:	2201      	movs	r2, #1
 8000f40:	69db      	ldr	r3, [r3, #28]
 8000f42:	4313      	orrs	r3, r2
 8000f44:	4652      	mov	r2, sl
 8000f46:	61d3      	str	r3, [r2, #28]
 8000f48:	000b      	movs	r3, r1
 8000f4a:	2001      	movs	r0, #1
 8000f4c:	4a17      	ldr	r2, [pc, #92]	; (8000fac <HAL_FLASH_Program+0x1b4>)
 8000f4e:	60d3      	str	r3, [r2, #12]
 8000f50:	2101      	movs	r1, #1
 8000f52:	4a16      	ldr	r2, [pc, #88]	; (8000fac <HAL_FLASH_Program+0x1b4>)
 8000f54:	6913      	ldr	r3, [r2, #16]
 8000f56:	438b      	bics	r3, r1
 8000f58:	6113      	str	r3, [r2, #16]
 8000f5a:	e79f      	b.n	8000e9c <HAL_FLASH_Program+0xa4>
 8000f5c:	6923      	ldr	r3, [r4, #16]
 8000f5e:	43ab      	bics	r3, r5
 8000f60:	6123      	str	r3, [r4, #16]
 8000f62:	2310      	movs	r3, #16
 8000f64:	469c      	mov	ip, r3
 8000f66:	3b0e      	subs	r3, #14
 8000f68:	44e0      	add	r8, ip
 8000f6a:	469c      	mov	ip, r3
 8000f6c:	9b00      	ldr	r3, [sp, #0]
 8000f6e:	44e1      	add	r9, ip
 8000f70:	454b      	cmp	r3, r9
 8000f72:	d1a9      	bne.n	8000ec8 <HAL_FLASH_Program+0xd0>
 8000f74:	2000      	movs	r0, #0
 8000f76:	e791      	b.n	8000e9c <HAL_FLASH_Program+0xa4>
 8000f78:	2003      	movs	r0, #3
 8000f7a:	e7e9      	b.n	8000f50 <HAL_FLASH_Program+0x158>
 8000f7c:	2104      	movs	r1, #4
 8000f7e:	2300      	movs	r3, #0
 8000f80:	e7d8      	b.n	8000f34 <HAL_FLASH_Program+0x13c>
 8000f82:	4642      	mov	r2, r8
 8000f84:	2320      	movs	r3, #32
 8000f86:	1a9b      	subs	r3, r3, r2
 8000f88:	465a      	mov	r2, fp
 8000f8a:	4641      	mov	r1, r8
 8000f8c:	409a      	lsls	r2, r3
 8000f8e:	9b01      	ldr	r3, [sp, #4]
 8000f90:	40cb      	lsrs	r3, r1
 8000f92:	4313      	orrs	r3, r2
 8000f94:	e7a0      	b.n	8000ed8 <HAL_FLASH_Program+0xe0>
 8000f96:	2003      	movs	r0, #3
 8000f98:	e780      	b.n	8000e9c <HAL_FLASH_Program+0xa4>
 8000f9a:	2104      	movs	r1, #4
 8000f9c:	2300      	movs	r3, #0
 8000f9e:	e76f      	b.n	8000e80 <HAL_FLASH_Program+0x88>
 8000fa0:	2301      	movs	r3, #1
 8000fa2:	e786      	b.n	8000eb2 <HAL_FLASH_Program+0xba>
 8000fa4:	3b02      	subs	r3, #2
 8000fa6:	e784      	b.n	8000eb2 <HAL_FLASH_Program+0xba>
 8000fa8:	20000188 	.word	0x20000188
 8000fac:	40022000 	.word	0x40022000
 8000fb0:	0000c350 	.word	0x0000c350

08000fb4 <HAL_FLASH_Unlock>:
 8000fb4:	4b05      	ldr	r3, [pc, #20]	; (8000fcc <HAL_FLASH_Unlock+0x18>)
 8000fb6:	2001      	movs	r0, #1
 8000fb8:	691a      	ldr	r2, [r3, #16]
 8000fba:	0612      	lsls	r2, r2, #24
 8000fbc:	d504      	bpl.n	8000fc8 <HAL_FLASH_Unlock+0x14>
 8000fbe:	2000      	movs	r0, #0
 8000fc0:	4a03      	ldr	r2, [pc, #12]	; (8000fd0 <HAL_FLASH_Unlock+0x1c>)
 8000fc2:	605a      	str	r2, [r3, #4]
 8000fc4:	4a03      	ldr	r2, [pc, #12]	; (8000fd4 <HAL_FLASH_Unlock+0x20>)
 8000fc6:	605a      	str	r2, [r3, #4]
 8000fc8:	4770      	bx	lr
 8000fca:	46c0      	nop			; (mov r8, r8)
 8000fcc:	40022000 	.word	0x40022000
 8000fd0:	45670123 	.word	0x45670123
 8000fd4:	cdef89ab 	.word	0xcdef89ab

08000fd8 <FLASH_WaitForLastOperation>:
 8000fd8:	b5f8      	push	{r3, r4, r5, r6, r7, lr}
 8000fda:	0004      	movs	r4, r0
 8000fdc:	f7ff fa34 	bl	8000448 <HAL_GetTick>
 8000fe0:	2501      	movs	r5, #1
 8000fe2:	0007      	movs	r7, r0
 8000fe4:	4e1f      	ldr	r6, [pc, #124]	; (8001064 <FLASH_WaitForLastOperation+0x8c>)
 8000fe6:	1c63      	adds	r3, r4, #1
 8000fe8:	d125      	bne.n	8001036 <FLASH_WaitForLastOperation+0x5e>
 8000fea:	2201      	movs	r2, #1
 8000fec:	491d      	ldr	r1, [pc, #116]	; (8001064 <FLASH_WaitForLastOperation+0x8c>)
 8000fee:	68cb      	ldr	r3, [r1, #12]
 8000ff0:	421a      	tst	r2, r3
 8000ff2:	d1fc      	bne.n	8000fee <FLASH_WaitForLastOperation+0x16>
 8000ff4:	2220      	movs	r2, #32
 8000ff6:	4b1b      	ldr	r3, [pc, #108]	; (8001064 <FLASH_WaitForLastOperation+0x8c>)
 8000ff8:	68d9      	ldr	r1, [r3, #12]
 8000ffa:	420a      	tst	r2, r1
 8000ffc:	d127      	bne.n	800104e <FLASH_WaitForLastOperation+0x76>
 8000ffe:	4b19      	ldr	r3, [pc, #100]	; (8001064 <FLASH_WaitForLastOperation+0x8c>)
 8001000:	68da      	ldr	r2, [r3, #12]
 8001002:	06d2      	lsls	r2, r2, #27
 8001004:	d403      	bmi.n	800100e <FLASH_WaitForLastOperation+0x36>
 8001006:	68db      	ldr	r3, [r3, #12]
 8001008:	2000      	movs	r0, #0
 800100a:	075b      	lsls	r3, r3, #29
 800100c:	d512      	bpl.n	8001034 <FLASH_WaitForLastOperation+0x5c>
 800100e:	4b15      	ldr	r3, [pc, #84]	; (8001064 <FLASH_WaitForLastOperation+0x8c>)
 8001010:	68db      	ldr	r3, [r3, #12]
 8001012:	06db      	lsls	r3, r3, #27
 8001014:	d41d      	bmi.n	8001052 <FLASH_WaitForLastOperation+0x7a>
 8001016:	2104      	movs	r1, #4
 8001018:	2300      	movs	r3, #0
 800101a:	4a12      	ldr	r2, [pc, #72]	; (8001064 <FLASH_WaitForLastOperation+0x8c>)
 800101c:	68d2      	ldr	r2, [r2, #12]
 800101e:	0752      	lsls	r2, r2, #29
 8001020:	d505      	bpl.n	800102e <FLASH_WaitForLastOperation+0x56>
 8001022:	2001      	movs	r0, #1
 8001024:	4a10      	ldr	r2, [pc, #64]	; (8001068 <FLASH_WaitForLastOperation+0x90>)
 8001026:	69d3      	ldr	r3, [r2, #28]
 8001028:	4303      	orrs	r3, r0
 800102a:	61d3      	str	r3, [r2, #28]
 800102c:	000b      	movs	r3, r1
 800102e:	2001      	movs	r0, #1
 8001030:	4a0c      	ldr	r2, [pc, #48]	; (8001064 <FLASH_WaitForLastOperation+0x8c>)
 8001032:	60d3      	str	r3, [r2, #12]
 8001034:	bdf8      	pop	{r3, r4, r5, r6, r7, pc}
 8001036:	68f3      	ldr	r3, [r6, #12]
 8001038:	421d      	tst	r5, r3
 800103a:	d0db      	beq.n	8000ff4 <FLASH_WaitForLastOperation+0x1c>
 800103c:	2c00      	cmp	r4, #0
 800103e:	d004      	beq.n	800104a <FLASH_WaitForLastOperation+0x72>
 8001040:	f7ff fa02 	bl	8000448 <HAL_GetTick>
 8001044:	1bc0      	subs	r0, r0, r7
 8001046:	4284      	cmp	r4, r0
 8001048:	d2cd      	bcs.n	8000fe6 <FLASH_WaitForLastOperation+0xe>
 800104a:	2003      	movs	r0, #3
 800104c:	e7f2      	b.n	8001034 <FLASH_WaitForLastOperation+0x5c>
 800104e:	60da      	str	r2, [r3, #12]
 8001050:	e7d5      	b.n	8000ffe <FLASH_WaitForLastOperation+0x26>
 8001052:	2102      	movs	r1, #2
 8001054:	4a04      	ldr	r2, [pc, #16]	; (8001068 <FLASH_WaitForLastOperation+0x90>)
 8001056:	69d3      	ldr	r3, [r2, #28]
 8001058:	430b      	orrs	r3, r1
 800105a:	61d3      	str	r3, [r2, #28]
 800105c:	3112      	adds	r1, #18
 800105e:	2310      	movs	r3, #16
 8001060:	e7db      	b.n	800101a <FLASH_WaitForLastOperation+0x42>
 8001062:	46c0      	nop			; (mov r8, r8)
 8001064:	40022000 	.word	0x40022000
 8001068:	20000188 	.word	0x20000188

0800106c <HAL_FLASHEx_Erase>:
 800106c:	b5f0      	push	{r4, r5, r6, r7, lr}
 800106e:	464f      	mov	r7, r9
 8001070:	4646      	mov	r6, r8
 8001072:	46d6      	mov	lr, sl
 8001074:	b5c0      	push	{r6, r7, lr}
 8001076:	4f2f      	ldr	r7, [pc, #188]	; (8001134 <HAL_FLASHEx_Erase+0xc8>)
 8001078:	0006      	movs	r6, r0
 800107a:	7e3b      	ldrb	r3, [r7, #24]
 800107c:	4689      	mov	r9, r1
 800107e:	2002      	movs	r0, #2
 8001080:	2b01      	cmp	r3, #1
 8001082:	d041      	beq.n	8001108 <HAL_FLASHEx_Erase+0x9c>
 8001084:	2301      	movs	r3, #1
 8001086:	763b      	strb	r3, [r7, #24]
 8001088:	6833      	ldr	r3, [r6, #0]
 800108a:	482b      	ldr	r0, [pc, #172]	; (8001138 <HAL_FLASHEx_Erase+0xcc>)
 800108c:	2b01      	cmp	r3, #1
 800108e:	d034      	beq.n	80010fa <HAL_FLASHEx_Erase+0x8e>
 8001090:	f7ff ffa2 	bl	8000fd8 <FLASH_WaitForLastOperation>
 8001094:	2800      	cmp	r0, #0
 8001096:	d134      	bne.n	8001102 <HAL_FLASHEx_Erase+0x96>
 8001098:	2301      	movs	r3, #1
 800109a:	464a      	mov	r2, r9
 800109c:	425b      	negs	r3, r3
 800109e:	6013      	str	r3, [r2, #0]
 80010a0:	68b3      	ldr	r3, [r6, #8]
 80010a2:	6875      	ldr	r5, [r6, #4]
 80010a4:	029b      	lsls	r3, r3, #10
 80010a6:	195b      	adds	r3, r3, r5
 80010a8:	429d      	cmp	r5, r3
 80010aa:	d22a      	bcs.n	8001102 <HAL_FLASHEx_Erase+0x96>
 80010ac:	2300      	movs	r3, #0
 80010ae:	4c23      	ldr	r4, [pc, #140]	; (800113c <HAL_FLASHEx_Erase+0xd0>)
 80010b0:	4698      	mov	r8, r3
 80010b2:	e00a      	b.n	80010ca <HAL_FLASHEx_Erase+0x5e>
 80010b4:	2380      	movs	r3, #128	; 0x80
 80010b6:	00db      	lsls	r3, r3, #3
 80010b8:	469c      	mov	ip, r3
 80010ba:	6872      	ldr	r2, [r6, #4]
 80010bc:	4465      	add	r5, ip
 80010be:	4694      	mov	ip, r2
 80010c0:	68b3      	ldr	r3, [r6, #8]
 80010c2:	029b      	lsls	r3, r3, #10
 80010c4:	4463      	add	r3, ip
 80010c6:	42ab      	cmp	r3, r5
 80010c8:	d91c      	bls.n	8001104 <HAL_FLASHEx_Erase+0x98>
 80010ca:	2202      	movs	r2, #2
 80010cc:	4643      	mov	r3, r8
 80010ce:	4692      	mov	sl, r2
 80010d0:	61fb      	str	r3, [r7, #28]
 80010d2:	6923      	ldr	r3, [r4, #16]
 80010d4:	4818      	ldr	r0, [pc, #96]	; (8001138 <HAL_FLASHEx_Erase+0xcc>)
 80010d6:	4313      	orrs	r3, r2
 80010d8:	6123      	str	r3, [r4, #16]
 80010da:	6165      	str	r5, [r4, #20]
 80010dc:	6923      	ldr	r3, [r4, #16]
 80010de:	323e      	adds	r2, #62	; 0x3e
 80010e0:	4313      	orrs	r3, r2
 80010e2:	6123      	str	r3, [r4, #16]
 80010e4:	f7ff ff78 	bl	8000fd8 <FLASH_WaitForLastOperation>
 80010e8:	4652      	mov	r2, sl
 80010ea:	6923      	ldr	r3, [r4, #16]
 80010ec:	4393      	bics	r3, r2
 80010ee:	6123      	str	r3, [r4, #16]
 80010f0:	2800      	cmp	r0, #0
 80010f2:	d0df      	beq.n	80010b4 <HAL_FLASHEx_Erase+0x48>
 80010f4:	464b      	mov	r3, r9
 80010f6:	601d      	str	r5, [r3, #0]
 80010f8:	e004      	b.n	8001104 <HAL_FLASHEx_Erase+0x98>
 80010fa:	f7ff ff6d 	bl	8000fd8 <FLASH_WaitForLastOperation>
 80010fe:	2800      	cmp	r0, #0
 8001100:	d007      	beq.n	8001112 <HAL_FLASHEx_Erase+0xa6>
 8001102:	2001      	movs	r0, #1
 8001104:	2300      	movs	r3, #0
 8001106:	763b      	strb	r3, [r7, #24]
 8001108:	bc1c      	pop	{r2, r3, r4}
 800110a:	4690      	mov	r8, r2
 800110c:	4699      	mov	r9, r3
 800110e:	46a2      	mov	sl, r4
 8001110:	bdf0      	pop	{r4, r5, r6, r7, pc}
 8001112:	2504      	movs	r5, #4
 8001114:	2240      	movs	r2, #64	; 0x40
 8001116:	4c09      	ldr	r4, [pc, #36]	; (800113c <HAL_FLASHEx_Erase+0xd0>)
 8001118:	61f8      	str	r0, [r7, #28]
 800111a:	6923      	ldr	r3, [r4, #16]
 800111c:	4806      	ldr	r0, [pc, #24]	; (8001138 <HAL_FLASHEx_Erase+0xcc>)
 800111e:	432b      	orrs	r3, r5
 8001120:	6123      	str	r3, [r4, #16]
 8001122:	6923      	ldr	r3, [r4, #16]
 8001124:	4313      	orrs	r3, r2
 8001126:	6123      	str	r3, [r4, #16]
 8001128:	f7ff ff56 	bl	8000fd8 <FLASH_WaitForLastOperation>
 800112c:	6923      	ldr	r3, [r4, #16]
 800112e:	43ab      	bics	r3, r5
 8001130:	6123      	str	r3, [r4, #16]
 8001132:	e7e7      	b.n	8001104 <HAL_FLASHEx_Erase+0x98>
 8001134:	20000188 	.word	0x20000188
 8001138:	0000c350 	.word	0x0000c350
 800113c:	40022000 	.word	0x40022000

08001140 <HAL_GPIO_Init>:
 8001140:	b5f0      	push	{r4, r5, r6, r7, lr}
 8001142:	46de      	mov	lr, fp
 8001144:	4657      	mov	r7, sl
 8001146:	464e      	mov	r6, r9
 8001148:	4645      	mov	r5, r8
 800114a:	b5e0      	push	{r5, r6, r7, lr}
 800114c:	680b      	ldr	r3, [r1, #0]
 800114e:	b085      	sub	sp, #20
 8001150:	468b      	mov	fp, r1
 8001152:	469c      	mov	ip, r3
 8001154:	2200      	movs	r2, #0
 8001156:	2b00      	cmp	r3, #0
 8001158:	d100      	bne.n	800115c <HAL_GPIO_Init+0x1c>
 800115a:	e0b7      	b.n	80012cc <HAL_GPIO_Init+0x18c>
 800115c:	4b64      	ldr	r3, [pc, #400]	; (80012f0 <HAL_GPIO_Init+0x1b0>)
 800115e:	46e1      	mov	r9, ip
 8001160:	469a      	mov	sl, r3
 8001162:	4b64      	ldr	r3, [pc, #400]	; (80012f4 <HAL_GPIO_Init+0x1b4>)
 8001164:	4698      	mov	r8, r3
 8001166:	e067      	b.n	8001238 <HAL_GPIO_Init+0xf8>
 8001168:	6803      	ldr	r3, [r0, #0]
 800116a:	0056      	lsls	r6, r2, #1
 800116c:	469c      	mov	ip, r3
 800116e:	2303      	movs	r3, #3
 8001170:	2703      	movs	r7, #3
 8001172:	40b3      	lsls	r3, r6
 8001174:	4664      	mov	r4, ip
 8001176:	43db      	mvns	r3, r3
 8001178:	400f      	ands	r7, r1
 800117a:	40b7      	lsls	r7, r6
 800117c:	401c      	ands	r4, r3
 800117e:	433c      	orrs	r4, r7
 8001180:	9f01      	ldr	r7, [sp, #4]
 8001182:	6004      	str	r4, [r0, #0]
 8001184:	3f01      	subs	r7, #1
 8001186:	2f01      	cmp	r7, #1
 8001188:	d800      	bhi.n	800118c <HAL_GPIO_Init+0x4c>
 800118a:	e081      	b.n	8001290 <HAL_GPIO_Init+0x150>
 800118c:	465c      	mov	r4, fp
 800118e:	68c5      	ldr	r5, [r0, #12]
 8001190:	402b      	ands	r3, r5
 8001192:	68a5      	ldr	r5, [r4, #8]
 8001194:	40b5      	lsls	r5, r6
 8001196:	432b      	orrs	r3, r5
 8001198:	60c3      	str	r3, [r0, #12]
 800119a:	2380      	movs	r3, #128	; 0x80
 800119c:	055b      	lsls	r3, r3, #21
 800119e:	4219      	tst	r1, r3
 80011a0:	d046      	beq.n	8001230 <HAL_GPIO_Init+0xf0>
 80011a2:	4653      	mov	r3, sl
 80011a4:	2401      	movs	r4, #1
 80011a6:	699b      	ldr	r3, [r3, #24]
 80011a8:	2603      	movs	r6, #3
 80011aa:	4323      	orrs	r3, r4
 80011ac:	4654      	mov	r4, sl
 80011ae:	61a3      	str	r3, [r4, #24]
 80011b0:	69a3      	ldr	r3, [r4, #24]
 80011b2:	2401      	movs	r4, #1
 80011b4:	270f      	movs	r7, #15
 80011b6:	4023      	ands	r3, r4
 80011b8:	4c4f      	ldr	r4, [pc, #316]	; (80012f8 <HAL_GPIO_Init+0x1b8>)
 80011ba:	4016      	ands	r6, r2
 80011bc:	46a4      	mov	ip, r4
 80011be:	00b6      	lsls	r6, r6, #2
 80011c0:	40b7      	lsls	r7, r6
 80011c2:	2490      	movs	r4, #144	; 0x90
 80011c4:	9303      	str	r3, [sp, #12]
 80011c6:	9b03      	ldr	r3, [sp, #12]
 80011c8:	0893      	lsrs	r3, r2, #2
 80011ca:	009b      	lsls	r3, r3, #2
 80011cc:	4463      	add	r3, ip
 80011ce:	689d      	ldr	r5, [r3, #8]
 80011d0:	05e4      	lsls	r4, r4, #23
 80011d2:	43bd      	bics	r5, r7
 80011d4:	42a0      	cmp	r0, r4
 80011d6:	d100      	bne.n	80011da <HAL_GPIO_Init+0x9a>
 80011d8:	e07f      	b.n	80012da <HAL_GPIO_Init+0x19a>
 80011da:	4f48      	ldr	r7, [pc, #288]	; (80012fc <HAL_GPIO_Init+0x1bc>)
 80011dc:	42b8      	cmp	r0, r7
 80011de:	d100      	bne.n	80011e2 <HAL_GPIO_Init+0xa2>
 80011e0:	e07d      	b.n	80012de <HAL_GPIO_Init+0x19e>
 80011e2:	4f47      	ldr	r7, [pc, #284]	; (8001300 <HAL_GPIO_Init+0x1c0>)
 80011e4:	42b8      	cmp	r0, r7
 80011e6:	d100      	bne.n	80011ea <HAL_GPIO_Init+0xaa>
 80011e8:	e07c      	b.n	80012e4 <HAL_GPIO_Init+0x1a4>
 80011ea:	4f46      	ldr	r7, [pc, #280]	; (8001304 <HAL_GPIO_Init+0x1c4>)
 80011ec:	42b8      	cmp	r0, r7
 80011ee:	d100      	bne.n	80011f2 <HAL_GPIO_Init+0xb2>
 80011f0:	e07b      	b.n	80012ea <HAL_GPIO_Init+0x1aa>
 80011f2:	2705      	movs	r7, #5
 80011f4:	40b7      	lsls	r7, r6
 80011f6:	433d      	orrs	r5, r7
 80011f8:	609d      	str	r5, [r3, #8]
 80011fa:	4643      	mov	r3, r8
 80011fc:	9c00      	ldr	r4, [sp, #0]
 80011fe:	681b      	ldr	r3, [r3, #0]
 8001200:	43e5      	mvns	r5, r4
 8001202:	03cc      	lsls	r4, r1, #15
 8001204:	d45f      	bmi.n	80012c6 <HAL_GPIO_Init+0x186>
 8001206:	402b      	ands	r3, r5
 8001208:	4644      	mov	r4, r8
 800120a:	6023      	str	r3, [r4, #0]
 800120c:	6863      	ldr	r3, [r4, #4]
 800120e:	038c      	lsls	r4, r1, #14
 8001210:	d456      	bmi.n	80012c0 <HAL_GPIO_Init+0x180>
 8001212:	402b      	ands	r3, r5
 8001214:	4644      	mov	r4, r8
 8001216:	6063      	str	r3, [r4, #4]
 8001218:	68a3      	ldr	r3, [r4, #8]
 800121a:	02cc      	lsls	r4, r1, #11
 800121c:	d44d      	bmi.n	80012ba <HAL_GPIO_Init+0x17a>
 800121e:	402b      	ands	r3, r5
 8001220:	4644      	mov	r4, r8
 8001222:	60a3      	str	r3, [r4, #8]
 8001224:	68e3      	ldr	r3, [r4, #12]
 8001226:	0289      	lsls	r1, r1, #10
 8001228:	d444      	bmi.n	80012b4 <HAL_GPIO_Init+0x174>
 800122a:	402b      	ands	r3, r5
 800122c:	4641      	mov	r1, r8
 800122e:	60cb      	str	r3, [r1, #12]
 8001230:	464b      	mov	r3, r9
 8001232:	3201      	adds	r2, #1
 8001234:	40d3      	lsrs	r3, r2
 8001236:	d049      	beq.n	80012cc <HAL_GPIO_Init+0x18c>
 8001238:	2501      	movs	r5, #1
 800123a:	464c      	mov	r4, r9
 800123c:	4095      	lsls	r5, r2
 800123e:	402c      	ands	r4, r5
 8001240:	9400      	str	r4, [sp, #0]
 8001242:	d0f5      	beq.n	8001230 <HAL_GPIO_Init+0xf0>
 8001244:	465b      	mov	r3, fp
 8001246:	6859      	ldr	r1, [r3, #4]
 8001248:	2310      	movs	r3, #16
 800124a:	000f      	movs	r7, r1
 800124c:	439f      	bics	r7, r3
 800124e:	003b      	movs	r3, r7
 8001250:	9701      	str	r7, [sp, #4]
 8001252:	2f02      	cmp	r7, #2
 8001254:	d188      	bne.n	8001168 <HAL_GPIO_Init+0x28>
 8001256:	240f      	movs	r4, #15
 8001258:	3305      	adds	r3, #5
 800125a:	4013      	ands	r3, r2
 800125c:	009b      	lsls	r3, r3, #2
 800125e:	409c      	lsls	r4, r3
 8001260:	08d6      	lsrs	r6, r2, #3
 8001262:	00b6      	lsls	r6, r6, #2
 8001264:	1986      	adds	r6, r0, r6
 8001266:	6a37      	ldr	r7, [r6, #32]
 8001268:	43a7      	bics	r7, r4
 800126a:	465c      	mov	r4, fp
 800126c:	6924      	ldr	r4, [r4, #16]
 800126e:	409c      	lsls	r4, r3
 8001270:	0023      	movs	r3, r4
 8001272:	433b      	orrs	r3, r7
 8001274:	6233      	str	r3, [r6, #32]
 8001276:	2303      	movs	r3, #3
 8001278:	0056      	lsls	r6, r2, #1
 800127a:	40b3      	lsls	r3, r6
 800127c:	43db      	mvns	r3, r3
 800127e:	6807      	ldr	r7, [r0, #0]
 8001280:	401f      	ands	r7, r3
 8001282:	46bc      	mov	ip, r7
 8001284:	2703      	movs	r7, #3
 8001286:	400f      	ands	r7, r1
 8001288:	40b7      	lsls	r7, r6
 800128a:	4664      	mov	r4, ip
 800128c:	4327      	orrs	r7, r4
 800128e:	6007      	str	r7, [r0, #0]
 8001290:	6887      	ldr	r7, [r0, #8]
 8001292:	465c      	mov	r4, fp
 8001294:	401f      	ands	r7, r3
 8001296:	46bc      	mov	ip, r7
 8001298:	68e7      	ldr	r7, [r4, #12]
 800129a:	4664      	mov	r4, ip
 800129c:	40b7      	lsls	r7, r6
 800129e:	4327      	orrs	r7, r4
 80012a0:	2401      	movs	r4, #1
 80012a2:	6087      	str	r7, [r0, #8]
 80012a4:	6847      	ldr	r7, [r0, #4]
 80012a6:	43af      	bics	r7, r5
 80012a8:	090d      	lsrs	r5, r1, #4
 80012aa:	4025      	ands	r5, r4
 80012ac:	4095      	lsls	r5, r2
 80012ae:	433d      	orrs	r5, r7
 80012b0:	6045      	str	r5, [r0, #4]
 80012b2:	e76b      	b.n	800118c <HAL_GPIO_Init+0x4c>
 80012b4:	9900      	ldr	r1, [sp, #0]
 80012b6:	430b      	orrs	r3, r1
 80012b8:	e7b8      	b.n	800122c <HAL_GPIO_Init+0xec>
 80012ba:	9c00      	ldr	r4, [sp, #0]
 80012bc:	4323      	orrs	r3, r4
 80012be:	e7af      	b.n	8001220 <HAL_GPIO_Init+0xe0>
 80012c0:	9c00      	ldr	r4, [sp, #0]
 80012c2:	4323      	orrs	r3, r4
 80012c4:	e7a6      	b.n	8001214 <HAL_GPIO_Init+0xd4>
 80012c6:	9c00      	ldr	r4, [sp, #0]
 80012c8:	4323      	orrs	r3, r4
 80012ca:	e79d      	b.n	8001208 <HAL_GPIO_Init+0xc8>
 80012cc:	b005      	add	sp, #20
 80012ce:	bc3c      	pop	{r2, r3, r4, r5}
 80012d0:	4690      	mov	r8, r2
 80012d2:	4699      	mov	r9, r3
 80012d4:	46a2      	mov	sl, r4
 80012d6:	46ab      	mov	fp, r5
 80012d8:	bdf0      	pop	{r4, r5, r6, r7, pc}
 80012da:	2700      	movs	r7, #0
 80012dc:	e78b      	b.n	80011f6 <HAL_GPIO_Init+0xb6>
 80012de:	2701      	movs	r7, #1
 80012e0:	40b7      	lsls	r7, r6
 80012e2:	e788      	b.n	80011f6 <HAL_GPIO_Init+0xb6>
 80012e4:	2702      	movs	r7, #2
 80012e6:	40b7      	lsls	r7, r6
 80012e8:	e785      	b.n	80011f6 <HAL_GPIO_Init+0xb6>
 80012ea:	2703      	movs	r7, #3
 80012ec:	40b7      	lsls	r7, r6
 80012ee:	e782      	b.n	80011f6 <HAL_GPIO_Init+0xb6>
 80012f0:	40021000 	.word	0x40021000
 80012f4:	40010400 	.word	0x40010400
 80012f8:	40010000 	.word	0x40010000
 80012fc:	48000400 	.word	0x48000400
 8001300:	48000800 	.word	0x48000800
 8001304:	48000c00 	.word	0x48000c00

08001308 <HAL_GPIO_ReadPin>:
 8001308:	6900      	ldr	r0, [r0, #16]
 800130a:	4008      	ands	r0, r1
 800130c:	1e41      	subs	r1, r0, #1
 800130e:	4188      	sbcs	r0, r1
 8001310:	b2c0      	uxtb	r0, r0
 8001312:	4770      	bx	lr

08001314 <HAL_IWDG_Init>:
 8001314:	b570      	push	{r4, r5, r6, lr}
 8001316:	1e04      	subs	r4, r0, #0
 8001318:	d01e      	beq.n	8001358 <HAL_IWDG_Init+0x44>
 800131a:	6803      	ldr	r3, [r0, #0]
 800131c:	4a11      	ldr	r2, [pc, #68]	; (8001364 <HAL_IWDG_Init+0x50>)
 800131e:	601a      	str	r2, [r3, #0]
 8001320:	4a11      	ldr	r2, [pc, #68]	; (8001368 <HAL_IWDG_Init+0x54>)
 8001322:	601a      	str	r2, [r3, #0]
 8001324:	6842      	ldr	r2, [r0, #4]
 8001326:	605a      	str	r2, [r3, #4]
 8001328:	6882      	ldr	r2, [r0, #8]
 800132a:	609a      	str	r2, [r3, #8]
 800132c:	f7ff f88c 	bl	8000448 <HAL_GetTick>
 8001330:	0005      	movs	r5, r0
 8001332:	e004      	b.n	800133e <HAL_IWDG_Init+0x2a>
 8001334:	f7ff f888 	bl	8000448 <HAL_GetTick>
 8001338:	1b40      	subs	r0, r0, r5
 800133a:	2827      	cmp	r0, #39	; 0x27
 800133c:	d80a      	bhi.n	8001354 <HAL_IWDG_Init+0x40>
 800133e:	6823      	ldr	r3, [r4, #0]
 8001340:	68da      	ldr	r2, [r3, #12]
 8001342:	2a00      	cmp	r2, #0
 8001344:	d1f6      	bne.n	8001334 <HAL_IWDG_Init+0x20>
 8001346:	6919      	ldr	r1, [r3, #16]
 8001348:	68e2      	ldr	r2, [r4, #12]
 800134a:	4291      	cmp	r1, r2
 800134c:	d006      	beq.n	800135c <HAL_IWDG_Init+0x48>
 800134e:	2000      	movs	r0, #0
 8001350:	611a      	str	r2, [r3, #16]
 8001352:	bd70      	pop	{r4, r5, r6, pc}
 8001354:	2003      	movs	r0, #3
 8001356:	e7fc      	b.n	8001352 <HAL_IWDG_Init+0x3e>
 8001358:	2001      	movs	r0, #1
 800135a:	e7fa      	b.n	8001352 <HAL_IWDG_Init+0x3e>
 800135c:	4a03      	ldr	r2, [pc, #12]	; (800136c <HAL_IWDG_Init+0x58>)
 800135e:	2000      	movs	r0, #0
 8001360:	601a      	str	r2, [r3, #0]
 8001362:	e7f6      	b.n	8001352 <HAL_IWDG_Init+0x3e>
 8001364:	0000cccc 	.word	0x0000cccc
 8001368:	00005555 	.word	0x00005555
 800136c:	0000aaaa 	.word	0x0000aaaa

08001370 <HAL_IWDG_Refresh>:
 8001370:	6803      	ldr	r3, [r0, #0]
 8001372:	4a02      	ldr	r2, [pc, #8]	; (800137c <HAL_IWDG_Refresh+0xc>)
 8001374:	2000      	movs	r0, #0
 8001376:	601a      	str	r2, [r3, #0]
 8001378:	4770      	bx	lr
 800137a:	46c0      	nop			; (mov r8, r8)
 800137c:	0000aaaa 	.word	0x0000aaaa

08001380 <HAL_RCC_OscConfig>:
 8001380:	b5f0      	push	{r4, r5, r6, r7, lr}
 8001382:	46ce      	mov	lr, r9
 8001384:	4647      	mov	r7, r8
 8001386:	b580      	push	{r7, lr}
 8001388:	6803      	ldr	r3, [r0, #0]
 800138a:	b083      	sub	sp, #12
 800138c:	0004      	movs	r4, r0
 800138e:	07da      	lsls	r2, r3, #31
 8001390:	d52f      	bpl.n	80013f2 <HAL_RCC_OscConfig+0x72>
 8001392:	220c      	movs	r2, #12
 8001394:	48c4      	ldr	r0, [pc, #784]	; (80016a8 <HAL_RCC_OscConfig+0x328>)
 8001396:	6841      	ldr	r1, [r0, #4]
 8001398:	4011      	ands	r1, r2
 800139a:	2904      	cmp	r1, #4
 800139c:	d100      	bne.n	80013a0 <HAL_RCC_OscConfig+0x20>
 800139e:	e110      	b.n	80015c2 <HAL_RCC_OscConfig+0x242>
 80013a0:	6841      	ldr	r1, [r0, #4]
 80013a2:	400a      	ands	r2, r1
 80013a4:	2a08      	cmp	r2, #8
 80013a6:	d100      	bne.n	80013aa <HAL_RCC_OscConfig+0x2a>
 80013a8:	e107      	b.n	80015ba <HAL_RCC_OscConfig+0x23a>
 80013aa:	6863      	ldr	r3, [r4, #4]
 80013ac:	2b01      	cmp	r3, #1
 80013ae:	d100      	bne.n	80013b2 <HAL_RCC_OscConfig+0x32>
 80013b0:	e186      	b.n	80016c0 <HAL_RCC_OscConfig+0x340>
 80013b2:	2b00      	cmp	r3, #0
 80013b4:	d100      	bne.n	80013b8 <HAL_RCC_OscConfig+0x38>
 80013b6:	e11a      	b.n	80015ee <HAL_RCC_OscConfig+0x26e>
 80013b8:	2b05      	cmp	r3, #5
 80013ba:	d100      	bne.n	80013be <HAL_RCC_OscConfig+0x3e>
 80013bc:	e1db      	b.n	8001776 <HAL_RCC_OscConfig+0x3f6>
 80013be:	4bba      	ldr	r3, [pc, #744]	; (80016a8 <HAL_RCC_OscConfig+0x328>)
 80013c0:	49ba      	ldr	r1, [pc, #744]	; (80016ac <HAL_RCC_OscConfig+0x32c>)
 80013c2:	681a      	ldr	r2, [r3, #0]
 80013c4:	400a      	ands	r2, r1
 80013c6:	601a      	str	r2, [r3, #0]
 80013c8:	681a      	ldr	r2, [r3, #0]
 80013ca:	49b9      	ldr	r1, [pc, #740]	; (80016b0 <HAL_RCC_OscConfig+0x330>)
 80013cc:	400a      	ands	r2, r1
 80013ce:	601a      	str	r2, [r3, #0]
 80013d0:	f7ff f83a 	bl	8000448 <HAL_GetTick>
 80013d4:	2580      	movs	r5, #128	; 0x80
 80013d6:	0007      	movs	r7, r0
 80013d8:	4eb3      	ldr	r6, [pc, #716]	; (80016a8 <HAL_RCC_OscConfig+0x328>)
 80013da:	02ad      	lsls	r5, r5, #10
 80013dc:	e005      	b.n	80013ea <HAL_RCC_OscConfig+0x6a>
 80013de:	f7ff f833 	bl	8000448 <HAL_GetTick>
 80013e2:	1bc0      	subs	r0, r0, r7
 80013e4:	2864      	cmp	r0, #100	; 0x64
 80013e6:	d900      	bls.n	80013ea <HAL_RCC_OscConfig+0x6a>
 80013e8:	e12f      	b.n	800164a <HAL_RCC_OscConfig+0x2ca>
 80013ea:	6833      	ldr	r3, [r6, #0]
 80013ec:	422b      	tst	r3, r5
 80013ee:	d0f6      	beq.n	80013de <HAL_RCC_OscConfig+0x5e>
 80013f0:	6823      	ldr	r3, [r4, #0]
 80013f2:	079a      	lsls	r2, r3, #30
 80013f4:	d529      	bpl.n	800144a <HAL_RCC_OscConfig+0xca>
 80013f6:	220c      	movs	r2, #12
 80013f8:	49ab      	ldr	r1, [pc, #684]	; (80016a8 <HAL_RCC_OscConfig+0x328>)
 80013fa:	6848      	ldr	r0, [r1, #4]
 80013fc:	4202      	tst	r2, r0
 80013fe:	d100      	bne.n	8001402 <HAL_RCC_OscConfig+0x82>
 8001400:	e0bf      	b.n	8001582 <HAL_RCC_OscConfig+0x202>
 8001402:	6848      	ldr	r0, [r1, #4]
 8001404:	4002      	ands	r2, r0
 8001406:	2a08      	cmp	r2, #8
 8001408:	d100      	bne.n	800140c <HAL_RCC_OscConfig+0x8c>
 800140a:	e0b6      	b.n	800157a <HAL_RCC_OscConfig+0x1fa>
 800140c:	68e3      	ldr	r3, [r4, #12]
 800140e:	4da6      	ldr	r5, [pc, #664]	; (80016a8 <HAL_RCC_OscConfig+0x328>)
 8001410:	2b00      	cmp	r3, #0
 8001412:	d100      	bne.n	8001416 <HAL_RCC_OscConfig+0x96>
 8001414:	e134      	b.n	8001680 <HAL_RCC_OscConfig+0x300>
 8001416:	2201      	movs	r2, #1
 8001418:	682b      	ldr	r3, [r5, #0]
 800141a:	2602      	movs	r6, #2
 800141c:	4313      	orrs	r3, r2
 800141e:	602b      	str	r3, [r5, #0]
 8001420:	f7ff f812 	bl	8000448 <HAL_GetTick>
 8001424:	0007      	movs	r7, r0
 8001426:	e005      	b.n	8001434 <HAL_RCC_OscConfig+0xb4>
 8001428:	f7ff f80e 	bl	8000448 <HAL_GetTick>
 800142c:	1bc0      	subs	r0, r0, r7
 800142e:	2802      	cmp	r0, #2
 8001430:	d900      	bls.n	8001434 <HAL_RCC_OscConfig+0xb4>
 8001432:	e10a      	b.n	800164a <HAL_RCC_OscConfig+0x2ca>
 8001434:	682b      	ldr	r3, [r5, #0]
 8001436:	421e      	tst	r6, r3
 8001438:	d0f6      	beq.n	8001428 <HAL_RCC_OscConfig+0xa8>
 800143a:	21f8      	movs	r1, #248	; 0xf8
 800143c:	682a      	ldr	r2, [r5, #0]
 800143e:	6923      	ldr	r3, [r4, #16]
 8001440:	438a      	bics	r2, r1
 8001442:	00db      	lsls	r3, r3, #3
 8001444:	4313      	orrs	r3, r2
 8001446:	602b      	str	r3, [r5, #0]
 8001448:	6823      	ldr	r3, [r4, #0]
 800144a:	071a      	lsls	r2, r3, #28
 800144c:	d500      	bpl.n	8001450 <HAL_RCC_OscConfig+0xd0>
 800144e:	e07d      	b.n	800154c <HAL_RCC_OscConfig+0x1cc>
 8001450:	075a      	lsls	r2, r3, #29
 8001452:	d540      	bpl.n	80014d6 <HAL_RCC_OscConfig+0x156>
 8001454:	2280      	movs	r2, #128	; 0x80
 8001456:	2000      	movs	r0, #0
 8001458:	4b93      	ldr	r3, [pc, #588]	; (80016a8 <HAL_RCC_OscConfig+0x328>)
 800145a:	0552      	lsls	r2, r2, #21
 800145c:	69d9      	ldr	r1, [r3, #28]
 800145e:	4680      	mov	r8, r0
 8001460:	4211      	tst	r1, r2
 8001462:	d108      	bne.n	8001476 <HAL_RCC_OscConfig+0xf6>
 8001464:	69d9      	ldr	r1, [r3, #28]
 8001466:	4311      	orrs	r1, r2
 8001468:	61d9      	str	r1, [r3, #28]
 800146a:	69db      	ldr	r3, [r3, #28]
 800146c:	401a      	ands	r2, r3
 800146e:	9201      	str	r2, [sp, #4]
 8001470:	9b01      	ldr	r3, [sp, #4]
 8001472:	2301      	movs	r3, #1
 8001474:	4698      	mov	r8, r3
 8001476:	2780      	movs	r7, #128	; 0x80
 8001478:	4e8e      	ldr	r6, [pc, #568]	; (80016b4 <HAL_RCC_OscConfig+0x334>)
 800147a:	007f      	lsls	r7, r7, #1
 800147c:	6833      	ldr	r3, [r6, #0]
 800147e:	423b      	tst	r3, r7
 8001480:	d100      	bne.n	8001484 <HAL_RCC_OscConfig+0x104>
 8001482:	e0cd      	b.n	8001620 <HAL_RCC_OscConfig+0x2a0>
 8001484:	68a3      	ldr	r3, [r4, #8]
 8001486:	2b01      	cmp	r3, #1
 8001488:	d100      	bne.n	800148c <HAL_RCC_OscConfig+0x10c>
 800148a:	e0d9      	b.n	8001640 <HAL_RCC_OscConfig+0x2c0>
 800148c:	2b00      	cmp	r3, #0
 800148e:	d100      	bne.n	8001492 <HAL_RCC_OscConfig+0x112>
 8001490:	e0dd      	b.n	800164e <HAL_RCC_OscConfig+0x2ce>
 8001492:	2b05      	cmp	r3, #5
 8001494:	d100      	bne.n	8001498 <HAL_RCC_OscConfig+0x118>
 8001496:	e198      	b.n	80017ca <HAL_RCC_OscConfig+0x44a>
 8001498:	2101      	movs	r1, #1
 800149a:	4b83      	ldr	r3, [pc, #524]	; (80016a8 <HAL_RCC_OscConfig+0x328>)
 800149c:	6a1a      	ldr	r2, [r3, #32]
 800149e:	438a      	bics	r2, r1
 80014a0:	621a      	str	r2, [r3, #32]
 80014a2:	6a1a      	ldr	r2, [r3, #32]
 80014a4:	3103      	adds	r1, #3
 80014a6:	438a      	bics	r2, r1
 80014a8:	621a      	str	r2, [r3, #32]
 80014aa:	f7fe ffcd 	bl	8000448 <HAL_GetTick>
 80014ae:	4f7e      	ldr	r7, [pc, #504]	; (80016a8 <HAL_RCC_OscConfig+0x328>)
 80014b0:	4681      	mov	r9, r0
 80014b2:	2602      	movs	r6, #2
 80014b4:	4d80      	ldr	r5, [pc, #512]	; (80016b8 <HAL_RCC_OscConfig+0x338>)
 80014b6:	e006      	b.n	80014c6 <HAL_RCC_OscConfig+0x146>
 80014b8:	f7fe ffc6 	bl	8000448 <HAL_GetTick>
 80014bc:	464b      	mov	r3, r9
 80014be:	1ac0      	subs	r0, r0, r3
 80014c0:	42a8      	cmp	r0, r5
 80014c2:	d900      	bls.n	80014c6 <HAL_RCC_OscConfig+0x146>
 80014c4:	e0c1      	b.n	800164a <HAL_RCC_OscConfig+0x2ca>
 80014c6:	6a3b      	ldr	r3, [r7, #32]
 80014c8:	421e      	tst	r6, r3
 80014ca:	d0f5      	beq.n	80014b8 <HAL_RCC_OscConfig+0x138>
 80014cc:	4643      	mov	r3, r8
 80014ce:	2b01      	cmp	r3, #1
 80014d0:	d100      	bne.n	80014d4 <HAL_RCC_OscConfig+0x154>
 80014d2:	e113      	b.n	80016fc <HAL_RCC_OscConfig+0x37c>
 80014d4:	6823      	ldr	r3, [r4, #0]
 80014d6:	06db      	lsls	r3, r3, #27
 80014d8:	d512      	bpl.n	8001500 <HAL_RCC_OscConfig+0x180>
 80014da:	6963      	ldr	r3, [r4, #20]
 80014dc:	2b01      	cmp	r3, #1
 80014de:	d100      	bne.n	80014e2 <HAL_RCC_OscConfig+0x162>
 80014e0:	e155      	b.n	800178e <HAL_RCC_OscConfig+0x40e>
 80014e2:	3305      	adds	r3, #5
 80014e4:	d000      	beq.n	80014e8 <HAL_RCC_OscConfig+0x168>
 80014e6:	e0f2      	b.n	80016ce <HAL_RCC_OscConfig+0x34e>
 80014e8:	2104      	movs	r1, #4
 80014ea:	20f8      	movs	r0, #248	; 0xf8
 80014ec:	4a6e      	ldr	r2, [pc, #440]	; (80016a8 <HAL_RCC_OscConfig+0x328>)
 80014ee:	6b53      	ldr	r3, [r2, #52]	; 0x34
 80014f0:	438b      	bics	r3, r1
 80014f2:	6353      	str	r3, [r2, #52]	; 0x34
 80014f4:	6b51      	ldr	r1, [r2, #52]	; 0x34
 80014f6:	69a3      	ldr	r3, [r4, #24]
 80014f8:	4381      	bics	r1, r0
 80014fa:	00db      	lsls	r3, r3, #3
 80014fc:	430b      	orrs	r3, r1
 80014fe:	6353      	str	r3, [r2, #52]	; 0x34
 8001500:	6a23      	ldr	r3, [r4, #32]
 8001502:	2b00      	cmp	r3, #0
 8001504:	d01c      	beq.n	8001540 <HAL_RCC_OscConfig+0x1c0>
 8001506:	220c      	movs	r2, #12
 8001508:	4d67      	ldr	r5, [pc, #412]	; (80016a8 <HAL_RCC_OscConfig+0x328>)
 800150a:	6869      	ldr	r1, [r5, #4]
 800150c:	400a      	ands	r2, r1
 800150e:	2a08      	cmp	r2, #8
 8001510:	d03e      	beq.n	8001590 <HAL_RCC_OscConfig+0x210>
 8001512:	2b02      	cmp	r3, #2
 8001514:	d100      	bne.n	8001518 <HAL_RCC_OscConfig+0x198>
 8001516:	e0f8      	b.n	800170a <HAL_RCC_OscConfig+0x38a>
 8001518:	682b      	ldr	r3, [r5, #0]
 800151a:	4a68      	ldr	r2, [pc, #416]	; (80016bc <HAL_RCC_OscConfig+0x33c>)
 800151c:	002c      	movs	r4, r5
 800151e:	4013      	ands	r3, r2
 8001520:	602b      	str	r3, [r5, #0]
 8001522:	f7fe ff91 	bl	8000448 <HAL_GetTick>
 8001526:	2580      	movs	r5, #128	; 0x80
 8001528:	0006      	movs	r6, r0
 800152a:	04ad      	lsls	r5, r5, #18
 800152c:	e005      	b.n	800153a <HAL_RCC_OscConfig+0x1ba>
 800152e:	f7fe ff8b 	bl	8000448 <HAL_GetTick>
 8001532:	1b80      	subs	r0, r0, r6
 8001534:	2802      	cmp	r0, #2
 8001536:	d900      	bls.n	800153a <HAL_RCC_OscConfig+0x1ba>
 8001538:	e087      	b.n	800164a <HAL_RCC_OscConfig+0x2ca>
 800153a:	6823      	ldr	r3, [r4, #0]
 800153c:	422b      	tst	r3, r5
 800153e:	d1f6      	bne.n	800152e <HAL_RCC_OscConfig+0x1ae>
 8001540:	2000      	movs	r0, #0
 8001542:	b003      	add	sp, #12
 8001544:	bc0c      	pop	{r2, r3}
 8001546:	4690      	mov	r8, r2
 8001548:	4699      	mov	r9, r3
 800154a:	bdf0      	pop	{r4, r5, r6, r7, pc}
 800154c:	69e3      	ldr	r3, [r4, #28]
 800154e:	4d56      	ldr	r5, [pc, #344]	; (80016a8 <HAL_RCC_OscConfig+0x328>)
 8001550:	2b00      	cmp	r3, #0
 8001552:	d01f      	beq.n	8001594 <HAL_RCC_OscConfig+0x214>
 8001554:	2201      	movs	r2, #1
 8001556:	6a6b      	ldr	r3, [r5, #36]	; 0x24
 8001558:	2602      	movs	r6, #2
 800155a:	4313      	orrs	r3, r2
 800155c:	626b      	str	r3, [r5, #36]	; 0x24
 800155e:	f7fe ff73 	bl	8000448 <HAL_GetTick>
 8001562:	0007      	movs	r7, r0
 8001564:	e004      	b.n	8001570 <HAL_RCC_OscConfig+0x1f0>
 8001566:	f7fe ff6f 	bl	8000448 <HAL_GetTick>
 800156a:	1bc0      	subs	r0, r0, r7
 800156c:	2802      	cmp	r0, #2
 800156e:	d86c      	bhi.n	800164a <HAL_RCC_OscConfig+0x2ca>
 8001570:	6a6b      	ldr	r3, [r5, #36]	; 0x24
 8001572:	421e      	tst	r6, r3
 8001574:	d0f7      	beq.n	8001566 <HAL_RCC_OscConfig+0x1e6>
 8001576:	6823      	ldr	r3, [r4, #0]
 8001578:	e76a      	b.n	8001450 <HAL_RCC_OscConfig+0xd0>
 800157a:	684a      	ldr	r2, [r1, #4]
 800157c:	03d2      	lsls	r2, r2, #15
 800157e:	d500      	bpl.n	8001582 <HAL_RCC_OscConfig+0x202>
 8001580:	e744      	b.n	800140c <HAL_RCC_OscConfig+0x8c>
 8001582:	4a49      	ldr	r2, [pc, #292]	; (80016a8 <HAL_RCC_OscConfig+0x328>)
 8001584:	6812      	ldr	r2, [r2, #0]
 8001586:	0792      	lsls	r2, r2, #30
 8001588:	d525      	bpl.n	80015d6 <HAL_RCC_OscConfig+0x256>
 800158a:	68e2      	ldr	r2, [r4, #12]
 800158c:	2a01      	cmp	r2, #1
 800158e:	d022      	beq.n	80015d6 <HAL_RCC_OscConfig+0x256>
 8001590:	2001      	movs	r0, #1
 8001592:	e7d6      	b.n	8001542 <HAL_RCC_OscConfig+0x1c2>
 8001594:	2201      	movs	r2, #1
 8001596:	6a6b      	ldr	r3, [r5, #36]	; 0x24
 8001598:	2602      	movs	r6, #2
 800159a:	4393      	bics	r3, r2
 800159c:	626b      	str	r3, [r5, #36]	; 0x24
 800159e:	f7fe ff53 	bl	8000448 <HAL_GetTick>
 80015a2:	0007      	movs	r7, r0
 80015a4:	e004      	b.n	80015b0 <HAL_RCC_OscConfig+0x230>
 80015a6:	f7fe ff4f 	bl	8000448 <HAL_GetTick>
 80015aa:	1bc0      	subs	r0, r0, r7
 80015ac:	2802      	cmp	r0, #2
 80015ae:	d84c      	bhi.n	800164a <HAL_RCC_OscConfig+0x2ca>
 80015b0:	6a6b      	ldr	r3, [r5, #36]	; 0x24
 80015b2:	421e      	tst	r6, r3
 80015b4:	d1f7      	bne.n	80015a6 <HAL_RCC_OscConfig+0x226>
 80015b6:	6823      	ldr	r3, [r4, #0]
 80015b8:	e74a      	b.n	8001450 <HAL_RCC_OscConfig+0xd0>
 80015ba:	6842      	ldr	r2, [r0, #4]
 80015bc:	03d2      	lsls	r2, r2, #15
 80015be:	d400      	bmi.n	80015c2 <HAL_RCC_OscConfig+0x242>
 80015c0:	e6f3      	b.n	80013aa <HAL_RCC_OscConfig+0x2a>
 80015c2:	4a39      	ldr	r2, [pc, #228]	; (80016a8 <HAL_RCC_OscConfig+0x328>)
 80015c4:	6812      	ldr	r2, [r2, #0]
 80015c6:	0392      	lsls	r2, r2, #14
 80015c8:	d400      	bmi.n	80015cc <HAL_RCC_OscConfig+0x24c>
 80015ca:	e712      	b.n	80013f2 <HAL_RCC_OscConfig+0x72>
 80015cc:	6862      	ldr	r2, [r4, #4]
 80015ce:	2a00      	cmp	r2, #0
 80015d0:	d000      	beq.n	80015d4 <HAL_RCC_OscConfig+0x254>
 80015d2:	e70e      	b.n	80013f2 <HAL_RCC_OscConfig+0x72>
 80015d4:	e7dc      	b.n	8001590 <HAL_RCC_OscConfig+0x210>
 80015d6:	25f8      	movs	r5, #248	; 0xf8
 80015d8:	4833      	ldr	r0, [pc, #204]	; (80016a8 <HAL_RCC_OscConfig+0x328>)
 80015da:	6922      	ldr	r2, [r4, #16]
 80015dc:	6801      	ldr	r1, [r0, #0]
 80015de:	00d2      	lsls	r2, r2, #3
 80015e0:	43a9      	bics	r1, r5
 80015e2:	430a      	orrs	r2, r1
 80015e4:	6002      	str	r2, [r0, #0]
 80015e6:	071a      	lsls	r2, r3, #28
 80015e8:	d400      	bmi.n	80015ec <HAL_RCC_OscConfig+0x26c>
 80015ea:	e731      	b.n	8001450 <HAL_RCC_OscConfig+0xd0>
 80015ec:	e7ae      	b.n	800154c <HAL_RCC_OscConfig+0x1cc>
 80015ee:	4d2e      	ldr	r5, [pc, #184]	; (80016a8 <HAL_RCC_OscConfig+0x328>)
 80015f0:	4a2e      	ldr	r2, [pc, #184]	; (80016ac <HAL_RCC_OscConfig+0x32c>)
 80015f2:	682b      	ldr	r3, [r5, #0]
 80015f4:	2680      	movs	r6, #128	; 0x80
 80015f6:	4013      	ands	r3, r2
 80015f8:	602b      	str	r3, [r5, #0]
 80015fa:	682b      	ldr	r3, [r5, #0]
 80015fc:	4a2c      	ldr	r2, [pc, #176]	; (80016b0 <HAL_RCC_OscConfig+0x330>)
 80015fe:	02b6      	lsls	r6, r6, #10
 8001600:	4013      	ands	r3, r2
 8001602:	602b      	str	r3, [r5, #0]
 8001604:	f7fe ff20 	bl	8000448 <HAL_GetTick>
 8001608:	0007      	movs	r7, r0
 800160a:	e004      	b.n	8001616 <HAL_RCC_OscConfig+0x296>
 800160c:	f7fe ff1c 	bl	8000448 <HAL_GetTick>
 8001610:	1bc0      	subs	r0, r0, r7
 8001612:	2864      	cmp	r0, #100	; 0x64
 8001614:	d819      	bhi.n	800164a <HAL_RCC_OscConfig+0x2ca>
 8001616:	682b      	ldr	r3, [r5, #0]
 8001618:	4233      	tst	r3, r6
 800161a:	d1f7      	bne.n	800160c <HAL_RCC_OscConfig+0x28c>
 800161c:	6823      	ldr	r3, [r4, #0]
 800161e:	e6e8      	b.n	80013f2 <HAL_RCC_OscConfig+0x72>
 8001620:	6833      	ldr	r3, [r6, #0]
 8001622:	433b      	orrs	r3, r7
 8001624:	6033      	str	r3, [r6, #0]
 8001626:	f7fe ff0f 	bl	8000448 <HAL_GetTick>
 800162a:	0005      	movs	r5, r0
 800162c:	e004      	b.n	8001638 <HAL_RCC_OscConfig+0x2b8>
 800162e:	f7fe ff0b 	bl	8000448 <HAL_GetTick>
 8001632:	1b40      	subs	r0, r0, r5
 8001634:	2864      	cmp	r0, #100	; 0x64
 8001636:	d808      	bhi.n	800164a <HAL_RCC_OscConfig+0x2ca>
 8001638:	6833      	ldr	r3, [r6, #0]
 800163a:	423b      	tst	r3, r7
 800163c:	d0f7      	beq.n	800162e <HAL_RCC_OscConfig+0x2ae>
 800163e:	e721      	b.n	8001484 <HAL_RCC_OscConfig+0x104>
 8001640:	4919      	ldr	r1, [pc, #100]	; (80016a8 <HAL_RCC_OscConfig+0x328>)
 8001642:	6a0a      	ldr	r2, [r1, #32]
 8001644:	4313      	orrs	r3, r2
 8001646:	620b      	str	r3, [r1, #32]
 8001648:	e72f      	b.n	80014aa <HAL_RCC_OscConfig+0x12a>
 800164a:	2003      	movs	r0, #3
 800164c:	e779      	b.n	8001542 <HAL_RCC_OscConfig+0x1c2>
 800164e:	2201      	movs	r2, #1
 8001650:	4e15      	ldr	r6, [pc, #84]	; (80016a8 <HAL_RCC_OscConfig+0x328>)
 8001652:	2702      	movs	r7, #2
 8001654:	6a33      	ldr	r3, [r6, #32]
 8001656:	4d18      	ldr	r5, [pc, #96]	; (80016b8 <HAL_RCC_OscConfig+0x338>)
 8001658:	4393      	bics	r3, r2
 800165a:	6233      	str	r3, [r6, #32]
 800165c:	6a33      	ldr	r3, [r6, #32]
 800165e:	3203      	adds	r2, #3
 8001660:	4393      	bics	r3, r2
 8001662:	6233      	str	r3, [r6, #32]
 8001664:	f7fe fef0 	bl	8000448 <HAL_GetTick>
 8001668:	4681      	mov	r9, r0
 800166a:	e005      	b.n	8001678 <HAL_RCC_OscConfig+0x2f8>
 800166c:	f7fe feec 	bl	8000448 <HAL_GetTick>
 8001670:	464b      	mov	r3, r9
 8001672:	1ac0      	subs	r0, r0, r3
 8001674:	42a8      	cmp	r0, r5
 8001676:	d8e8      	bhi.n	800164a <HAL_RCC_OscConfig+0x2ca>
 8001678:	6a33      	ldr	r3, [r6, #32]
 800167a:	421f      	tst	r7, r3
 800167c:	d1f6      	bne.n	800166c <HAL_RCC_OscConfig+0x2ec>
 800167e:	e725      	b.n	80014cc <HAL_RCC_OscConfig+0x14c>
 8001680:	2201      	movs	r2, #1
 8001682:	682b      	ldr	r3, [r5, #0]
 8001684:	2602      	movs	r6, #2
 8001686:	4393      	bics	r3, r2
 8001688:	602b      	str	r3, [r5, #0]
 800168a:	f7fe fedd 	bl	8000448 <HAL_GetTick>
 800168e:	0007      	movs	r7, r0
 8001690:	e004      	b.n	800169c <HAL_RCC_OscConfig+0x31c>
 8001692:	f7fe fed9 	bl	8000448 <HAL_GetTick>
 8001696:	1bc0      	subs	r0, r0, r7
 8001698:	2802      	cmp	r0, #2
 800169a:	d8d6      	bhi.n	800164a <HAL_RCC_OscConfig+0x2ca>
 800169c:	682b      	ldr	r3, [r5, #0]
 800169e:	421e      	tst	r6, r3
 80016a0:	d1f7      	bne.n	8001692 <HAL_RCC_OscConfig+0x312>
 80016a2:	6823      	ldr	r3, [r4, #0]
 80016a4:	e6d1      	b.n	800144a <HAL_RCC_OscConfig+0xca>
 80016a6:	46c0      	nop			; (mov r8, r8)
 80016a8:	40021000 	.word	0x40021000
 80016ac:	fffeffff 	.word	0xfffeffff
 80016b0:	fffbffff 	.word	0xfffbffff
 80016b4:	40007000 	.word	0x40007000
 80016b8:	00001388 	.word	0x00001388
 80016bc:	feffffff 	.word	0xfeffffff
 80016c0:	2380      	movs	r3, #128	; 0x80
 80016c2:	4a47      	ldr	r2, [pc, #284]	; (80017e0 <HAL_RCC_OscConfig+0x460>)
 80016c4:	025b      	lsls	r3, r3, #9
 80016c6:	6811      	ldr	r1, [r2, #0]
 80016c8:	430b      	orrs	r3, r1
 80016ca:	6013      	str	r3, [r2, #0]
 80016cc:	e680      	b.n	80013d0 <HAL_RCC_OscConfig+0x50>
 80016ce:	2204      	movs	r2, #4
 80016d0:	4d43      	ldr	r5, [pc, #268]	; (80017e0 <HAL_RCC_OscConfig+0x460>)
 80016d2:	2602      	movs	r6, #2
 80016d4:	6b6b      	ldr	r3, [r5, #52]	; 0x34
 80016d6:	4313      	orrs	r3, r2
 80016d8:	636b      	str	r3, [r5, #52]	; 0x34
 80016da:	6b6b      	ldr	r3, [r5, #52]	; 0x34
 80016dc:	3a03      	subs	r2, #3
 80016de:	4393      	bics	r3, r2
 80016e0:	636b      	str	r3, [r5, #52]	; 0x34
 80016e2:	f7fe feb1 	bl	8000448 <HAL_GetTick>
 80016e6:	0007      	movs	r7, r0
 80016e8:	e004      	b.n	80016f4 <HAL_RCC_OscConfig+0x374>
 80016ea:	f7fe fead 	bl	8000448 <HAL_GetTick>
 80016ee:	1bc0      	subs	r0, r0, r7
 80016f0:	2802      	cmp	r0, #2
 80016f2:	d8aa      	bhi.n	800164a <HAL_RCC_OscConfig+0x2ca>
 80016f4:	6b6b      	ldr	r3, [r5, #52]	; 0x34
 80016f6:	421e      	tst	r6, r3
 80016f8:	d1f7      	bne.n	80016ea <HAL_RCC_OscConfig+0x36a>
 80016fa:	e701      	b.n	8001500 <HAL_RCC_OscConfig+0x180>
 80016fc:	4a38      	ldr	r2, [pc, #224]	; (80017e0 <HAL_RCC_OscConfig+0x460>)
 80016fe:	4939      	ldr	r1, [pc, #228]	; (80017e4 <HAL_RCC_OscConfig+0x464>)
 8001700:	69d3      	ldr	r3, [r2, #28]
 8001702:	400b      	ands	r3, r1
 8001704:	61d3      	str	r3, [r2, #28]
 8001706:	6823      	ldr	r3, [r4, #0]
 8001708:	e6e5      	b.n	80014d6 <HAL_RCC_OscConfig+0x156>
 800170a:	682b      	ldr	r3, [r5, #0]
 800170c:	4a36      	ldr	r2, [pc, #216]	; (80017e8 <HAL_RCC_OscConfig+0x468>)
 800170e:	2680      	movs	r6, #128	; 0x80
 8001710:	4013      	ands	r3, r2
 8001712:	602b      	str	r3, [r5, #0]
 8001714:	f7fe fe98 	bl	8000448 <HAL_GetTick>
 8001718:	04b6      	lsls	r6, r6, #18
 800171a:	0007      	movs	r7, r0
 800171c:	e004      	b.n	8001728 <HAL_RCC_OscConfig+0x3a8>
 800171e:	f7fe fe93 	bl	8000448 <HAL_GetTick>
 8001722:	1bc0      	subs	r0, r0, r7
 8001724:	2802      	cmp	r0, #2
 8001726:	d890      	bhi.n	800164a <HAL_RCC_OscConfig+0x2ca>
 8001728:	682b      	ldr	r3, [r5, #0]
 800172a:	4233      	tst	r3, r6
 800172c:	d1f7      	bne.n	800171e <HAL_RCC_OscConfig+0x39e>
 800172e:	220f      	movs	r2, #15
 8001730:	6aeb      	ldr	r3, [r5, #44]	; 0x2c
 8001732:	4393      	bics	r3, r2
 8001734:	6ae2      	ldr	r2, [r4, #44]	; 0x2c
 8001736:	4313      	orrs	r3, r2
 8001738:	62eb      	str	r3, [r5, #44]	; 0x2c
 800173a:	6a61      	ldr	r1, [r4, #36]	; 0x24
 800173c:	6aa3      	ldr	r3, [r4, #40]	; 0x28
 800173e:	686a      	ldr	r2, [r5, #4]
 8001740:	430b      	orrs	r3, r1
 8001742:	492a      	ldr	r1, [pc, #168]	; (80017ec <HAL_RCC_OscConfig+0x46c>)
 8001744:	2480      	movs	r4, #128	; 0x80
 8001746:	400a      	ands	r2, r1
 8001748:	4313      	orrs	r3, r2
 800174a:	606b      	str	r3, [r5, #4]
 800174c:	2380      	movs	r3, #128	; 0x80
 800174e:	682a      	ldr	r2, [r5, #0]
 8001750:	045b      	lsls	r3, r3, #17
 8001752:	4313      	orrs	r3, r2
 8001754:	602b      	str	r3, [r5, #0]
 8001756:	f7fe fe77 	bl	8000448 <HAL_GetTick>
 800175a:	4d21      	ldr	r5, [pc, #132]	; (80017e0 <HAL_RCC_OscConfig+0x460>)
 800175c:	0006      	movs	r6, r0
 800175e:	04a4      	lsls	r4, r4, #18
 8001760:	e005      	b.n	800176e <HAL_RCC_OscConfig+0x3ee>
 8001762:	f7fe fe71 	bl	8000448 <HAL_GetTick>
 8001766:	1b80      	subs	r0, r0, r6
 8001768:	2802      	cmp	r0, #2
 800176a:	d900      	bls.n	800176e <HAL_RCC_OscConfig+0x3ee>
 800176c:	e76d      	b.n	800164a <HAL_RCC_OscConfig+0x2ca>
 800176e:	682b      	ldr	r3, [r5, #0]
 8001770:	4223      	tst	r3, r4
 8001772:	d0f6      	beq.n	8001762 <HAL_RCC_OscConfig+0x3e2>
 8001774:	e6e4      	b.n	8001540 <HAL_RCC_OscConfig+0x1c0>
 8001776:	2280      	movs	r2, #128	; 0x80
 8001778:	4b19      	ldr	r3, [pc, #100]	; (80017e0 <HAL_RCC_OscConfig+0x460>)
 800177a:	02d2      	lsls	r2, r2, #11
 800177c:	6819      	ldr	r1, [r3, #0]
 800177e:	430a      	orrs	r2, r1
 8001780:	601a      	str	r2, [r3, #0]
 8001782:	2280      	movs	r2, #128	; 0x80
 8001784:	6819      	ldr	r1, [r3, #0]
 8001786:	0252      	lsls	r2, r2, #9
 8001788:	430a      	orrs	r2, r1
 800178a:	601a      	str	r2, [r3, #0]
 800178c:	e620      	b.n	80013d0 <HAL_RCC_OscConfig+0x50>
 800178e:	2104      	movs	r1, #4
 8001790:	4d13      	ldr	r5, [pc, #76]	; (80017e0 <HAL_RCC_OscConfig+0x460>)
 8001792:	2602      	movs	r6, #2
 8001794:	6b6a      	ldr	r2, [r5, #52]	; 0x34
 8001796:	430a      	orrs	r2, r1
 8001798:	636a      	str	r2, [r5, #52]	; 0x34
 800179a:	6b6a      	ldr	r2, [r5, #52]	; 0x34
 800179c:	4313      	orrs	r3, r2
 800179e:	636b      	str	r3, [r5, #52]	; 0x34
 80017a0:	f7fe fe52 	bl	8000448 <HAL_GetTick>
 80017a4:	0007      	movs	r7, r0
 80017a6:	e005      	b.n	80017b4 <HAL_RCC_OscConfig+0x434>
 80017a8:	f7fe fe4e 	bl	8000448 <HAL_GetTick>
 80017ac:	1bc0      	subs	r0, r0, r7
 80017ae:	2802      	cmp	r0, #2
 80017b0:	d900      	bls.n	80017b4 <HAL_RCC_OscConfig+0x434>
 80017b2:	e74a      	b.n	800164a <HAL_RCC_OscConfig+0x2ca>
 80017b4:	6b6b      	ldr	r3, [r5, #52]	; 0x34
 80017b6:	421e      	tst	r6, r3
 80017b8:	d0f6      	beq.n	80017a8 <HAL_RCC_OscConfig+0x428>
 80017ba:	21f8      	movs	r1, #248	; 0xf8
 80017bc:	6b6a      	ldr	r2, [r5, #52]	; 0x34
 80017be:	69a3      	ldr	r3, [r4, #24]
 80017c0:	438a      	bics	r2, r1
 80017c2:	00db      	lsls	r3, r3, #3
 80017c4:	4313      	orrs	r3, r2
 80017c6:	636b      	str	r3, [r5, #52]	; 0x34
 80017c8:	e69a      	b.n	8001500 <HAL_RCC_OscConfig+0x180>
 80017ca:	2104      	movs	r1, #4
 80017cc:	4b04      	ldr	r3, [pc, #16]	; (80017e0 <HAL_RCC_OscConfig+0x460>)
 80017ce:	6a1a      	ldr	r2, [r3, #32]
 80017d0:	430a      	orrs	r2, r1
 80017d2:	621a      	str	r2, [r3, #32]
 80017d4:	6a1a      	ldr	r2, [r3, #32]
 80017d6:	3903      	subs	r1, #3
 80017d8:	430a      	orrs	r2, r1
 80017da:	621a      	str	r2, [r3, #32]
 80017dc:	e665      	b.n	80014aa <HAL_RCC_OscConfig+0x12a>
 80017de:	46c0      	nop			; (mov r8, r8)
 80017e0:	40021000 	.word	0x40021000
 80017e4:	efffffff 	.word	0xefffffff
 80017e8:	feffffff 	.word	0xfeffffff
 80017ec:	ffc2ffff 	.word	0xffc2ffff

080017f0 <HAL_RCC_ClockConfig>:
 80017f0:	b5f0      	push	{r4, r5, r6, r7, lr}
 80017f2:	46ce      	mov	lr, r9
 80017f4:	4647      	mov	r7, r8
 80017f6:	2201      	movs	r2, #1
 80017f8:	b580      	push	{r7, lr}
 80017fa:	000c      	movs	r4, r1
 80017fc:	495c      	ldr	r1, [pc, #368]	; (8001970 <HAL_RCC_ClockConfig+0x180>)
 80017fe:	b089      	sub	sp, #36	; 0x24
 8001800:	680b      	ldr	r3, [r1, #0]
 8001802:	0005      	movs	r5, r0
 8001804:	4013      	ands	r3, r2
 8001806:	42a3      	cmp	r3, r4
 8001808:	d20d      	bcs.n	8001826 <HAL_RCC_ClockConfig+0x36>
 800180a:	680b      	ldr	r3, [r1, #0]
 800180c:	4393      	bics	r3, r2
 800180e:	4323      	orrs	r3, r4
 8001810:	600b      	str	r3, [r1, #0]
 8001812:	680b      	ldr	r3, [r1, #0]
 8001814:	401a      	ands	r2, r3
 8001816:	4294      	cmp	r4, r2
 8001818:	d005      	beq.n	8001826 <HAL_RCC_ClockConfig+0x36>
 800181a:	2001      	movs	r0, #1
 800181c:	b009      	add	sp, #36	; 0x24
 800181e:	bc0c      	pop	{r2, r3}
 8001820:	4690      	mov	r8, r2
 8001822:	4699      	mov	r9, r3
 8001824:	bdf0      	pop	{r4, r5, r6, r7, pc}
 8001826:	682b      	ldr	r3, [r5, #0]
 8001828:	079a      	lsls	r2, r3, #30
 800182a:	d506      	bpl.n	800183a <HAL_RCC_ClockConfig+0x4a>
 800182c:	20f0      	movs	r0, #240	; 0xf0
 800182e:	4951      	ldr	r1, [pc, #324]	; (8001974 <HAL_RCC_ClockConfig+0x184>)
 8001830:	684a      	ldr	r2, [r1, #4]
 8001832:	4382      	bics	r2, r0
 8001834:	68a8      	ldr	r0, [r5, #8]
 8001836:	4302      	orrs	r2, r0
 8001838:	604a      	str	r2, [r1, #4]
 800183a:	07db      	lsls	r3, r3, #31
 800183c:	d524      	bpl.n	8001888 <HAL_RCC_ClockConfig+0x98>
 800183e:	4b4d      	ldr	r3, [pc, #308]	; (8001974 <HAL_RCC_ClockConfig+0x184>)
 8001840:	686a      	ldr	r2, [r5, #4]
 8001842:	681b      	ldr	r3, [r3, #0]
 8001844:	2a01      	cmp	r2, #1
 8001846:	d06a      	beq.n	800191e <HAL_RCC_ClockConfig+0x12e>
 8001848:	2a02      	cmp	r2, #2
 800184a:	d063      	beq.n	8001914 <HAL_RCC_ClockConfig+0x124>
 800184c:	079b      	lsls	r3, r3, #30
 800184e:	d5e4      	bpl.n	800181a <HAL_RCC_ClockConfig+0x2a>
 8001850:	2103      	movs	r1, #3
 8001852:	4e48      	ldr	r6, [pc, #288]	; (8001974 <HAL_RCC_ClockConfig+0x184>)
 8001854:	6873      	ldr	r3, [r6, #4]
 8001856:	438b      	bics	r3, r1
 8001858:	4313      	orrs	r3, r2
 800185a:	6073      	str	r3, [r6, #4]
 800185c:	f7fe fdf4 	bl	8000448 <HAL_GetTick>
 8001860:	686b      	ldr	r3, [r5, #4]
 8001862:	0007      	movs	r7, r0
 8001864:	2b01      	cmp	r3, #1
 8001866:	d05d      	beq.n	8001924 <HAL_RCC_ClockConfig+0x134>
 8001868:	2b02      	cmp	r3, #2
 800186a:	d06b      	beq.n	8001944 <HAL_RCC_ClockConfig+0x154>
 800186c:	230c      	movs	r3, #12
 800186e:	4698      	mov	r8, r3
 8001870:	4b41      	ldr	r3, [pc, #260]	; (8001978 <HAL_RCC_ClockConfig+0x188>)
 8001872:	4699      	mov	r9, r3
 8001874:	e004      	b.n	8001880 <HAL_RCC_ClockConfig+0x90>
 8001876:	f7fe fde7 	bl	8000448 <HAL_GetTick>
 800187a:	1bc0      	subs	r0, r0, r7
 800187c:	4548      	cmp	r0, r9
 800187e:	d84c      	bhi.n	800191a <HAL_RCC_ClockConfig+0x12a>
 8001880:	4642      	mov	r2, r8
 8001882:	6873      	ldr	r3, [r6, #4]
 8001884:	421a      	tst	r2, r3
 8001886:	d1f6      	bne.n	8001876 <HAL_RCC_ClockConfig+0x86>
 8001888:	2101      	movs	r1, #1
 800188a:	4a39      	ldr	r2, [pc, #228]	; (8001970 <HAL_RCC_ClockConfig+0x180>)
 800188c:	6813      	ldr	r3, [r2, #0]
 800188e:	400b      	ands	r3, r1
 8001890:	429c      	cmp	r4, r3
 8001892:	d205      	bcs.n	80018a0 <HAL_RCC_ClockConfig+0xb0>
 8001894:	6813      	ldr	r3, [r2, #0]
 8001896:	438b      	bics	r3, r1
 8001898:	6013      	str	r3, [r2, #0]
 800189a:	6813      	ldr	r3, [r2, #0]
 800189c:	4219      	tst	r1, r3
 800189e:	d1bc      	bne.n	800181a <HAL_RCC_ClockConfig+0x2a>
 80018a0:	682b      	ldr	r3, [r5, #0]
 80018a2:	075b      	lsls	r3, r3, #29
 80018a4:	d506      	bpl.n	80018b4 <HAL_RCC_ClockConfig+0xc4>
 80018a6:	4a33      	ldr	r2, [pc, #204]	; (8001974 <HAL_RCC_ClockConfig+0x184>)
 80018a8:	4934      	ldr	r1, [pc, #208]	; (800197c <HAL_RCC_ClockConfig+0x18c>)
 80018aa:	6853      	ldr	r3, [r2, #4]
 80018ac:	400b      	ands	r3, r1
 80018ae:	68e9      	ldr	r1, [r5, #12]
 80018b0:	430b      	orrs	r3, r1
 80018b2:	6053      	str	r3, [r2, #4]
 80018b4:	4b32      	ldr	r3, [pc, #200]	; (8001980 <HAL_RCC_ClockConfig+0x190>)
 80018b6:	466a      	mov	r2, sp
 80018b8:	0018      	movs	r0, r3
 80018ba:	c870      	ldmia	r0!, {r4, r5, r6}
 80018bc:	c270      	stmia	r2!, {r4, r5, r6}
 80018be:	6800      	ldr	r0, [r0, #0]
 80018c0:	3310      	adds	r3, #16
 80018c2:	6010      	str	r0, [r2, #0]
 80018c4:	aa04      	add	r2, sp, #16
 80018c6:	0010      	movs	r0, r2
 80018c8:	cb70      	ldmia	r3!, {r4, r5, r6}
 80018ca:	c070      	stmia	r0!, {r4, r5, r6}
 80018cc:	681b      	ldr	r3, [r3, #0]
 80018ce:	4d29      	ldr	r5, [pc, #164]	; (8001974 <HAL_RCC_ClockConfig+0x184>)
 80018d0:	6003      	str	r3, [r0, #0]
 80018d2:	230c      	movs	r3, #12
 80018d4:	6868      	ldr	r0, [r5, #4]
 80018d6:	4669      	mov	r1, sp
 80018d8:	4003      	ands	r3, r0
 80018da:	2b08      	cmp	r3, #8
 80018dc:	d10b      	bne.n	80018f6 <HAL_RCC_ClockConfig+0x106>
 80018de:	3307      	adds	r3, #7
 80018e0:	0c84      	lsrs	r4, r0, #18
 80018e2:	401c      	ands	r4, r3
 80018e4:	5d0c      	ldrb	r4, [r1, r4]
 80018e6:	6ae9      	ldr	r1, [r5, #44]	; 0x2c
 80018e8:	400b      	ands	r3, r1
 80018ea:	5cd1      	ldrb	r1, [r2, r3]
 80018ec:	03c3      	lsls	r3, r0, #15
 80018ee:	d439      	bmi.n	8001964 <HAL_RCC_ClockConfig+0x174>
 80018f0:	4824      	ldr	r0, [pc, #144]	; (8001984 <HAL_RCC_ClockConfig+0x194>)
 80018f2:	4360      	muls	r0, r4
 80018f4:	e000      	b.n	80018f8 <HAL_RCC_ClockConfig+0x108>
 80018f6:	4824      	ldr	r0, [pc, #144]	; (8001988 <HAL_RCC_ClockConfig+0x198>)
 80018f8:	4b1e      	ldr	r3, [pc, #120]	; (8001974 <HAL_RCC_ClockConfig+0x184>)
 80018fa:	4a24      	ldr	r2, [pc, #144]	; (800198c <HAL_RCC_ClockConfig+0x19c>)
 80018fc:	685b      	ldr	r3, [r3, #4]
 80018fe:	061b      	lsls	r3, r3, #24
 8001900:	0f1b      	lsrs	r3, r3, #28
 8001902:	5cd3      	ldrb	r3, [r2, r3]
 8001904:	40d8      	lsrs	r0, r3
 8001906:	4b22      	ldr	r3, [pc, #136]	; (8001990 <HAL_RCC_ClockConfig+0x1a0>)
 8001908:	6018      	str	r0, [r3, #0]
 800190a:	2000      	movs	r0, #0
 800190c:	f7fe fd72 	bl	80003f4 <HAL_InitTick>
 8001910:	2000      	movs	r0, #0
 8001912:	e783      	b.n	800181c <HAL_RCC_ClockConfig+0x2c>
 8001914:	019b      	lsls	r3, r3, #6
 8001916:	d49b      	bmi.n	8001850 <HAL_RCC_ClockConfig+0x60>
 8001918:	e77f      	b.n	800181a <HAL_RCC_ClockConfig+0x2a>
 800191a:	2003      	movs	r0, #3
 800191c:	e77e      	b.n	800181c <HAL_RCC_ClockConfig+0x2c>
 800191e:	039b      	lsls	r3, r3, #14
 8001920:	d496      	bmi.n	8001850 <HAL_RCC_ClockConfig+0x60>
 8001922:	e77a      	b.n	800181a <HAL_RCC_ClockConfig+0x2a>
 8001924:	330b      	adds	r3, #11
 8001926:	4698      	mov	r8, r3
 8001928:	4b13      	ldr	r3, [pc, #76]	; (8001978 <HAL_RCC_ClockConfig+0x188>)
 800192a:	4699      	mov	r9, r3
 800192c:	e004      	b.n	8001938 <HAL_RCC_ClockConfig+0x148>
 800192e:	f7fe fd8b 	bl	8000448 <HAL_GetTick>
 8001932:	1bc0      	subs	r0, r0, r7
 8001934:	4548      	cmp	r0, r9
 8001936:	d8f0      	bhi.n	800191a <HAL_RCC_ClockConfig+0x12a>
 8001938:	4642      	mov	r2, r8
 800193a:	6873      	ldr	r3, [r6, #4]
 800193c:	4013      	ands	r3, r2
 800193e:	2b04      	cmp	r3, #4
 8001940:	d1f5      	bne.n	800192e <HAL_RCC_ClockConfig+0x13e>
 8001942:	e7a1      	b.n	8001888 <HAL_RCC_ClockConfig+0x98>
 8001944:	330a      	adds	r3, #10
 8001946:	4698      	mov	r8, r3
 8001948:	4b0b      	ldr	r3, [pc, #44]	; (8001978 <HAL_RCC_ClockConfig+0x188>)
 800194a:	4699      	mov	r9, r3
 800194c:	e004      	b.n	8001958 <HAL_RCC_ClockConfig+0x168>
 800194e:	f7fe fd7b 	bl	8000448 <HAL_GetTick>
 8001952:	1bc0      	subs	r0, r0, r7
 8001954:	4548      	cmp	r0, r9
 8001956:	d8e0      	bhi.n	800191a <HAL_RCC_ClockConfig+0x12a>
 8001958:	4642      	mov	r2, r8
 800195a:	6873      	ldr	r3, [r6, #4]
 800195c:	4013      	ands	r3, r2
 800195e:	2b08      	cmp	r3, #8
 8001960:	d1f5      	bne.n	800194e <HAL_RCC_ClockConfig+0x15e>
 8001962:	e791      	b.n	8001888 <HAL_RCC_ClockConfig+0x98>
 8001964:	4808      	ldr	r0, [pc, #32]	; (8001988 <HAL_RCC_ClockConfig+0x198>)
 8001966:	f7fe fbcf 	bl	8000108 <__udivsi3>
 800196a:	4360      	muls	r0, r4
 800196c:	e7c4      	b.n	80018f8 <HAL_RCC_ClockConfig+0x108>
 800196e:	46c0      	nop			; (mov r8, r8)
 8001970:	40022000 	.word	0x40022000
 8001974:	40021000 	.word	0x40021000
 8001978:	00001388 	.word	0x00001388
 800197c:	fffff8ff 	.word	0xfffff8ff
 8001980:	08005c60 	.word	0x08005c60
 8001984:	003d0900 	.word	0x003d0900
 8001988:	007a1200 	.word	0x007a1200
 800198c:	08005c9c 	.word	0x08005c9c
 8001990:	20000060 	.word	0x20000060

08001994 <HAL_RCC_GetHCLKFreq>:
 8001994:	4b01      	ldr	r3, [pc, #4]	; (800199c <HAL_RCC_GetHCLKFreq+0x8>)
 8001996:	6818      	ldr	r0, [r3, #0]
 8001998:	4770      	bx	lr
 800199a:	46c0      	nop			; (mov r8, r8)
 800199c:	20000060 	.word	0x20000060

080019a0 <HAL_TIM_Base_Init>:
 80019a0:	b510      	push	{r4, lr}
 80019a2:	1e04      	subs	r4, r0, #0
 80019a4:	d064      	beq.n	8001a70 <HAL_TIM_Base_Init+0xd0>
 80019a6:	233d      	movs	r3, #61	; 0x3d
 80019a8:	5cc3      	ldrb	r3, [r0, r3]
 80019aa:	b2db      	uxtb	r3, r3
 80019ac:	2b00      	cmp	r3, #0
 80019ae:	d03d      	beq.n	8001a2c <HAL_TIM_Base_Init+0x8c>
 80019b0:	2202      	movs	r2, #2
 80019b2:	233d      	movs	r3, #61	; 0x3d
 80019b4:	492f      	ldr	r1, [pc, #188]	; (8001a74 <HAL_TIM_Base_Init+0xd4>)
 80019b6:	54e2      	strb	r2, [r4, r3]
 80019b8:	6823      	ldr	r3, [r4, #0]
 80019ba:	681a      	ldr	r2, [r3, #0]
 80019bc:	428b      	cmp	r3, r1
 80019be:	d021      	beq.n	8001a04 <HAL_TIM_Base_Init+0x64>
 80019c0:	2180      	movs	r1, #128	; 0x80
 80019c2:	05c9      	lsls	r1, r1, #23
 80019c4:	428b      	cmp	r3, r1
 80019c6:	d036      	beq.n	8001a36 <HAL_TIM_Base_Init+0x96>
 80019c8:	492b      	ldr	r1, [pc, #172]	; (8001a78 <HAL_TIM_Base_Init+0xd8>)
 80019ca:	428b      	cmp	r3, r1
 80019cc:	d033      	beq.n	8001a36 <HAL_TIM_Base_Init+0x96>
 80019ce:	492b      	ldr	r1, [pc, #172]	; (8001a7c <HAL_TIM_Base_Init+0xdc>)
 80019d0:	428b      	cmp	r3, r1
 80019d2:	d048      	beq.n	8001a66 <HAL_TIM_Base_Init+0xc6>
 80019d4:	492a      	ldr	r1, [pc, #168]	; (8001a80 <HAL_TIM_Base_Init+0xe0>)
 80019d6:	428b      	cmp	r3, r1
 80019d8:	d018      	beq.n	8001a0c <HAL_TIM_Base_Init+0x6c>
 80019da:	492a      	ldr	r1, [pc, #168]	; (8001a84 <HAL_TIM_Base_Init+0xe4>)
 80019dc:	428b      	cmp	r3, r1
 80019de:	d015      	beq.n	8001a0c <HAL_TIM_Base_Init+0x6c>
 80019e0:	4929      	ldr	r1, [pc, #164]	; (8001a88 <HAL_TIM_Base_Init+0xe8>)
 80019e2:	428b      	cmp	r3, r1
 80019e4:	d012      	beq.n	8001a0c <HAL_TIM_Base_Init+0x6c>
 80019e6:	2180      	movs	r1, #128	; 0x80
 80019e8:	438a      	bics	r2, r1
 80019ea:	69a1      	ldr	r1, [r4, #24]
 80019ec:	430a      	orrs	r2, r1
 80019ee:	601a      	str	r2, [r3, #0]
 80019f0:	68e2      	ldr	r2, [r4, #12]
 80019f2:	62da      	str	r2, [r3, #44]	; 0x2c
 80019f4:	6862      	ldr	r2, [r4, #4]
 80019f6:	629a      	str	r2, [r3, #40]	; 0x28
 80019f8:	2201      	movs	r2, #1
 80019fa:	615a      	str	r2, [r3, #20]
 80019fc:	233d      	movs	r3, #61	; 0x3d
 80019fe:	2000      	movs	r0, #0
 8001a00:	54e2      	strb	r2, [r4, r3]
 8001a02:	bd10      	pop	{r4, pc}
 8001a04:	2170      	movs	r1, #112	; 0x70
 8001a06:	438a      	bics	r2, r1
 8001a08:	68a1      	ldr	r1, [r4, #8]
 8001a0a:	430a      	orrs	r2, r1
 8001a0c:	491f      	ldr	r1, [pc, #124]	; (8001a8c <HAL_TIM_Base_Init+0xec>)
 8001a0e:	400a      	ands	r2, r1
 8001a10:	6921      	ldr	r1, [r4, #16]
 8001a12:	430a      	orrs	r2, r1
 8001a14:	2180      	movs	r1, #128	; 0x80
 8001a16:	438a      	bics	r2, r1
 8001a18:	69a1      	ldr	r1, [r4, #24]
 8001a1a:	430a      	orrs	r2, r1
 8001a1c:	601a      	str	r2, [r3, #0]
 8001a1e:	68e2      	ldr	r2, [r4, #12]
 8001a20:	62da      	str	r2, [r3, #44]	; 0x2c
 8001a22:	6862      	ldr	r2, [r4, #4]
 8001a24:	629a      	str	r2, [r3, #40]	; 0x28
 8001a26:	6962      	ldr	r2, [r4, #20]
 8001a28:	631a      	str	r2, [r3, #48]	; 0x30
 8001a2a:	e7e5      	b.n	80019f8 <HAL_TIM_Base_Init+0x58>
 8001a2c:	223c      	movs	r2, #60	; 0x3c
 8001a2e:	5483      	strb	r3, [r0, r2]
 8001a30:	f003 ff96 	bl	8005960 <HAL_TIM_Base_MspInit>
 8001a34:	e7bc      	b.n	80019b0 <HAL_TIM_Base_Init+0x10>
 8001a36:	2170      	movs	r1, #112	; 0x70
 8001a38:	438a      	bics	r2, r1
 8001a3a:	68a1      	ldr	r1, [r4, #8]
 8001a3c:	430a      	orrs	r2, r1
 8001a3e:	4913      	ldr	r1, [pc, #76]	; (8001a8c <HAL_TIM_Base_Init+0xec>)
 8001a40:	400a      	ands	r2, r1
 8001a42:	6921      	ldr	r1, [r4, #16]
 8001a44:	430a      	orrs	r2, r1
 8001a46:	2180      	movs	r1, #128	; 0x80
 8001a48:	438a      	bics	r2, r1
 8001a4a:	69a1      	ldr	r1, [r4, #24]
 8001a4c:	430a      	orrs	r2, r1
 8001a4e:	601a      	str	r2, [r3, #0]
 8001a50:	68e2      	ldr	r2, [r4, #12]
 8001a52:	62da      	str	r2, [r3, #44]	; 0x2c
 8001a54:	6862      	ldr	r2, [r4, #4]
 8001a56:	629a      	str	r2, [r3, #40]	; 0x28
 8001a58:	4a0a      	ldr	r2, [pc, #40]	; (8001a84 <HAL_TIM_Base_Init+0xe4>)
 8001a5a:	4293      	cmp	r3, r2
 8001a5c:	d0e3      	beq.n	8001a26 <HAL_TIM_Base_Init+0x86>
 8001a5e:	4a0a      	ldr	r2, [pc, #40]	; (8001a88 <HAL_TIM_Base_Init+0xe8>)
 8001a60:	4293      	cmp	r3, r2
 8001a62:	d0e0      	beq.n	8001a26 <HAL_TIM_Base_Init+0x86>
 8001a64:	e7c8      	b.n	80019f8 <HAL_TIM_Base_Init+0x58>
 8001a66:	4909      	ldr	r1, [pc, #36]	; (8001a8c <HAL_TIM_Base_Init+0xec>)
 8001a68:	400a      	ands	r2, r1
 8001a6a:	6921      	ldr	r1, [r4, #16]
 8001a6c:	430a      	orrs	r2, r1
 8001a6e:	e7ba      	b.n	80019e6 <HAL_TIM_Base_Init+0x46>
 8001a70:	2001      	movs	r0, #1
 8001a72:	e7c6      	b.n	8001a02 <HAL_TIM_Base_Init+0x62>
 8001a74:	40012c00 	.word	0x40012c00
 8001a78:	40000400 	.word	0x40000400
 8001a7c:	40002000 	.word	0x40002000
 8001a80:	40014000 	.word	0x40014000
 8001a84:	40014400 	.word	0x40014400
 8001a88:	40014800 	.word	0x40014800
 8001a8c:	fffffcff 	.word	0xfffffcff

08001a90 <HAL_TIM_Base_Start>:
 8001a90:	223d      	movs	r2, #61	; 0x3d
 8001a92:	2302      	movs	r3, #2
 8001a94:	2101      	movs	r1, #1
 8001a96:	b510      	push	{r4, lr}
 8001a98:	6804      	ldr	r4, [r0, #0]
 8001a9a:	5483      	strb	r3, [r0, r2]
 8001a9c:	6823      	ldr	r3, [r4, #0]
 8001a9e:	430b      	orrs	r3, r1
 8001aa0:	6023      	str	r3, [r4, #0]
 8001aa2:	5481      	strb	r1, [r0, r2]
 8001aa4:	2000      	movs	r0, #0
 8001aa6:	bd10      	pop	{r4, pc}

08001aa8 <HAL_TIM_Base_Stop>:
 8001aa8:	2202      	movs	r2, #2
 8001aaa:	233d      	movs	r3, #61	; 0x3d
 8001aac:	54c2      	strb	r2, [r0, r3]
 8001aae:	6803      	ldr	r3, [r0, #0]
 8001ab0:	4a08      	ldr	r2, [pc, #32]	; (8001ad4 <HAL_TIM_Base_Stop+0x2c>)
 8001ab2:	6a19      	ldr	r1, [r3, #32]
 8001ab4:	4211      	tst	r1, r2
 8001ab6:	d107      	bne.n	8001ac8 <HAL_TIM_Base_Stop+0x20>
 8001ab8:	6a19      	ldr	r1, [r3, #32]
 8001aba:	4a07      	ldr	r2, [pc, #28]	; (8001ad8 <HAL_TIM_Base_Stop+0x30>)
 8001abc:	4211      	tst	r1, r2
 8001abe:	d103      	bne.n	8001ac8 <HAL_TIM_Base_Stop+0x20>
 8001ac0:	2101      	movs	r1, #1
 8001ac2:	681a      	ldr	r2, [r3, #0]
 8001ac4:	438a      	bics	r2, r1
 8001ac6:	601a      	str	r2, [r3, #0]
 8001ac8:	2201      	movs	r2, #1
 8001aca:	233d      	movs	r3, #61	; 0x3d
 8001acc:	54c2      	strb	r2, [r0, r3]
 8001ace:	2000      	movs	r0, #0
 8001ad0:	4770      	bx	lr
 8001ad2:	46c0      	nop			; (mov r8, r8)
 8001ad4:	00001111 	.word	0x00001111
 8001ad8:	00000444 	.word	0x00000444

08001adc <HAL_TIM_Base_Start_IT>:
 8001adc:	6803      	ldr	r3, [r0, #0]
 8001ade:	2001      	movs	r0, #1
 8001ae0:	68d9      	ldr	r1, [r3, #12]
 8001ae2:	4301      	orrs	r1, r0
 8001ae4:	60d9      	str	r1, [r3, #12]
 8001ae6:	681a      	ldr	r2, [r3, #0]
 8001ae8:	4302      	orrs	r2, r0
 8001aea:	601a      	str	r2, [r3, #0]
 8001aec:	2000      	movs	r0, #0
 8001aee:	4770      	bx	lr

08001af0 <HAL_TIM_OC_Start_IT>:
 8001af0:	2904      	cmp	r1, #4
 8001af2:	d023      	beq.n	8001b3c <HAL_TIM_OC_Start_IT+0x4c>
 8001af4:	d92d      	bls.n	8001b52 <HAL_TIM_OC_Start_IT+0x62>
 8001af6:	2908      	cmp	r1, #8
 8001af8:	d020      	beq.n	8001b3c <HAL_TIM_OC_Start_IT+0x4c>
 8001afa:	290c      	cmp	r1, #12
 8001afc:	d131      	bne.n	8001b62 <HAL_TIM_OC_Start_IT+0x72>
 8001afe:	6803      	ldr	r3, [r0, #0]
 8001b00:	2010      	movs	r0, #16
 8001b02:	68da      	ldr	r2, [r3, #12]
 8001b04:	4302      	orrs	r2, r0
 8001b06:	60da      	str	r2, [r3, #12]
 8001b08:	2201      	movs	r2, #1
 8001b0a:	408a      	lsls	r2, r1
 8001b0c:	6a19      	ldr	r1, [r3, #32]
 8001b0e:	4391      	bics	r1, r2
 8001b10:	6219      	str	r1, [r3, #32]
 8001b12:	6a19      	ldr	r1, [r3, #32]
 8001b14:	430a      	orrs	r2, r1
 8001b16:	621a      	str	r2, [r3, #32]
 8001b18:	4a13      	ldr	r2, [pc, #76]	; (8001b68 <HAL_TIM_OC_Start_IT+0x78>)
 8001b1a:	4293      	cmp	r3, r2
 8001b1c:	d013      	beq.n	8001b46 <HAL_TIM_OC_Start_IT+0x56>
 8001b1e:	4a13      	ldr	r2, [pc, #76]	; (8001b6c <HAL_TIM_OC_Start_IT+0x7c>)
 8001b20:	4293      	cmp	r3, r2
 8001b22:	d010      	beq.n	8001b46 <HAL_TIM_OC_Start_IT+0x56>
 8001b24:	4a12      	ldr	r2, [pc, #72]	; (8001b70 <HAL_TIM_OC_Start_IT+0x80>)
 8001b26:	4293      	cmp	r3, r2
 8001b28:	d00d      	beq.n	8001b46 <HAL_TIM_OC_Start_IT+0x56>
 8001b2a:	4a12      	ldr	r2, [pc, #72]	; (8001b74 <HAL_TIM_OC_Start_IT+0x84>)
 8001b2c:	4293      	cmp	r3, r2
 8001b2e:	d00a      	beq.n	8001b46 <HAL_TIM_OC_Start_IT+0x56>
 8001b30:	2101      	movs	r1, #1
 8001b32:	681a      	ldr	r2, [r3, #0]
 8001b34:	2000      	movs	r0, #0
 8001b36:	430a      	orrs	r2, r1
 8001b38:	601a      	str	r2, [r3, #0]
 8001b3a:	4770      	bx	lr
 8001b3c:	6803      	ldr	r3, [r0, #0]
 8001b3e:	68da      	ldr	r2, [r3, #12]
 8001b40:	430a      	orrs	r2, r1
 8001b42:	60da      	str	r2, [r3, #12]
 8001b44:	e7e0      	b.n	8001b08 <HAL_TIM_OC_Start_IT+0x18>
 8001b46:	2280      	movs	r2, #128	; 0x80
 8001b48:	6c59      	ldr	r1, [r3, #68]	; 0x44
 8001b4a:	0212      	lsls	r2, r2, #8
 8001b4c:	430a      	orrs	r2, r1
 8001b4e:	645a      	str	r2, [r3, #68]	; 0x44
 8001b50:	e7ee      	b.n	8001b30 <HAL_TIM_OC_Start_IT+0x40>
 8001b52:	2900      	cmp	r1, #0
 8001b54:	d105      	bne.n	8001b62 <HAL_TIM_OC_Start_IT+0x72>
 8001b56:	6803      	ldr	r3, [r0, #0]
 8001b58:	2002      	movs	r0, #2
 8001b5a:	68da      	ldr	r2, [r3, #12]
 8001b5c:	4302      	orrs	r2, r0
 8001b5e:	60da      	str	r2, [r3, #12]
 8001b60:	e7d2      	b.n	8001b08 <HAL_TIM_OC_Start_IT+0x18>
 8001b62:	6803      	ldr	r3, [r0, #0]
 8001b64:	e7d0      	b.n	8001b08 <HAL_TIM_OC_Start_IT+0x18>
 8001b66:	46c0      	nop			; (mov r8, r8)
 8001b68:	40012c00 	.word	0x40012c00
 8001b6c:	40014000 	.word	0x40014000
 8001b70:	40014400 	.word	0x40014400
 8001b74:	40014800 	.word	0x40014800

08001b78 <HAL_TIM_PWM_MspInit>:
 8001b78:	4770      	bx	lr
 8001b7a:	46c0      	nop			; (mov r8, r8)

08001b7c <HAL_TIM_PWM_Init>:
 8001b7c:	b510      	push	{r4, lr}
 8001b7e:	1e04      	subs	r4, r0, #0
 8001b80:	d064      	beq.n	8001c4c <HAL_TIM_PWM_Init+0xd0>
 8001b82:	233d      	movs	r3, #61	; 0x3d
 8001b84:	5cc3      	ldrb	r3, [r0, r3]
 8001b86:	b2db      	uxtb	r3, r3
 8001b88:	2b00      	cmp	r3, #0
 8001b8a:	d03d      	beq.n	8001c08 <HAL_TIM_PWM_Init+0x8c>
 8001b8c:	2202      	movs	r2, #2
 8001b8e:	233d      	movs	r3, #61	; 0x3d
 8001b90:	492f      	ldr	r1, [pc, #188]	; (8001c50 <HAL_TIM_PWM_Init+0xd4>)
 8001b92:	54e2      	strb	r2, [r4, r3]
 8001b94:	6823      	ldr	r3, [r4, #0]
 8001b96:	681a      	ldr	r2, [r3, #0]
 8001b98:	428b      	cmp	r3, r1
 8001b9a:	d021      	beq.n	8001be0 <HAL_TIM_PWM_Init+0x64>
 8001b9c:	2180      	movs	r1, #128	; 0x80
 8001b9e:	05c9      	lsls	r1, r1, #23
 8001ba0:	428b      	cmp	r3, r1
 8001ba2:	d036      	beq.n	8001c12 <HAL_TIM_PWM_Init+0x96>
 8001ba4:	492b      	ldr	r1, [pc, #172]	; (8001c54 <HAL_TIM_PWM_Init+0xd8>)
 8001ba6:	428b      	cmp	r3, r1
 8001ba8:	d033      	beq.n	8001c12 <HAL_TIM_PWM_Init+0x96>
 8001baa:	492b      	ldr	r1, [pc, #172]	; (8001c58 <HAL_TIM_PWM_Init+0xdc>)
 8001bac:	428b      	cmp	r3, r1
 8001bae:	d048      	beq.n	8001c42 <HAL_TIM_PWM_Init+0xc6>
 8001bb0:	492a      	ldr	r1, [pc, #168]	; (8001c5c <HAL_TIM_PWM_Init+0xe0>)
 8001bb2:	428b      	cmp	r3, r1
 8001bb4:	d018      	beq.n	8001be8 <HAL_TIM_PWM_Init+0x6c>
 8001bb6:	492a      	ldr	r1, [pc, #168]	; (8001c60 <HAL_TIM_PWM_Init+0xe4>)
 8001bb8:	428b      	cmp	r3, r1
 8001bba:	d015      	beq.n	8001be8 <HAL_TIM_PWM_Init+0x6c>
 8001bbc:	4929      	ldr	r1, [pc, #164]	; (8001c64 <HAL_TIM_PWM_Init+0xe8>)
 8001bbe:	428b      	cmp	r3, r1
 8001bc0:	d012      	beq.n	8001be8 <HAL_TIM_PWM_Init+0x6c>
 8001bc2:	2180      	movs	r1, #128	; 0x80
 8001bc4:	438a      	bics	r2, r1
 8001bc6:	69a1      	ldr	r1, [r4, #24]
 8001bc8:	430a      	orrs	r2, r1
 8001bca:	601a      	str	r2, [r3, #0]
 8001bcc:	68e2      	ldr	r2, [r4, #12]
 8001bce:	62da      	str	r2, [r3, #44]	; 0x2c
 8001bd0:	6862      	ldr	r2, [r4, #4]
 8001bd2:	629a      	str	r2, [r3, #40]	; 0x28
 8001bd4:	2201      	movs	r2, #1
 8001bd6:	615a      	str	r2, [r3, #20]
 8001bd8:	233d      	movs	r3, #61	; 0x3d
 8001bda:	2000      	movs	r0, #0
 8001bdc:	54e2      	strb	r2, [r4, r3]
 8001bde:	bd10      	pop	{r4, pc}
 8001be0:	2170      	movs	r1, #112	; 0x70
 8001be2:	438a      	bics	r2, r1
 8001be4:	68a1      	ldr	r1, [r4, #8]
 8001be6:	430a      	orrs	r2, r1
 8001be8:	491f      	ldr	r1, [pc, #124]	; (8001c68 <HAL_TIM_PWM_Init+0xec>)
 8001bea:	400a      	ands	r2, r1
 8001bec:	6921      	ldr	r1, [r4, #16]
 8001bee:	430a      	orrs	r2, r1
 8001bf0:	2180      	movs	r1, #128	; 0x80
 8001bf2:	438a      	bics	r2, r1
 8001bf4:	69a1      	ldr	r1, [r4, #24]
 8001bf6:	430a      	orrs	r2, r1
 8001bf8:	601a      	str	r2, [r3, #0]
 8001bfa:	68e2      	ldr	r2, [r4, #12]
 8001bfc:	62da      	str	r2, [r3, #44]	; 0x2c
 8001bfe:	6862      	ldr	r2, [r4, #4]
 8001c00:	629a      	str	r2, [r3, #40]	; 0x28
 8001c02:	6962      	ldr	r2, [r4, #20]
 8001c04:	631a      	str	r2, [r3, #48]	; 0x30
 8001c06:	e7e5      	b.n	8001bd4 <HAL_TIM_PWM_Init+0x58>
 8001c08:	223c      	movs	r2, #60	; 0x3c
 8001c0a:	5483      	strb	r3, [r0, r2]
 8001c0c:	f7ff ffb4 	bl	8001b78 <HAL_TIM_PWM_MspInit>
 8001c10:	e7bc      	b.n	8001b8c <HAL_TIM_PWM_Init+0x10>
 8001c12:	2170      	movs	r1, #112	; 0x70
 8001c14:	438a      	bics	r2, r1
 8001c16:	68a1      	ldr	r1, [r4, #8]
 8001c18:	430a      	orrs	r2, r1
 8001c1a:	4913      	ldr	r1, [pc, #76]	; (8001c68 <HAL_TIM_PWM_Init+0xec>)
 8001c1c:	400a      	ands	r2, r1
 8001c1e:	6921      	ldr	r1, [r4, #16]
 8001c20:	430a      	orrs	r2, r1
 8001c22:	2180      	movs	r1, #128	; 0x80
 8001c24:	438a      	bics	r2, r1
 8001c26:	69a1      	ldr	r1, [r4, #24]
 8001c28:	430a      	orrs	r2, r1
 8001c2a:	601a      	str	r2, [r3, #0]
 8001c2c:	68e2      	ldr	r2, [r4, #12]
 8001c2e:	62da      	str	r2, [r3, #44]	; 0x2c
 8001c30:	6862      	ldr	r2, [r4, #4]
 8001c32:	629a      	str	r2, [r3, #40]	; 0x28
 8001c34:	4a0a      	ldr	r2, [pc, #40]	; (8001c60 <HAL_TIM_PWM_Init+0xe4>)
 8001c36:	4293      	cmp	r3, r2
 8001c38:	d0e3      	beq.n	8001c02 <HAL_TIM_PWM_Init+0x86>
 8001c3a:	4a0a      	ldr	r2, [pc, #40]	; (8001c64 <HAL_TIM_PWM_Init+0xe8>)
 8001c3c:	4293      	cmp	r3, r2
 8001c3e:	d0e0      	beq.n	8001c02 <HAL_TIM_PWM_Init+0x86>
 8001c40:	e7c8      	b.n	8001bd4 <HAL_TIM_PWM_Init+0x58>
 8001c42:	4909      	ldr	r1, [pc, #36]	; (8001c68 <HAL_TIM_PWM_Init+0xec>)
 8001c44:	400a      	ands	r2, r1
 8001c46:	6921      	ldr	r1, [r4, #16]
 8001c48:	430a      	orrs	r2, r1
 8001c4a:	e7ba      	b.n	8001bc2 <HAL_TIM_PWM_Init+0x46>
 8001c4c:	2001      	movs	r0, #1
 8001c4e:	e7c6      	b.n	8001bde <HAL_TIM_PWM_Init+0x62>
 8001c50:	40012c00 	.word	0x40012c00
 8001c54:	40000400 	.word	0x40000400
 8001c58:	40002000 	.word	0x40002000
 8001c5c:	40014000 	.word	0x40014000
 8001c60:	40014400 	.word	0x40014400
 8001c64:	40014800 	.word	0x40014800
 8001c68:	fffffcff 	.word	0xfffffcff

08001c6c <HAL_TIM_PWM_Start>:
 8001c6c:	2201      	movs	r2, #1
 8001c6e:	408a      	lsls	r2, r1
 8001c70:	6803      	ldr	r3, [r0, #0]
 8001c72:	6a19      	ldr	r1, [r3, #32]
 8001c74:	4391      	bics	r1, r2
 8001c76:	6219      	str	r1, [r3, #32]
 8001c78:	6a19      	ldr	r1, [r3, #32]
 8001c7a:	430a      	orrs	r2, r1
 8001c7c:	621a      	str	r2, [r3, #32]
 8001c7e:	4a0c      	ldr	r2, [pc, #48]	; (8001cb0 <HAL_TIM_PWM_Start+0x44>)
 8001c80:	4293      	cmp	r3, r2
 8001c82:	d00e      	beq.n	8001ca2 <HAL_TIM_PWM_Start+0x36>
 8001c84:	4a0b      	ldr	r2, [pc, #44]	; (8001cb4 <HAL_TIM_PWM_Start+0x48>)
 8001c86:	4293      	cmp	r3, r2
 8001c88:	d00b      	beq.n	8001ca2 <HAL_TIM_PWM_Start+0x36>
 8001c8a:	4a0b      	ldr	r2, [pc, #44]	; (8001cb8 <HAL_TIM_PWM_Start+0x4c>)
 8001c8c:	4293      	cmp	r3, r2
 8001c8e:	d008      	beq.n	8001ca2 <HAL_TIM_PWM_Start+0x36>
 8001c90:	4a0a      	ldr	r2, [pc, #40]	; (8001cbc <HAL_TIM_PWM_Start+0x50>)
 8001c92:	4293      	cmp	r3, r2
 8001c94:	d005      	beq.n	8001ca2 <HAL_TIM_PWM_Start+0x36>
 8001c96:	2101      	movs	r1, #1
 8001c98:	681a      	ldr	r2, [r3, #0]
 8001c9a:	2000      	movs	r0, #0
 8001c9c:	430a      	orrs	r2, r1
 8001c9e:	601a      	str	r2, [r3, #0]
 8001ca0:	4770      	bx	lr
 8001ca2:	2280      	movs	r2, #128	; 0x80
 8001ca4:	6c59      	ldr	r1, [r3, #68]	; 0x44
 8001ca6:	0212      	lsls	r2, r2, #8
 8001ca8:	430a      	orrs	r2, r1
 8001caa:	645a      	str	r2, [r3, #68]	; 0x44
 8001cac:	e7f3      	b.n	8001c96 <HAL_TIM_PWM_Start+0x2a>
 8001cae:	46c0      	nop			; (mov r8, r8)
 8001cb0:	40012c00 	.word	0x40012c00
 8001cb4:	40014000 	.word	0x40014000
 8001cb8:	40014400 	.word	0x40014400
 8001cbc:	40014800 	.word	0x40014800

08001cc0 <HAL_TIM_IC_MspInit>:
 8001cc0:	4770      	bx	lr
 8001cc2:	46c0      	nop			; (mov r8, r8)

08001cc4 <HAL_TIM_IC_Init>:
 8001cc4:	b510      	push	{r4, lr}
 8001cc6:	1e04      	subs	r4, r0, #0
 8001cc8:	d064      	beq.n	8001d94 <HAL_TIM_IC_Init+0xd0>
 8001cca:	233d      	movs	r3, #61	; 0x3d
 8001ccc:	5cc3      	ldrb	r3, [r0, r3]
 8001cce:	b2db      	uxtb	r3, r3
 8001cd0:	2b00      	cmp	r3, #0
 8001cd2:	d03d      	beq.n	8001d50 <HAL_TIM_IC_Init+0x8c>
 8001cd4:	2202      	movs	r2, #2
 8001cd6:	233d      	movs	r3, #61	; 0x3d
 8001cd8:	492f      	ldr	r1, [pc, #188]	; (8001d98 <HAL_TIM_IC_Init+0xd4>)
 8001cda:	54e2      	strb	r2, [r4, r3]
 8001cdc:	6823      	ldr	r3, [r4, #0]
 8001cde:	681a      	ldr	r2, [r3, #0]
 8001ce0:	428b      	cmp	r3, r1
 8001ce2:	d021      	beq.n	8001d28 <HAL_TIM_IC_Init+0x64>
 8001ce4:	2180      	movs	r1, #128	; 0x80
 8001ce6:	05c9      	lsls	r1, r1, #23
 8001ce8:	428b      	cmp	r3, r1
 8001cea:	d036      	beq.n	8001d5a <HAL_TIM_IC_Init+0x96>
 8001cec:	492b      	ldr	r1, [pc, #172]	; (8001d9c <HAL_TIM_IC_Init+0xd8>)
 8001cee:	428b      	cmp	r3, r1
 8001cf0:	d033      	beq.n	8001d5a <HAL_TIM_IC_Init+0x96>
 8001cf2:	492b      	ldr	r1, [pc, #172]	; (8001da0 <HAL_TIM_IC_Init+0xdc>)
 8001cf4:	428b      	cmp	r3, r1
 8001cf6:	d048      	beq.n	8001d8a <HAL_TIM_IC_Init+0xc6>
 8001cf8:	492a      	ldr	r1, [pc, #168]	; (8001da4 <HAL_TIM_IC_Init+0xe0>)
 8001cfa:	428b      	cmp	r3, r1
 8001cfc:	d018      	beq.n	8001d30 <HAL_TIM_IC_Init+0x6c>
 8001cfe:	492a      	ldr	r1, [pc, #168]	; (8001da8 <HAL_TIM_IC_Init+0xe4>)
 8001d00:	428b      	cmp	r3, r1
 8001d02:	d015      	beq.n	8001d30 <HAL_TIM_IC_Init+0x6c>
 8001d04:	4929      	ldr	r1, [pc, #164]	; (8001dac <HAL_TIM_IC_Init+0xe8>)
 8001d06:	428b      	cmp	r3, r1
 8001d08:	d012      	beq.n	8001d30 <HAL_TIM_IC_Init+0x6c>
 8001d0a:	2180      	movs	r1, #128	; 0x80
 8001d0c:	438a      	bics	r2, r1
 8001d0e:	69a1      	ldr	r1, [r4, #24]
 8001d10:	430a      	orrs	r2, r1
 8001d12:	601a      	str	r2, [r3, #0]
 8001d14:	68e2      	ldr	r2, [r4, #12]
 8001d16:	62da      	str	r2, [r3, #44]	; 0x2c
 8001d18:	6862      	ldr	r2, [r4, #4]
 8001d1a:	629a      	str	r2, [r3, #40]	; 0x28
 8001d1c:	2201      	movs	r2, #1
 8001d1e:	615a      	str	r2, [r3, #20]
 8001d20:	233d      	movs	r3, #61	; 0x3d
 8001d22:	2000      	movs	r0, #0
 8001d24:	54e2      	strb	r2, [r4, r3]
 8001d26:	bd10      	pop	{r4, pc}
 8001d28:	2170      	movs	r1, #112	; 0x70
 8001d2a:	438a      	bics	r2, r1
 8001d2c:	68a1      	ldr	r1, [r4, #8]
 8001d2e:	430a      	orrs	r2, r1
 8001d30:	491f      	ldr	r1, [pc, #124]	; (8001db0 <HAL_TIM_IC_Init+0xec>)
 8001d32:	400a      	ands	r2, r1
 8001d34:	6921      	ldr	r1, [r4, #16]
 8001d36:	430a      	orrs	r2, r1
 8001d38:	2180      	movs	r1, #128	; 0x80
 8001d3a:	438a      	bics	r2, r1
 8001d3c:	69a1      	ldr	r1, [r4, #24]
 8001d3e:	430a      	orrs	r2, r1
 8001d40:	601a      	str	r2, [r3, #0]
 8001d42:	68e2      	ldr	r2, [r4, #12]
 8001d44:	62da      	str	r2, [r3, #44]	; 0x2c
 8001d46:	6862      	ldr	r2, [r4, #4]
 8001d48:	629a      	str	r2, [r3, #40]	; 0x28
 8001d4a:	6962      	ldr	r2, [r4, #20]
 8001d4c:	631a      	str	r2, [r3, #48]	; 0x30
 8001d4e:	e7e5      	b.n	8001d1c <HAL_TIM_IC_Init+0x58>
 8001d50:	223c      	movs	r2, #60	; 0x3c
 8001d52:	5483      	strb	r3, [r0, r2]
 8001d54:	f7ff ffb4 	bl	8001cc0 <HAL_TIM_IC_MspInit>
 8001d58:	e7bc      	b.n	8001cd4 <HAL_TIM_IC_Init+0x10>
 8001d5a:	2170      	movs	r1, #112	; 0x70
 8001d5c:	438a      	bics	r2, r1
 8001d5e:	68a1      	ldr	r1, [r4, #8]
 8001d60:	430a      	orrs	r2, r1
 8001d62:	4913      	ldr	r1, [pc, #76]	; (8001db0 <HAL_TIM_IC_Init+0xec>)
 8001d64:	400a      	ands	r2, r1
 8001d66:	6921      	ldr	r1, [r4, #16]
 8001d68:	430a      	orrs	r2, r1
 8001d6a:	2180      	movs	r1, #128	; 0x80
 8001d6c:	438a      	bics	r2, r1
 8001d6e:	69a1      	ldr	r1, [r4, #24]
 8001d70:	430a      	orrs	r2, r1
 8001d72:	601a      	str	r2, [r3, #0]
 8001d74:	68e2      	ldr	r2, [r4, #12]
 8001d76:	62da      	str	r2, [r3, #44]	; 0x2c
 8001d78:	6862      	ldr	r2, [r4, #4]
 8001d7a:	629a      	str	r2, [r3, #40]	; 0x28
 8001d7c:	4a0a      	ldr	r2, [pc, #40]	; (8001da8 <HAL_TIM_IC_Init+0xe4>)
 8001d7e:	4293      	cmp	r3, r2
 8001d80:	d0e3      	beq.n	8001d4a <HAL_TIM_IC_Init+0x86>
 8001d82:	4a0a      	ldr	r2, [pc, #40]	; (8001dac <HAL_TIM_IC_Init+0xe8>)
 8001d84:	4293      	cmp	r3, r2
 8001d86:	d0e0      	beq.n	8001d4a <HAL_TIM_IC_Init+0x86>
 8001d88:	e7c8      	b.n	8001d1c <HAL_TIM_IC_Init+0x58>
 8001d8a:	4909      	ldr	r1, [pc, #36]	; (8001db0 <HAL_TIM_IC_Init+0xec>)
 8001d8c:	400a      	ands	r2, r1
 8001d8e:	6921      	ldr	r1, [r4, #16]
 8001d90:	430a      	orrs	r2, r1
 8001d92:	e7ba      	b.n	8001d0a <HAL_TIM_IC_Init+0x46>
 8001d94:	2001      	movs	r0, #1
 8001d96:	e7c6      	b.n	8001d26 <HAL_TIM_IC_Init+0x62>
 8001d98:	40012c00 	.word	0x40012c00
 8001d9c:	40000400 	.word	0x40000400
 8001da0:	40002000 	.word	0x40002000
 8001da4:	40014000 	.word	0x40014000
 8001da8:	40014400 	.word	0x40014400
 8001dac:	40014800 	.word	0x40014800
 8001db0:	fffffcff 	.word	0xfffffcff

08001db4 <HAL_TIM_IC_Start_DMA>:
 8001db4:	b570      	push	{r4, r5, r6, lr}
 8001db6:	000d      	movs	r5, r1
 8001db8:	213d      	movs	r1, #61	; 0x3d
 8001dba:	5c46      	ldrb	r6, [r0, r1]
 8001dbc:	0004      	movs	r4, r0
 8001dbe:	2002      	movs	r0, #2
 8001dc0:	2e02      	cmp	r6, #2
 8001dc2:	d026      	beq.n	8001e12 <HAL_TIM_IC_Start_DMA+0x5e>
 8001dc4:	5c61      	ldrb	r1, [r4, r1]
 8001dc6:	2901      	cmp	r1, #1
 8001dc8:	d024      	beq.n	8001e14 <HAL_TIM_IC_Start_DMA+0x60>
 8001dca:	2d04      	cmp	r5, #4
 8001dcc:	d03a      	beq.n	8001e44 <HAL_TIM_IC_Start_DMA+0x90>
 8001dce:	2d04      	cmp	r5, #4
 8001dd0:	d948      	bls.n	8001e64 <HAL_TIM_IC_Start_DMA+0xb0>
 8001dd2:	2d08      	cmp	r5, #8
 8001dd4:	d026      	beq.n	8001e24 <HAL_TIM_IC_Start_DMA+0x70>
 8001dd6:	2d0c      	cmp	r5, #12
 8001dd8:	d156      	bne.n	8001e88 <HAL_TIM_IC_Start_DMA+0xd4>
 8001dda:	6b20      	ldr	r0, [r4, #48]	; 0x30
 8001ddc:	492d      	ldr	r1, [pc, #180]	; (8001e94 <HAL_TIM_IC_Start_DMA+0xe0>)
 8001dde:	6281      	str	r1, [r0, #40]	; 0x28
 8001de0:	492d      	ldr	r1, [pc, #180]	; (8001e98 <HAL_TIM_IC_Start_DMA+0xe4>)
 8001de2:	6301      	str	r1, [r0, #48]	; 0x30
 8001de4:	6821      	ldr	r1, [r4, #0]
 8001de6:	3140      	adds	r1, #64	; 0x40
 8001de8:	f7fe ff7c 	bl	8000ce4 <HAL_DMA_Start_IT>
 8001dec:	2280      	movs	r2, #128	; 0x80
 8001dee:	6823      	ldr	r3, [r4, #0]
 8001df0:	0152      	lsls	r2, r2, #5
 8001df2:	68d9      	ldr	r1, [r3, #12]
 8001df4:	430a      	orrs	r2, r1
 8001df6:	60da      	str	r2, [r3, #12]
 8001df8:	2001      	movs	r0, #1
 8001dfa:	0002      	movs	r2, r0
 8001dfc:	40aa      	lsls	r2, r5
 8001dfe:	6a19      	ldr	r1, [r3, #32]
 8001e00:	4391      	bics	r1, r2
 8001e02:	6219      	str	r1, [r3, #32]
 8001e04:	6a19      	ldr	r1, [r3, #32]
 8001e06:	430a      	orrs	r2, r1
 8001e08:	621a      	str	r2, [r3, #32]
 8001e0a:	681a      	ldr	r2, [r3, #0]
 8001e0c:	4302      	orrs	r2, r0
 8001e0e:	2000      	movs	r0, #0
 8001e10:	601a      	str	r2, [r3, #0]
 8001e12:	bd70      	pop	{r4, r5, r6, pc}
 8001e14:	2a00      	cmp	r2, #0
 8001e16:	d039      	beq.n	8001e8c <HAL_TIM_IC_Start_DMA+0xd8>
 8001e18:	2002      	movs	r0, #2
 8001e1a:	213d      	movs	r1, #61	; 0x3d
 8001e1c:	5460      	strb	r0, [r4, r1]
 8001e1e:	2d04      	cmp	r5, #4
 8001e20:	d1d5      	bne.n	8001dce <HAL_TIM_IC_Start_DMA+0x1a>
 8001e22:	e00f      	b.n	8001e44 <HAL_TIM_IC_Start_DMA+0x90>
 8001e24:	6ae0      	ldr	r0, [r4, #44]	; 0x2c
 8001e26:	491b      	ldr	r1, [pc, #108]	; (8001e94 <HAL_TIM_IC_Start_DMA+0xe0>)
 8001e28:	6281      	str	r1, [r0, #40]	; 0x28
 8001e2a:	491b      	ldr	r1, [pc, #108]	; (8001e98 <HAL_TIM_IC_Start_DMA+0xe4>)
 8001e2c:	6301      	str	r1, [r0, #48]	; 0x30
 8001e2e:	6821      	ldr	r1, [r4, #0]
 8001e30:	313c      	adds	r1, #60	; 0x3c
 8001e32:	f7fe ff57 	bl	8000ce4 <HAL_DMA_Start_IT>
 8001e36:	2280      	movs	r2, #128	; 0x80
 8001e38:	6823      	ldr	r3, [r4, #0]
 8001e3a:	0112      	lsls	r2, r2, #4
 8001e3c:	68d9      	ldr	r1, [r3, #12]
 8001e3e:	430a      	orrs	r2, r1
 8001e40:	60da      	str	r2, [r3, #12]
 8001e42:	e7d9      	b.n	8001df8 <HAL_TIM_IC_Start_DMA+0x44>
 8001e44:	6aa0      	ldr	r0, [r4, #40]	; 0x28
 8001e46:	4913      	ldr	r1, [pc, #76]	; (8001e94 <HAL_TIM_IC_Start_DMA+0xe0>)
 8001e48:	6281      	str	r1, [r0, #40]	; 0x28
 8001e4a:	4913      	ldr	r1, [pc, #76]	; (8001e98 <HAL_TIM_IC_Start_DMA+0xe4>)
 8001e4c:	6301      	str	r1, [r0, #48]	; 0x30
 8001e4e:	6821      	ldr	r1, [r4, #0]
 8001e50:	3138      	adds	r1, #56	; 0x38
 8001e52:	f7fe ff47 	bl	8000ce4 <HAL_DMA_Start_IT>
 8001e56:	2280      	movs	r2, #128	; 0x80
 8001e58:	6823      	ldr	r3, [r4, #0]
 8001e5a:	00d2      	lsls	r2, r2, #3
 8001e5c:	68d9      	ldr	r1, [r3, #12]
 8001e5e:	430a      	orrs	r2, r1
 8001e60:	60da      	str	r2, [r3, #12]
 8001e62:	e7c9      	b.n	8001df8 <HAL_TIM_IC_Start_DMA+0x44>
 8001e64:	2d00      	cmp	r5, #0
 8001e66:	d10f      	bne.n	8001e88 <HAL_TIM_IC_Start_DMA+0xd4>
 8001e68:	6a60      	ldr	r0, [r4, #36]	; 0x24
 8001e6a:	490a      	ldr	r1, [pc, #40]	; (8001e94 <HAL_TIM_IC_Start_DMA+0xe0>)
 8001e6c:	6281      	str	r1, [r0, #40]	; 0x28
 8001e6e:	490a      	ldr	r1, [pc, #40]	; (8001e98 <HAL_TIM_IC_Start_DMA+0xe4>)
 8001e70:	6301      	str	r1, [r0, #48]	; 0x30
 8001e72:	6821      	ldr	r1, [r4, #0]
 8001e74:	3134      	adds	r1, #52	; 0x34
 8001e76:	f7fe ff35 	bl	8000ce4 <HAL_DMA_Start_IT>
 8001e7a:	2280      	movs	r2, #128	; 0x80
 8001e7c:	6823      	ldr	r3, [r4, #0]
 8001e7e:	0092      	lsls	r2, r2, #2
 8001e80:	68d9      	ldr	r1, [r3, #12]
 8001e82:	430a      	orrs	r2, r1
 8001e84:	60da      	str	r2, [r3, #12]
 8001e86:	e7b7      	b.n	8001df8 <HAL_TIM_IC_Start_DMA+0x44>
 8001e88:	6823      	ldr	r3, [r4, #0]
 8001e8a:	e7b5      	b.n	8001df8 <HAL_TIM_IC_Start_DMA+0x44>
 8001e8c:	3801      	subs	r0, #1
 8001e8e:	2b00      	cmp	r3, #0
 8001e90:	d0c2      	beq.n	8001e18 <HAL_TIM_IC_Start_DMA+0x64>
 8001e92:	e7be      	b.n	8001e12 <HAL_TIM_IC_Start_DMA+0x5e>
 8001e94:	080025cd 	.word	0x080025cd
 8001e98:	08002771 	.word	0x08002771

08001e9c <HAL_TIM_IC_Stop_DMA>:
 8001e9c:	b530      	push	{r4, r5, lr}
 8001e9e:	2904      	cmp	r1, #4
 8001ea0:	d031      	beq.n	8001f06 <HAL_TIM_IC_Stop_DMA+0x6a>
 8001ea2:	d926      	bls.n	8001ef2 <HAL_TIM_IC_Stop_DMA+0x56>
 8001ea4:	2908      	cmp	r1, #8
 8001ea6:	d01e      	beq.n	8001ee6 <HAL_TIM_IC_Stop_DMA+0x4a>
 8001ea8:	290c      	cmp	r1, #12
 8001eaa:	d12a      	bne.n	8001f02 <HAL_TIM_IC_Stop_DMA+0x66>
 8001eac:	6803      	ldr	r3, [r0, #0]
 8001eae:	4c19      	ldr	r4, [pc, #100]	; (8001f14 <HAL_TIM_IC_Stop_DMA+0x78>)
 8001eb0:	68da      	ldr	r2, [r3, #12]
 8001eb2:	4022      	ands	r2, r4
 8001eb4:	60da      	str	r2, [r3, #12]
 8001eb6:	2401      	movs	r4, #1
 8001eb8:	0025      	movs	r5, r4
 8001eba:	408d      	lsls	r5, r1
 8001ebc:	6a1a      	ldr	r2, [r3, #32]
 8001ebe:	43aa      	bics	r2, r5
 8001ec0:	621a      	str	r2, [r3, #32]
 8001ec2:	6a1a      	ldr	r2, [r3, #32]
 8001ec4:	621a      	str	r2, [r3, #32]
 8001ec6:	6a19      	ldr	r1, [r3, #32]
 8001ec8:	4a13      	ldr	r2, [pc, #76]	; (8001f18 <HAL_TIM_IC_Stop_DMA+0x7c>)
 8001eca:	4211      	tst	r1, r2
 8001ecc:	d106      	bne.n	8001edc <HAL_TIM_IC_Stop_DMA+0x40>
 8001ece:	6a19      	ldr	r1, [r3, #32]
 8001ed0:	4a12      	ldr	r2, [pc, #72]	; (8001f1c <HAL_TIM_IC_Stop_DMA+0x80>)
 8001ed2:	4211      	tst	r1, r2
 8001ed4:	d102      	bne.n	8001edc <HAL_TIM_IC_Stop_DMA+0x40>
 8001ed6:	681a      	ldr	r2, [r3, #0]
 8001ed8:	43a2      	bics	r2, r4
 8001eda:	601a      	str	r2, [r3, #0]
 8001edc:	2201      	movs	r2, #1
 8001ede:	233d      	movs	r3, #61	; 0x3d
 8001ee0:	54c2      	strb	r2, [r0, r3]
 8001ee2:	2000      	movs	r0, #0
 8001ee4:	bd30      	pop	{r4, r5, pc}
 8001ee6:	6803      	ldr	r3, [r0, #0]
 8001ee8:	4c0d      	ldr	r4, [pc, #52]	; (8001f20 <HAL_TIM_IC_Stop_DMA+0x84>)
 8001eea:	68da      	ldr	r2, [r3, #12]
 8001eec:	4022      	ands	r2, r4
 8001eee:	60da      	str	r2, [r3, #12]
 8001ef0:	e7e1      	b.n	8001eb6 <HAL_TIM_IC_Stop_DMA+0x1a>
 8001ef2:	2900      	cmp	r1, #0
 8001ef4:	d105      	bne.n	8001f02 <HAL_TIM_IC_Stop_DMA+0x66>
 8001ef6:	6803      	ldr	r3, [r0, #0]
 8001ef8:	4c0a      	ldr	r4, [pc, #40]	; (8001f24 <HAL_TIM_IC_Stop_DMA+0x88>)
 8001efa:	68da      	ldr	r2, [r3, #12]
 8001efc:	4022      	ands	r2, r4
 8001efe:	60da      	str	r2, [r3, #12]
 8001f00:	e7d9      	b.n	8001eb6 <HAL_TIM_IC_Stop_DMA+0x1a>
 8001f02:	6803      	ldr	r3, [r0, #0]
 8001f04:	e7d7      	b.n	8001eb6 <HAL_TIM_IC_Stop_DMA+0x1a>
 8001f06:	6803      	ldr	r3, [r0, #0]
 8001f08:	4c07      	ldr	r4, [pc, #28]	; (8001f28 <HAL_TIM_IC_Stop_DMA+0x8c>)
 8001f0a:	68da      	ldr	r2, [r3, #12]
 8001f0c:	4022      	ands	r2, r4
 8001f0e:	60da      	str	r2, [r3, #12]
 8001f10:	e7d1      	b.n	8001eb6 <HAL_TIM_IC_Stop_DMA+0x1a>
 8001f12:	46c0      	nop			; (mov r8, r8)
 8001f14:	ffffefff 	.word	0xffffefff
 8001f18:	00001111 	.word	0x00001111
 8001f1c:	00000444 	.word	0x00000444
 8001f20:	fffff7ff 	.word	0xfffff7ff
 8001f24:	fffffdff 	.word	0xfffffdff
 8001f28:	fffffbff 	.word	0xfffffbff

08001f2c <HAL_TIM_IC_ConfigChannel>:
 8001f2c:	b5f0      	push	{r4, r5, r6, r7, lr}
 8001f2e:	46ce      	mov	lr, r9
 8001f30:	4647      	mov	r7, r8
 8001f32:	243c      	movs	r4, #60	; 0x3c
 8001f34:	b580      	push	{r7, lr}
 8001f36:	5d05      	ldrb	r5, [r0, r4]
 8001f38:	0003      	movs	r3, r0
 8001f3a:	2002      	movs	r0, #2
 8001f3c:	2d01      	cmp	r5, #1
 8001f3e:	d038      	beq.n	8001fb2 <HAL_TIM_IC_ConfigChannel+0x86>
 8001f40:	2501      	movs	r5, #1
 8001f42:	551d      	strb	r5, [r3, r4]
 8001f44:	3401      	adds	r4, #1
 8001f46:	5518      	strb	r0, [r3, r4]
 8001f48:	2a00      	cmp	r2, #0
 8001f4a:	d036      	beq.n	8001fba <HAL_TIM_IC_ConfigChannel+0x8e>
 8001f4c:	2a04      	cmp	r2, #4
 8001f4e:	d063      	beq.n	8002018 <HAL_TIM_IC_ConfigChannel+0xec>
 8001f50:	2a08      	cmp	r2, #8
 8001f52:	d100      	bne.n	8001f56 <HAL_TIM_IC_ConfigChannel+0x2a>
 8001f54:	e086      	b.n	8002064 <HAL_TIM_IC_ConfigChannel+0x138>
 8001f56:	6808      	ldr	r0, [r1, #0]
 8001f58:	681a      	ldr	r2, [r3, #0]
 8001f5a:	4680      	mov	r8, r0
 8001f5c:	6a16      	ldr	r6, [r2, #32]
 8001f5e:	4f58      	ldr	r7, [pc, #352]	; (80020c0 <HAL_TIM_IC_ConfigChannel+0x194>)
 8001f60:	684d      	ldr	r5, [r1, #4]
 8001f62:	403e      	ands	r6, r7
 8001f64:	68cc      	ldr	r4, [r1, #12]
 8001f66:	6216      	str	r6, [r2, #32]
 8001f68:	69d7      	ldr	r7, [r2, #28]
 8001f6a:	4856      	ldr	r0, [pc, #344]	; (80020c4 <HAL_TIM_IC_ConfigChannel+0x198>)
 8001f6c:	022d      	lsls	r5, r5, #8
 8001f6e:	4007      	ands	r7, r0
 8001f70:	433d      	orrs	r5, r7
 8001f72:	4f55      	ldr	r7, [pc, #340]	; (80020c8 <HAL_TIM_IC_ConfigChannel+0x19c>)
 8001f74:	0724      	lsls	r4, r4, #28
 8001f76:	403d      	ands	r5, r7
 8001f78:	0c24      	lsrs	r4, r4, #16
 8001f7a:	6a16      	ldr	r6, [r2, #32]
 8001f7c:	432c      	orrs	r4, r5
 8001f7e:	4d53      	ldr	r5, [pc, #332]	; (80020cc <HAL_TIM_IC_ConfigChannel+0x1a0>)
 8001f80:	4640      	mov	r0, r8
 8001f82:	4035      	ands	r5, r6
 8001f84:	26a0      	movs	r6, #160	; 0xa0
 8001f86:	0300      	lsls	r0, r0, #12
 8001f88:	0236      	lsls	r6, r6, #8
 8001f8a:	4030      	ands	r0, r6
 8001f8c:	4328      	orrs	r0, r5
 8001f8e:	61d4      	str	r4, [r2, #28]
 8001f90:	6210      	str	r0, [r2, #32]
 8001f92:	69d0      	ldr	r0, [r2, #28]
 8001f94:	4c4e      	ldr	r4, [pc, #312]	; (80020d0 <HAL_TIM_IC_ConfigChannel+0x1a4>)
 8001f96:	6889      	ldr	r1, [r1, #8]
 8001f98:	4020      	ands	r0, r4
 8001f9a:	61d0      	str	r0, [r2, #28]
 8001f9c:	69d0      	ldr	r0, [r2, #28]
 8001f9e:	0209      	lsls	r1, r1, #8
 8001fa0:	4301      	orrs	r1, r0
 8001fa2:	61d1      	str	r1, [r2, #28]
 8001fa4:	2101      	movs	r1, #1
 8001fa6:	223d      	movs	r2, #61	; 0x3d
 8001fa8:	5499      	strb	r1, [r3, r2]
 8001faa:	2100      	movs	r1, #0
 8001fac:	2000      	movs	r0, #0
 8001fae:	3a01      	subs	r2, #1
 8001fb0:	5499      	strb	r1, [r3, r2]
 8001fb2:	bc0c      	pop	{r2, r3}
 8001fb4:	4690      	mov	r8, r2
 8001fb6:	4699      	mov	r9, r3
 8001fb8:	bdf0      	pop	{r4, r5, r6, r7, pc}
 8001fba:	6848      	ldr	r0, [r1, #4]
 8001fbc:	681a      	ldr	r2, [r3, #0]
 8001fbe:	4680      	mov	r8, r0
 8001fc0:	68c8      	ldr	r0, [r1, #12]
 8001fc2:	4c44      	ldr	r4, [pc, #272]	; (80020d4 <HAL_TIM_IC_ConfigChannel+0x1a8>)
 8001fc4:	4681      	mov	r9, r0
 8001fc6:	6a10      	ldr	r0, [r2, #32]
 8001fc8:	680f      	ldr	r7, [r1, #0]
 8001fca:	43a8      	bics	r0, r5
 8001fcc:	6210      	str	r0, [r2, #32]
 8001fce:	6990      	ldr	r0, [r2, #24]
 8001fd0:	6a16      	ldr	r6, [r2, #32]
 8001fd2:	42a2      	cmp	r2, r4
 8001fd4:	d06d      	beq.n	80020b2 <HAL_TIM_IC_ConfigChannel+0x186>
 8001fd6:	2480      	movs	r4, #128	; 0x80
 8001fd8:	05e4      	lsls	r4, r4, #23
 8001fda:	42a2      	cmp	r2, r4
 8001fdc:	d069      	beq.n	80020b2 <HAL_TIM_IC_ConfigChannel+0x186>
 8001fde:	4c3e      	ldr	r4, [pc, #248]	; (80020d8 <HAL_TIM_IC_ConfigChannel+0x1ac>)
 8001fe0:	42a2      	cmp	r2, r4
 8001fe2:	d066      	beq.n	80020b2 <HAL_TIM_IC_ConfigChannel+0x186>
 8001fe4:	4c3d      	ldr	r4, [pc, #244]	; (80020dc <HAL_TIM_IC_ConfigChannel+0x1b0>)
 8001fe6:	42a2      	cmp	r2, r4
 8001fe8:	d063      	beq.n	80020b2 <HAL_TIM_IC_ConfigChannel+0x186>
 8001fea:	4305      	orrs	r5, r0
 8001fec:	20f0      	movs	r0, #240	; 0xf0
 8001fee:	4385      	bics	r5, r0
 8001ff0:	4648      	mov	r0, r9
 8001ff2:	24ff      	movs	r4, #255	; 0xff
 8001ff4:	0100      	lsls	r0, r0, #4
 8001ff6:	4004      	ands	r4, r0
 8001ff8:	200a      	movs	r0, #10
 8001ffa:	4325      	orrs	r5, r4
 8001ffc:	240c      	movs	r4, #12
 8001ffe:	4386      	bics	r6, r0
 8002000:	4038      	ands	r0, r7
 8002002:	4330      	orrs	r0, r6
 8002004:	6195      	str	r5, [r2, #24]
 8002006:	6210      	str	r0, [r2, #32]
 8002008:	6990      	ldr	r0, [r2, #24]
 800200a:	6889      	ldr	r1, [r1, #8]
 800200c:	43a0      	bics	r0, r4
 800200e:	6190      	str	r0, [r2, #24]
 8002010:	6990      	ldr	r0, [r2, #24]
 8002012:	4301      	orrs	r1, r0
 8002014:	6191      	str	r1, [r2, #24]
 8002016:	e7c5      	b.n	8001fa4 <HAL_TIM_IC_ConfigChannel+0x78>
 8002018:	2710      	movs	r7, #16
 800201a:	68c8      	ldr	r0, [r1, #12]
 800201c:	681a      	ldr	r2, [r3, #0]
 800201e:	4680      	mov	r8, r0
 8002020:	6a15      	ldr	r5, [r2, #32]
 8002022:	680e      	ldr	r6, [r1, #0]
 8002024:	43bd      	bics	r5, r7
 8002026:	684c      	ldr	r4, [r1, #4]
 8002028:	6215      	str	r5, [r2, #32]
 800202a:	6997      	ldr	r7, [r2, #24]
 800202c:	4825      	ldr	r0, [pc, #148]	; (80020c4 <HAL_TIM_IC_ConfigChannel+0x198>)
 800202e:	0224      	lsls	r4, r4, #8
 8002030:	4007      	ands	r7, r0
 8002032:	4640      	mov	r0, r8
 8002034:	433c      	orrs	r4, r7
 8002036:	4f24      	ldr	r7, [pc, #144]	; (80020c8 <HAL_TIM_IC_ConfigChannel+0x19c>)
 8002038:	0700      	lsls	r0, r0, #28
 800203a:	403c      	ands	r4, r7
 800203c:	0c00      	lsrs	r0, r0, #16
 800203e:	4320      	orrs	r0, r4
 8002040:	24a0      	movs	r4, #160	; 0xa0
 8002042:	6a15      	ldr	r5, [r2, #32]
 8002044:	0136      	lsls	r6, r6, #4
 8002046:	43a5      	bics	r5, r4
 8002048:	4034      	ands	r4, r6
 800204a:	4325      	orrs	r5, r4
 800204c:	6190      	str	r0, [r2, #24]
 800204e:	6215      	str	r5, [r2, #32]
 8002050:	6990      	ldr	r0, [r2, #24]
 8002052:	4c1f      	ldr	r4, [pc, #124]	; (80020d0 <HAL_TIM_IC_ConfigChannel+0x1a4>)
 8002054:	6889      	ldr	r1, [r1, #8]
 8002056:	4020      	ands	r0, r4
 8002058:	6190      	str	r0, [r2, #24]
 800205a:	6990      	ldr	r0, [r2, #24]
 800205c:	0209      	lsls	r1, r1, #8
 800205e:	4301      	orrs	r1, r0
 8002060:	6191      	str	r1, [r2, #24]
 8002062:	e79f      	b.n	8001fa4 <HAL_TIM_IC_ConfigChannel+0x78>
 8002064:	6808      	ldr	r0, [r1, #0]
 8002066:	681a      	ldr	r2, [r3, #0]
 8002068:	4680      	mov	r8, r0
 800206a:	2003      	movs	r0, #3
 800206c:	6a16      	ldr	r6, [r2, #32]
 800206e:	4f1c      	ldr	r7, [pc, #112]	; (80020e0 <HAL_TIM_IC_ConfigChannel+0x1b4>)
 8002070:	68cc      	ldr	r4, [r1, #12]
 8002072:	403e      	ands	r6, r7
 8002074:	684d      	ldr	r5, [r1, #4]
 8002076:	6216      	str	r6, [r2, #32]
 8002078:	69d7      	ldr	r7, [r2, #28]
 800207a:	6a16      	ldr	r6, [r2, #32]
 800207c:	4387      	bics	r7, r0
 800207e:	433d      	orrs	r5, r7
 8002080:	27f0      	movs	r7, #240	; 0xf0
 8002082:	43bd      	bics	r5, r7
 8002084:	0127      	lsls	r7, r4, #4
 8002086:	24ff      	movs	r4, #255	; 0xff
 8002088:	403c      	ands	r4, r7
 800208a:	432c      	orrs	r4, r5
 800208c:	4d15      	ldr	r5, [pc, #84]	; (80020e4 <HAL_TIM_IC_ConfigChannel+0x1b8>)
 800208e:	4640      	mov	r0, r8
 8002090:	4035      	ands	r5, r6
 8002092:	26a0      	movs	r6, #160	; 0xa0
 8002094:	61d4      	str	r4, [r2, #28]
 8002096:	240c      	movs	r4, #12
 8002098:	0200      	lsls	r0, r0, #8
 800209a:	0136      	lsls	r6, r6, #4
 800209c:	4030      	ands	r0, r6
 800209e:	4328      	orrs	r0, r5
 80020a0:	6210      	str	r0, [r2, #32]
 80020a2:	69d0      	ldr	r0, [r2, #28]
 80020a4:	6889      	ldr	r1, [r1, #8]
 80020a6:	43a0      	bics	r0, r4
 80020a8:	61d0      	str	r0, [r2, #28]
 80020aa:	69d0      	ldr	r0, [r2, #28]
 80020ac:	4301      	orrs	r1, r0
 80020ae:	61d1      	str	r1, [r2, #28]
 80020b0:	e778      	b.n	8001fa4 <HAL_TIM_IC_ConfigChannel+0x78>
 80020b2:	2503      	movs	r5, #3
 80020b4:	43a8      	bics	r0, r5
 80020b6:	0005      	movs	r5, r0
 80020b8:	4640      	mov	r0, r8
 80020ba:	4328      	orrs	r0, r5
 80020bc:	0005      	movs	r5, r0
 80020be:	e795      	b.n	8001fec <HAL_TIM_IC_ConfigChannel+0xc0>
 80020c0:	ffffefff 	.word	0xffffefff
 80020c4:	fffffcff 	.word	0xfffffcff
 80020c8:	ffff0fff 	.word	0xffff0fff
 80020cc:	ffff5fff 	.word	0xffff5fff
 80020d0:	fffff3ff 	.word	0xfffff3ff
 80020d4:	40012c00 	.word	0x40012c00
 80020d8:	40000400 	.word	0x40000400
 80020dc:	40014000 	.word	0x40014000
 80020e0:	fffffeff 	.word	0xfffffeff
 80020e4:	fffff5ff 	.word	0xfffff5ff

080020e8 <HAL_TIM_PWM_ConfigChannel>:
 80020e8:	b5f0      	push	{r4, r5, r6, r7, lr}
 80020ea:	243c      	movs	r4, #60	; 0x3c
 80020ec:	5d05      	ldrb	r5, [r0, r4]
 80020ee:	0003      	movs	r3, r0
 80020f0:	2002      	movs	r0, #2
 80020f2:	2d01      	cmp	r5, #1
 80020f4:	d048      	beq.n	8002188 <HAL_TIM_PWM_ConfigChannel+0xa0>
 80020f6:	2501      	movs	r5, #1
 80020f8:	551d      	strb	r5, [r3, r4]
 80020fa:	3401      	adds	r4, #1
 80020fc:	5518      	strb	r0, [r3, r4]
 80020fe:	2a04      	cmp	r2, #4
 8002100:	d043      	beq.n	800218a <HAL_TIM_PWM_ConfigChannel+0xa2>
 8002102:	d800      	bhi.n	8002106 <HAL_TIM_PWM_ConfigChannel+0x1e>
 8002104:	e0a6      	b.n	8002254 <HAL_TIM_PWM_ConfigChannel+0x16c>
 8002106:	2a08      	cmp	r2, #8
 8002108:	d100      	bne.n	800210c <HAL_TIM_PWM_ConfigChannel+0x24>
 800210a:	e074      	b.n	80021f6 <HAL_TIM_PWM_ConfigChannel+0x10e>
 800210c:	2a0c      	cmp	r2, #12
 800210e:	d134      	bne.n	800217a <HAL_TIM_PWM_ConfigChannel+0x92>
 8002110:	681a      	ldr	r2, [r3, #0]
 8002112:	4c81      	ldr	r4, [pc, #516]	; (8002318 <HAL_TIM_PWM_ConfigChannel+0x230>)
 8002114:	6a10      	ldr	r0, [r2, #32]
 8002116:	4d81      	ldr	r5, [pc, #516]	; (800231c <HAL_TIM_PWM_ConfigChannel+0x234>)
 8002118:	4020      	ands	r0, r4
 800211a:	6210      	str	r0, [r2, #32]
 800211c:	6a10      	ldr	r0, [r2, #32]
 800211e:	6856      	ldr	r6, [r2, #4]
 8002120:	69d4      	ldr	r4, [r2, #28]
 8002122:	402c      	ands	r4, r5
 8002124:	680d      	ldr	r5, [r1, #0]
 8002126:	022d      	lsls	r5, r5, #8
 8002128:	4325      	orrs	r5, r4
 800212a:	4c7d      	ldr	r4, [pc, #500]	; (8002320 <HAL_TIM_PWM_ConfigChannel+0x238>)
 800212c:	4004      	ands	r4, r0
 800212e:	6888      	ldr	r0, [r1, #8]
 8002130:	0300      	lsls	r0, r0, #12
 8002132:	4320      	orrs	r0, r4
 8002134:	4c7b      	ldr	r4, [pc, #492]	; (8002324 <HAL_TIM_PWM_ConfigChannel+0x23c>)
 8002136:	42a2      	cmp	r2, r4
 8002138:	d100      	bne.n	800213c <HAL_TIM_PWM_ConfigChannel+0x54>
 800213a:	e0ca      	b.n	80022d2 <HAL_TIM_PWM_ConfigChannel+0x1ea>
 800213c:	4c7a      	ldr	r4, [pc, #488]	; (8002328 <HAL_TIM_PWM_ConfigChannel+0x240>)
 800213e:	42a2      	cmp	r2, r4
 8002140:	d100      	bne.n	8002144 <HAL_TIM_PWM_ConfigChannel+0x5c>
 8002142:	e0c6      	b.n	80022d2 <HAL_TIM_PWM_ConfigChannel+0x1ea>
 8002144:	4c79      	ldr	r4, [pc, #484]	; (800232c <HAL_TIM_PWM_ConfigChannel+0x244>)
 8002146:	42a2      	cmp	r2, r4
 8002148:	d100      	bne.n	800214c <HAL_TIM_PWM_ConfigChannel+0x64>
 800214a:	e0c2      	b.n	80022d2 <HAL_TIM_PWM_ConfigChannel+0x1ea>
 800214c:	4c78      	ldr	r4, [pc, #480]	; (8002330 <HAL_TIM_PWM_ConfigChannel+0x248>)
 800214e:	42a2      	cmp	r2, r4
 8002150:	d100      	bne.n	8002154 <HAL_TIM_PWM_ConfigChannel+0x6c>
 8002152:	e0be      	b.n	80022d2 <HAL_TIM_PWM_ConfigChannel+0x1ea>
 8002154:	684c      	ldr	r4, [r1, #4]
 8002156:	6056      	str	r6, [r2, #4]
 8002158:	61d5      	str	r5, [r2, #28]
 800215a:	6414      	str	r4, [r2, #64]	; 0x40
 800215c:	6210      	str	r0, [r2, #32]
 800215e:	2080      	movs	r0, #128	; 0x80
 8002160:	69d4      	ldr	r4, [r2, #28]
 8002162:	0100      	lsls	r0, r0, #4
 8002164:	4320      	orrs	r0, r4
 8002166:	61d0      	str	r0, [r2, #28]
 8002168:	69d0      	ldr	r0, [r2, #28]
 800216a:	4c72      	ldr	r4, [pc, #456]	; (8002334 <HAL_TIM_PWM_ConfigChannel+0x24c>)
 800216c:	6909      	ldr	r1, [r1, #16]
 800216e:	4020      	ands	r0, r4
 8002170:	61d0      	str	r0, [r2, #28]
 8002172:	69d0      	ldr	r0, [r2, #28]
 8002174:	0209      	lsls	r1, r1, #8
 8002176:	4301      	orrs	r1, r0
 8002178:	61d1      	str	r1, [r2, #28]
 800217a:	2101      	movs	r1, #1
 800217c:	223d      	movs	r2, #61	; 0x3d
 800217e:	5499      	strb	r1, [r3, r2]
 8002180:	2100      	movs	r1, #0
 8002182:	2000      	movs	r0, #0
 8002184:	3a01      	subs	r2, #1
 8002186:	5499      	strb	r1, [r3, r2]
 8002188:	bdf0      	pop	{r4, r5, r6, r7, pc}
 800218a:	2410      	movs	r4, #16
 800218c:	681a      	ldr	r2, [r3, #0]
 800218e:	4d63      	ldr	r5, [pc, #396]	; (800231c <HAL_TIM_PWM_ConfigChannel+0x234>)
 8002190:	6a10      	ldr	r0, [r2, #32]
 8002192:	43a0      	bics	r0, r4
 8002194:	6210      	str	r0, [r2, #32]
 8002196:	6a10      	ldr	r0, [r2, #32]
 8002198:	6856      	ldr	r6, [r2, #4]
 800219a:	6994      	ldr	r4, [r2, #24]
 800219c:	402c      	ands	r4, r5
 800219e:	680d      	ldr	r5, [r1, #0]
 80021a0:	022d      	lsls	r5, r5, #8
 80021a2:	4325      	orrs	r5, r4
 80021a4:	2420      	movs	r4, #32
 80021a6:	43a0      	bics	r0, r4
 80021a8:	688c      	ldr	r4, [r1, #8]
 80021aa:	0124      	lsls	r4, r4, #4
 80021ac:	4320      	orrs	r0, r4
 80021ae:	4c5d      	ldr	r4, [pc, #372]	; (8002324 <HAL_TIM_PWM_ConfigChannel+0x23c>)
 80021b0:	42a2      	cmp	r2, r4
 80021b2:	d100      	bne.n	80021b6 <HAL_TIM_PWM_ConfigChannel+0xce>
 80021b4:	e093      	b.n	80022de <HAL_TIM_PWM_ConfigChannel+0x1f6>
 80021b6:	4c5c      	ldr	r4, [pc, #368]	; (8002328 <HAL_TIM_PWM_ConfigChannel+0x240>)
 80021b8:	42a2      	cmp	r2, r4
 80021ba:	d100      	bne.n	80021be <HAL_TIM_PWM_ConfigChannel+0xd6>
 80021bc:	e096      	b.n	80022ec <HAL_TIM_PWM_ConfigChannel+0x204>
 80021be:	4c5b      	ldr	r4, [pc, #364]	; (800232c <HAL_TIM_PWM_ConfigChannel+0x244>)
 80021c0:	42a2      	cmp	r2, r4
 80021c2:	d100      	bne.n	80021c6 <HAL_TIM_PWM_ConfigChannel+0xde>
 80021c4:	e092      	b.n	80022ec <HAL_TIM_PWM_ConfigChannel+0x204>
 80021c6:	4c5a      	ldr	r4, [pc, #360]	; (8002330 <HAL_TIM_PWM_ConfigChannel+0x248>)
 80021c8:	42a2      	cmp	r2, r4
 80021ca:	d100      	bne.n	80021ce <HAL_TIM_PWM_ConfigChannel+0xe6>
 80021cc:	e08e      	b.n	80022ec <HAL_TIM_PWM_ConfigChannel+0x204>
 80021ce:	684c      	ldr	r4, [r1, #4]
 80021d0:	6056      	str	r6, [r2, #4]
 80021d2:	6195      	str	r5, [r2, #24]
 80021d4:	6394      	str	r4, [r2, #56]	; 0x38
 80021d6:	6210      	str	r0, [r2, #32]
 80021d8:	2080      	movs	r0, #128	; 0x80
 80021da:	6994      	ldr	r4, [r2, #24]
 80021dc:	0100      	lsls	r0, r0, #4
 80021de:	4320      	orrs	r0, r4
 80021e0:	6190      	str	r0, [r2, #24]
 80021e2:	6990      	ldr	r0, [r2, #24]
 80021e4:	4c53      	ldr	r4, [pc, #332]	; (8002334 <HAL_TIM_PWM_ConfigChannel+0x24c>)
 80021e6:	6909      	ldr	r1, [r1, #16]
 80021e8:	4020      	ands	r0, r4
 80021ea:	6190      	str	r0, [r2, #24]
 80021ec:	6990      	ldr	r0, [r2, #24]
 80021ee:	0209      	lsls	r1, r1, #8
 80021f0:	4301      	orrs	r1, r0
 80021f2:	6191      	str	r1, [r2, #24]
 80021f4:	e7c1      	b.n	800217a <HAL_TIM_PWM_ConfigChannel+0x92>
 80021f6:	2673      	movs	r6, #115	; 0x73
 80021f8:	681a      	ldr	r2, [r3, #0]
 80021fa:	4c4f      	ldr	r4, [pc, #316]	; (8002338 <HAL_TIM_PWM_ConfigChannel+0x250>)
 80021fc:	6a10      	ldr	r0, [r2, #32]
 80021fe:	4020      	ands	r0, r4
 8002200:	6210      	str	r0, [r2, #32]
 8002202:	6a10      	ldr	r0, [r2, #32]
 8002204:	6855      	ldr	r5, [r2, #4]
 8002206:	69d4      	ldr	r4, [r2, #28]
 8002208:	43b4      	bics	r4, r6
 800220a:	680e      	ldr	r6, [r1, #0]
 800220c:	4326      	orrs	r6, r4
 800220e:	4c4b      	ldr	r4, [pc, #300]	; (800233c <HAL_TIM_PWM_ConfigChannel+0x254>)
 8002210:	4020      	ands	r0, r4
 8002212:	688c      	ldr	r4, [r1, #8]
 8002214:	0224      	lsls	r4, r4, #8
 8002216:	4320      	orrs	r0, r4
 8002218:	4c42      	ldr	r4, [pc, #264]	; (8002324 <HAL_TIM_PWM_ConfigChannel+0x23c>)
 800221a:	42a2      	cmp	r2, r4
 800221c:	d04a      	beq.n	80022b4 <HAL_TIM_PWM_ConfigChannel+0x1cc>
 800221e:	4c42      	ldr	r4, [pc, #264]	; (8002328 <HAL_TIM_PWM_ConfigChannel+0x240>)
 8002220:	42a2      	cmp	r2, r4
 8002222:	d04e      	beq.n	80022c2 <HAL_TIM_PWM_ConfigChannel+0x1da>
 8002224:	4c41      	ldr	r4, [pc, #260]	; (800232c <HAL_TIM_PWM_ConfigChannel+0x244>)
 8002226:	42a2      	cmp	r2, r4
 8002228:	d04b      	beq.n	80022c2 <HAL_TIM_PWM_ConfigChannel+0x1da>
 800222a:	4c41      	ldr	r4, [pc, #260]	; (8002330 <HAL_TIM_PWM_ConfigChannel+0x248>)
 800222c:	42a2      	cmp	r2, r4
 800222e:	d048      	beq.n	80022c2 <HAL_TIM_PWM_ConfigChannel+0x1da>
 8002230:	684c      	ldr	r4, [r1, #4]
 8002232:	6055      	str	r5, [r2, #4]
 8002234:	61d6      	str	r6, [r2, #28]
 8002236:	63d4      	str	r4, [r2, #60]	; 0x3c
 8002238:	2408      	movs	r4, #8
 800223a:	6210      	str	r0, [r2, #32]
 800223c:	69d0      	ldr	r0, [r2, #28]
 800223e:	6909      	ldr	r1, [r1, #16]
 8002240:	4320      	orrs	r0, r4
 8002242:	61d0      	str	r0, [r2, #28]
 8002244:	69d0      	ldr	r0, [r2, #28]
 8002246:	3c04      	subs	r4, #4
 8002248:	43a0      	bics	r0, r4
 800224a:	61d0      	str	r0, [r2, #28]
 800224c:	69d0      	ldr	r0, [r2, #28]
 800224e:	4301      	orrs	r1, r0
 8002250:	61d1      	str	r1, [r2, #28]
 8002252:	e792      	b.n	800217a <HAL_TIM_PWM_ConfigChannel+0x92>
 8002254:	2a00      	cmp	r2, #0
 8002256:	d000      	beq.n	800225a <HAL_TIM_PWM_ConfigChannel+0x172>
 8002258:	e78f      	b.n	800217a <HAL_TIM_PWM_ConfigChannel+0x92>
 800225a:	681a      	ldr	r2, [r3, #0]
 800225c:	2773      	movs	r7, #115	; 0x73
 800225e:	6a14      	ldr	r4, [r2, #32]
 8002260:	43ac      	bics	r4, r5
 8002262:	6214      	str	r4, [r2, #32]
 8002264:	6a14      	ldr	r4, [r2, #32]
 8002266:	6856      	ldr	r6, [r2, #4]
 8002268:	4384      	bics	r4, r0
 800226a:	0020      	movs	r0, r4
 800226c:	6995      	ldr	r5, [r2, #24]
 800226e:	688c      	ldr	r4, [r1, #8]
 8002270:	43bd      	bics	r5, r7
 8002272:	4320      	orrs	r0, r4
 8002274:	680f      	ldr	r7, [r1, #0]
 8002276:	4c2b      	ldr	r4, [pc, #172]	; (8002324 <HAL_TIM_PWM_ConfigChannel+0x23c>)
 8002278:	433d      	orrs	r5, r7
 800227a:	42a2      	cmp	r2, r4
 800227c:	d03e      	beq.n	80022fc <HAL_TIM_PWM_ConfigChannel+0x214>
 800227e:	4c2a      	ldr	r4, [pc, #168]	; (8002328 <HAL_TIM_PWM_ConfigChannel+0x240>)
 8002280:	42a2      	cmp	r2, r4
 8002282:	d03b      	beq.n	80022fc <HAL_TIM_PWM_ConfigChannel+0x214>
 8002284:	4c29      	ldr	r4, [pc, #164]	; (800232c <HAL_TIM_PWM_ConfigChannel+0x244>)
 8002286:	42a2      	cmp	r2, r4
 8002288:	d038      	beq.n	80022fc <HAL_TIM_PWM_ConfigChannel+0x214>
 800228a:	4c29      	ldr	r4, [pc, #164]	; (8002330 <HAL_TIM_PWM_ConfigChannel+0x248>)
 800228c:	42a2      	cmp	r2, r4
 800228e:	d035      	beq.n	80022fc <HAL_TIM_PWM_ConfigChannel+0x214>
 8002290:	684c      	ldr	r4, [r1, #4]
 8002292:	6056      	str	r6, [r2, #4]
 8002294:	6195      	str	r5, [r2, #24]
 8002296:	6354      	str	r4, [r2, #52]	; 0x34
 8002298:	2408      	movs	r4, #8
 800229a:	6210      	str	r0, [r2, #32]
 800229c:	6990      	ldr	r0, [r2, #24]
 800229e:	6909      	ldr	r1, [r1, #16]
 80022a0:	4320      	orrs	r0, r4
 80022a2:	6190      	str	r0, [r2, #24]
 80022a4:	6990      	ldr	r0, [r2, #24]
 80022a6:	3c04      	subs	r4, #4
 80022a8:	43a0      	bics	r0, r4
 80022aa:	6190      	str	r0, [r2, #24]
 80022ac:	6990      	ldr	r0, [r2, #24]
 80022ae:	4301      	orrs	r1, r0
 80022b0:	6191      	str	r1, [r2, #24]
 80022b2:	e762      	b.n	800217a <HAL_TIM_PWM_ConfigChannel+0x92>
 80022b4:	4c22      	ldr	r4, [pc, #136]	; (8002340 <HAL_TIM_PWM_ConfigChannel+0x258>)
 80022b6:	4004      	ands	r4, r0
 80022b8:	68c8      	ldr	r0, [r1, #12]
 80022ba:	0200      	lsls	r0, r0, #8
 80022bc:	4320      	orrs	r0, r4
 80022be:	4c1d      	ldr	r4, [pc, #116]	; (8002334 <HAL_TIM_PWM_ConfigChannel+0x24c>)
 80022c0:	4020      	ands	r0, r4
 80022c2:	4c20      	ldr	r4, [pc, #128]	; (8002344 <HAL_TIM_PWM_ConfigChannel+0x25c>)
 80022c4:	694f      	ldr	r7, [r1, #20]
 80022c6:	402c      	ands	r4, r5
 80022c8:	698d      	ldr	r5, [r1, #24]
 80022ca:	433d      	orrs	r5, r7
 80022cc:	012d      	lsls	r5, r5, #4
 80022ce:	4325      	orrs	r5, r4
 80022d0:	e7ae      	b.n	8002230 <HAL_TIM_PWM_ConfigChannel+0x148>
 80022d2:	4c1d      	ldr	r4, [pc, #116]	; (8002348 <HAL_TIM_PWM_ConfigChannel+0x260>)
 80022d4:	4034      	ands	r4, r6
 80022d6:	694e      	ldr	r6, [r1, #20]
 80022d8:	01b6      	lsls	r6, r6, #6
 80022da:	4326      	orrs	r6, r4
 80022dc:	e73a      	b.n	8002154 <HAL_TIM_PWM_ConfigChannel+0x6c>
 80022de:	2480      	movs	r4, #128	; 0x80
 80022e0:	43a0      	bics	r0, r4
 80022e2:	68cc      	ldr	r4, [r1, #12]
 80022e4:	0127      	lsls	r7, r4, #4
 80022e6:	2440      	movs	r4, #64	; 0x40
 80022e8:	4338      	orrs	r0, r7
 80022ea:	43a0      	bics	r0, r4
 80022ec:	4c17      	ldr	r4, [pc, #92]	; (800234c <HAL_TIM_PWM_ConfigChannel+0x264>)
 80022ee:	694f      	ldr	r7, [r1, #20]
 80022f0:	4034      	ands	r4, r6
 80022f2:	698e      	ldr	r6, [r1, #24]
 80022f4:	433e      	orrs	r6, r7
 80022f6:	00b6      	lsls	r6, r6, #2
 80022f8:	4326      	orrs	r6, r4
 80022fa:	e768      	b.n	80021ce <HAL_TIM_PWM_ConfigChannel+0xe6>
 80022fc:	2408      	movs	r4, #8
 80022fe:	43a0      	bics	r0, r4
 8002300:	68cc      	ldr	r4, [r1, #12]
 8002302:	698f      	ldr	r7, [r1, #24]
 8002304:	4320      	orrs	r0, r4
 8002306:	2404      	movs	r4, #4
 8002308:	43a0      	bics	r0, r4
 800230a:	4c11      	ldr	r4, [pc, #68]	; (8002350 <HAL_TIM_PWM_ConfigChannel+0x268>)
 800230c:	4026      	ands	r6, r4
 800230e:	694c      	ldr	r4, [r1, #20]
 8002310:	433c      	orrs	r4, r7
 8002312:	4326      	orrs	r6, r4
 8002314:	e7bc      	b.n	8002290 <HAL_TIM_PWM_ConfigChannel+0x1a8>
 8002316:	46c0      	nop			; (mov r8, r8)
 8002318:	ffffefff 	.word	0xffffefff
 800231c:	ffff8cff 	.word	0xffff8cff
 8002320:	ffffdfff 	.word	0xffffdfff
 8002324:	40012c00 	.word	0x40012c00
 8002328:	40014000 	.word	0x40014000
 800232c:	40014400 	.word	0x40014400
 8002330:	40014800 	.word	0x40014800
 8002334:	fffffbff 	.word	0xfffffbff
 8002338:	fffffeff 	.word	0xfffffeff
 800233c:	fffffdff 	.word	0xfffffdff
 8002340:	fffff7ff 	.word	0xfffff7ff
 8002344:	ffffcfff 	.word	0xffffcfff
 8002348:	ffffbfff 	.word	0xffffbfff
 800234c:	fffff3ff 	.word	0xfffff3ff
 8002350:	fffffcff 	.word	0xfffffcff

08002354 <HAL_TIM_ConfigClockSource>:
 8002354:	223c      	movs	r2, #60	; 0x3c
 8002356:	b570      	push	{r4, r5, r6, lr}
 8002358:	5c84      	ldrb	r4, [r0, r2]
 800235a:	2302      	movs	r3, #2
 800235c:	2c01      	cmp	r4, #1
 800235e:	d03d      	beq.n	80023dc <HAL_TIM_ConfigClockSource+0x88>
 8002360:	2401      	movs	r4, #1
 8002362:	5484      	strb	r4, [r0, r2]
 8002364:	3201      	adds	r2, #1
 8002366:	5483      	strb	r3, [r0, r2]
 8002368:	6803      	ldr	r3, [r0, #0]
 800236a:	4d59      	ldr	r5, [pc, #356]	; (80024d0 <HAL_TIM_ConfigClockSource+0x17c>)
 800236c:	689a      	ldr	r2, [r3, #8]
 800236e:	402a      	ands	r2, r5
 8002370:	609a      	str	r2, [r3, #8]
 8002372:	680a      	ldr	r2, [r1, #0]
 8002374:	2a40      	cmp	r2, #64	; 0x40
 8002376:	d100      	bne.n	800237a <HAL_TIM_ConfigClockSource+0x26>
 8002378:	e074      	b.n	8002464 <HAL_TIM_ConfigClockSource+0x110>
 800237a:	d91b      	bls.n	80023b4 <HAL_TIM_ConfigClockSource+0x60>
 800237c:	2a70      	cmp	r2, #112	; 0x70
 800237e:	d061      	beq.n	8002444 <HAL_TIM_ConfigClockSource+0xf0>
 8002380:	d92e      	bls.n	80023e0 <HAL_TIM_ConfigClockSource+0x8c>
 8002382:	2480      	movs	r4, #128	; 0x80
 8002384:	0164      	lsls	r4, r4, #5
 8002386:	42a2      	cmp	r2, r4
 8002388:	d057      	beq.n	800243a <HAL_TIM_ConfigClockSource+0xe6>
 800238a:	2480      	movs	r4, #128	; 0x80
 800238c:	01a4      	lsls	r4, r4, #6
 800238e:	42a2      	cmp	r2, r4
 8002390:	d11d      	bne.n	80023ce <HAL_TIM_ConfigClockSource+0x7a>
 8002392:	689a      	ldr	r2, [r3, #8]
 8002394:	4c4f      	ldr	r4, [pc, #316]	; (80024d4 <HAL_TIM_ConfigClockSource+0x180>)
 8002396:	684d      	ldr	r5, [r1, #4]
 8002398:	4014      	ands	r4, r2
 800239a:	688a      	ldr	r2, [r1, #8]
 800239c:	68c9      	ldr	r1, [r1, #12]
 800239e:	432a      	orrs	r2, r5
 80023a0:	0209      	lsls	r1, r1, #8
 80023a2:	430a      	orrs	r2, r1
 80023a4:	4322      	orrs	r2, r4
 80023a6:	609a      	str	r2, [r3, #8]
 80023a8:	2280      	movs	r2, #128	; 0x80
 80023aa:	6899      	ldr	r1, [r3, #8]
 80023ac:	01d2      	lsls	r2, r2, #7
 80023ae:	430a      	orrs	r2, r1
 80023b0:	609a      	str	r2, [r3, #8]
 80023b2:	e00c      	b.n	80023ce <HAL_TIM_ConfigClockSource+0x7a>
 80023b4:	2a10      	cmp	r2, #16
 80023b6:	d030      	beq.n	800241a <HAL_TIM_ConfigClockSource+0xc6>
 80023b8:	d936      	bls.n	8002428 <HAL_TIM_ConfigClockSource+0xd4>
 80023ba:	2a20      	cmp	r2, #32
 80023bc:	d069      	beq.n	8002492 <HAL_TIM_ConfigClockSource+0x13e>
 80023be:	2a30      	cmp	r2, #48	; 0x30
 80023c0:	d105      	bne.n	80023ce <HAL_TIM_ConfigClockSource+0x7a>
 80023c2:	2170      	movs	r1, #112	; 0x70
 80023c4:	689a      	ldr	r2, [r3, #8]
 80023c6:	438a      	bics	r2, r1
 80023c8:	3939      	subs	r1, #57	; 0x39
 80023ca:	430a      	orrs	r2, r1
 80023cc:	609a      	str	r2, [r3, #8]
 80023ce:	2201      	movs	r2, #1
 80023d0:	233d      	movs	r3, #61	; 0x3d
 80023d2:	54c2      	strb	r2, [r0, r3]
 80023d4:	2200      	movs	r2, #0
 80023d6:	3b01      	subs	r3, #1
 80023d8:	54c2      	strb	r2, [r0, r3]
 80023da:	2300      	movs	r3, #0
 80023dc:	0018      	movs	r0, r3
 80023de:	bd70      	pop	{r4, r5, r6, pc}
 80023e0:	2a50      	cmp	r2, #80	; 0x50
 80023e2:	d05d      	beq.n	80024a0 <HAL_TIM_ConfigClockSource+0x14c>
 80023e4:	2a60      	cmp	r2, #96	; 0x60
 80023e6:	d1f2      	bne.n	80023ce <HAL_TIM_ConfigClockSource+0x7a>
 80023e8:	2510      	movs	r5, #16
 80023ea:	6a1c      	ldr	r4, [r3, #32]
 80023ec:	684a      	ldr	r2, [r1, #4]
 80023ee:	43ac      	bics	r4, r5
 80023f0:	68c9      	ldr	r1, [r1, #12]
 80023f2:	621c      	str	r4, [r3, #32]
 80023f4:	699d      	ldr	r5, [r3, #24]
 80023f6:	4e38      	ldr	r6, [pc, #224]	; (80024d8 <HAL_TIM_ConfigClockSource+0x184>)
 80023f8:	0309      	lsls	r1, r1, #12
 80023fa:	4035      	ands	r5, r6
 80023fc:	4329      	orrs	r1, r5
 80023fe:	25a0      	movs	r5, #160	; 0xa0
 8002400:	6a1c      	ldr	r4, [r3, #32]
 8002402:	6199      	str	r1, [r3, #24]
 8002404:	2170      	movs	r1, #112	; 0x70
 8002406:	43ac      	bics	r4, r5
 8002408:	0112      	lsls	r2, r2, #4
 800240a:	4322      	orrs	r2, r4
 800240c:	621a      	str	r2, [r3, #32]
 800240e:	689a      	ldr	r2, [r3, #8]
 8002410:	438a      	bics	r2, r1
 8002412:	3909      	subs	r1, #9
 8002414:	430a      	orrs	r2, r1
 8002416:	609a      	str	r2, [r3, #8]
 8002418:	e7d9      	b.n	80023ce <HAL_TIM_ConfigClockSource+0x7a>
 800241a:	2170      	movs	r1, #112	; 0x70
 800241c:	689a      	ldr	r2, [r3, #8]
 800241e:	438a      	bics	r2, r1
 8002420:	3959      	subs	r1, #89	; 0x59
 8002422:	430a      	orrs	r2, r1
 8002424:	609a      	str	r2, [r3, #8]
 8002426:	e7d2      	b.n	80023ce <HAL_TIM_ConfigClockSource+0x7a>
 8002428:	2a00      	cmp	r2, #0
 800242a:	d1d0      	bne.n	80023ce <HAL_TIM_ConfigClockSource+0x7a>
 800242c:	2170      	movs	r1, #112	; 0x70
 800242e:	689a      	ldr	r2, [r3, #8]
 8002430:	438a      	bics	r2, r1
 8002432:	3969      	subs	r1, #105	; 0x69
 8002434:	430a      	orrs	r2, r1
 8002436:	609a      	str	r2, [r3, #8]
 8002438:	e7c9      	b.n	80023ce <HAL_TIM_ConfigClockSource+0x7a>
 800243a:	2107      	movs	r1, #7
 800243c:	689a      	ldr	r2, [r3, #8]
 800243e:	438a      	bics	r2, r1
 8002440:	609a      	str	r2, [r3, #8]
 8002442:	e7c4      	b.n	80023ce <HAL_TIM_ConfigClockSource+0x7a>
 8002444:	689a      	ldr	r2, [r3, #8]
 8002446:	4c23      	ldr	r4, [pc, #140]	; (80024d4 <HAL_TIM_ConfigClockSource+0x180>)
 8002448:	684d      	ldr	r5, [r1, #4]
 800244a:	4014      	ands	r4, r2
 800244c:	688a      	ldr	r2, [r1, #8]
 800244e:	68c9      	ldr	r1, [r1, #12]
 8002450:	432a      	orrs	r2, r5
 8002452:	0209      	lsls	r1, r1, #8
 8002454:	430a      	orrs	r2, r1
 8002456:	2177      	movs	r1, #119	; 0x77
 8002458:	4322      	orrs	r2, r4
 800245a:	609a      	str	r2, [r3, #8]
 800245c:	689a      	ldr	r2, [r3, #8]
 800245e:	430a      	orrs	r2, r1
 8002460:	609a      	str	r2, [r3, #8]
 8002462:	e7b4      	b.n	80023ce <HAL_TIM_ConfigClockSource+0x7a>
 8002464:	684d      	ldr	r5, [r1, #4]
 8002466:	68ca      	ldr	r2, [r1, #12]
 8002468:	6a19      	ldr	r1, [r3, #32]
 800246a:	6a1e      	ldr	r6, [r3, #32]
 800246c:	0112      	lsls	r2, r2, #4
 800246e:	43a6      	bics	r6, r4
 8002470:	621e      	str	r6, [r3, #32]
 8002472:	26f0      	movs	r6, #240	; 0xf0
 8002474:	699c      	ldr	r4, [r3, #24]
 8002476:	43b4      	bics	r4, r6
 8002478:	4322      	orrs	r2, r4
 800247a:	240a      	movs	r4, #10
 800247c:	43a1      	bics	r1, r4
 800247e:	4329      	orrs	r1, r5
 8002480:	619a      	str	r2, [r3, #24]
 8002482:	6219      	str	r1, [r3, #32]
 8002484:	2170      	movs	r1, #112	; 0x70
 8002486:	689a      	ldr	r2, [r3, #8]
 8002488:	438a      	bics	r2, r1
 800248a:	3929      	subs	r1, #41	; 0x29
 800248c:	430a      	orrs	r2, r1
 800248e:	609a      	str	r2, [r3, #8]
 8002490:	e79d      	b.n	80023ce <HAL_TIM_ConfigClockSource+0x7a>
 8002492:	2170      	movs	r1, #112	; 0x70
 8002494:	689a      	ldr	r2, [r3, #8]
 8002496:	438a      	bics	r2, r1
 8002498:	3949      	subs	r1, #73	; 0x49
 800249a:	430a      	orrs	r2, r1
 800249c:	609a      	str	r2, [r3, #8]
 800249e:	e796      	b.n	80023ce <HAL_TIM_ConfigClockSource+0x7a>
 80024a0:	684d      	ldr	r5, [r1, #4]
 80024a2:	68ca      	ldr	r2, [r1, #12]
 80024a4:	6a19      	ldr	r1, [r3, #32]
 80024a6:	6a1e      	ldr	r6, [r3, #32]
 80024a8:	0112      	lsls	r2, r2, #4
 80024aa:	43a6      	bics	r6, r4
 80024ac:	621e      	str	r6, [r3, #32]
 80024ae:	26f0      	movs	r6, #240	; 0xf0
 80024b0:	699c      	ldr	r4, [r3, #24]
 80024b2:	43b4      	bics	r4, r6
 80024b4:	4322      	orrs	r2, r4
 80024b6:	240a      	movs	r4, #10
 80024b8:	43a1      	bics	r1, r4
 80024ba:	4329      	orrs	r1, r5
 80024bc:	619a      	str	r2, [r3, #24]
 80024be:	6219      	str	r1, [r3, #32]
 80024c0:	2170      	movs	r1, #112	; 0x70
 80024c2:	689a      	ldr	r2, [r3, #8]
 80024c4:	438a      	bics	r2, r1
 80024c6:	3919      	subs	r1, #25
 80024c8:	430a      	orrs	r2, r1
 80024ca:	609a      	str	r2, [r3, #8]
 80024cc:	e77f      	b.n	80023ce <HAL_TIM_ConfigClockSource+0x7a>
 80024ce:	46c0      	nop			; (mov r8, r8)
 80024d0:	ffff0088 	.word	0xffff0088
 80024d4:	ffff00ff 	.word	0xffff00ff
 80024d8:	ffff0fff 	.word	0xffff0fff

080024dc <HAL_TIM_SlaveConfigSynchronization>:
 80024dc:	233c      	movs	r3, #60	; 0x3c
 80024de:	b570      	push	{r4, r5, r6, lr}
 80024e0:	5cc4      	ldrb	r4, [r0, r3]
 80024e2:	0002      	movs	r2, r0
 80024e4:	2002      	movs	r0, #2
 80024e6:	2c01      	cmp	r4, #1
 80024e8:	d100      	bne.n	80024ec <HAL_TIM_SlaveConfigSynchronization+0x10>
 80024ea:	bd70      	pop	{r4, r5, r6, pc}
 80024ec:	2501      	movs	r5, #1
 80024ee:	2470      	movs	r4, #112	; 0x70
 80024f0:	2607      	movs	r6, #7
 80024f2:	54d5      	strb	r5, [r2, r3]
 80024f4:	3301      	adds	r3, #1
 80024f6:	54d0      	strb	r0, [r2, r3]
 80024f8:	6813      	ldr	r3, [r2, #0]
 80024fa:	6898      	ldr	r0, [r3, #8]
 80024fc:	43a0      	bics	r0, r4
 80024fe:	684c      	ldr	r4, [r1, #4]
 8002500:	4320      	orrs	r0, r4
 8002502:	43b0      	bics	r0, r6
 8002504:	680e      	ldr	r6, [r1, #0]
 8002506:	4330      	orrs	r0, r6
 8002508:	6098      	str	r0, [r3, #8]
 800250a:	2c50      	cmp	r4, #80	; 0x50
 800250c:	d042      	beq.n	8002594 <HAL_TIM_SlaveConfigSynchronization+0xb8>
 800250e:	d91e      	bls.n	800254e <HAL_TIM_SlaveConfigSynchronization+0x72>
 8002510:	2c60      	cmp	r4, #96	; 0x60
 8002512:	d02b      	beq.n	800256c <HAL_TIM_SlaveConfigSynchronization+0x90>
 8002514:	2c70      	cmp	r4, #112	; 0x70
 8002516:	d10a      	bne.n	800252e <HAL_TIM_SlaveConfigSynchronization+0x52>
 8002518:	689c      	ldr	r4, [r3, #8]
 800251a:	4827      	ldr	r0, [pc, #156]	; (80025b8 <HAL_TIM_SlaveConfigSynchronization+0xdc>)
 800251c:	688d      	ldr	r5, [r1, #8]
 800251e:	4004      	ands	r4, r0
 8002520:	68c8      	ldr	r0, [r1, #12]
 8002522:	6909      	ldr	r1, [r1, #16]
 8002524:	4328      	orrs	r0, r5
 8002526:	0209      	lsls	r1, r1, #8
 8002528:	4301      	orrs	r1, r0
 800252a:	4321      	orrs	r1, r4
 800252c:	6099      	str	r1, [r3, #8]
 800252e:	2040      	movs	r0, #64	; 0x40
 8002530:	68d9      	ldr	r1, [r3, #12]
 8002532:	4381      	bics	r1, r0
 8002534:	60d9      	str	r1, [r3, #12]
 8002536:	68d9      	ldr	r1, [r3, #12]
 8002538:	4820      	ldr	r0, [pc, #128]	; (80025bc <HAL_TIM_SlaveConfigSynchronization+0xe0>)
 800253a:	4001      	ands	r1, r0
 800253c:	60d9      	str	r1, [r3, #12]
 800253e:	2101      	movs	r1, #1
 8002540:	233d      	movs	r3, #61	; 0x3d
 8002542:	54d1      	strb	r1, [r2, r3]
 8002544:	2100      	movs	r1, #0
 8002546:	3b01      	subs	r3, #1
 8002548:	54d1      	strb	r1, [r2, r3]
 800254a:	2000      	movs	r0, #0
 800254c:	e7cd      	b.n	80024ea <HAL_TIM_SlaveConfigSynchronization+0xe>
 800254e:	2c40      	cmp	r4, #64	; 0x40
 8002550:	d1ed      	bne.n	800252e <HAL_TIM_SlaveConfigSynchronization+0x52>
 8002552:	6a1c      	ldr	r4, [r3, #32]
 8002554:	6a18      	ldr	r0, [r3, #32]
 8002556:	6909      	ldr	r1, [r1, #16]
 8002558:	43a8      	bics	r0, r5
 800255a:	25f0      	movs	r5, #240	; 0xf0
 800255c:	6218      	str	r0, [r3, #32]
 800255e:	6998      	ldr	r0, [r3, #24]
 8002560:	0109      	lsls	r1, r1, #4
 8002562:	43a8      	bics	r0, r5
 8002564:	4301      	orrs	r1, r0
 8002566:	6199      	str	r1, [r3, #24]
 8002568:	621c      	str	r4, [r3, #32]
 800256a:	e7e0      	b.n	800252e <HAL_TIM_SlaveConfigSynchronization+0x52>
 800256c:	2510      	movs	r5, #16
 800256e:	6888      	ldr	r0, [r1, #8]
 8002570:	690c      	ldr	r4, [r1, #16]
 8002572:	6a19      	ldr	r1, [r3, #32]
 8002574:	4e12      	ldr	r6, [pc, #72]	; (80025c0 <HAL_TIM_SlaveConfigSynchronization+0xe4>)
 8002576:	43a9      	bics	r1, r5
 8002578:	6219      	str	r1, [r3, #32]
 800257a:	699d      	ldr	r5, [r3, #24]
 800257c:	0324      	lsls	r4, r4, #12
 800257e:	4035      	ands	r5, r6
 8002580:	432c      	orrs	r4, r5
 8002582:	25a0      	movs	r5, #160	; 0xa0
 8002584:	6a19      	ldr	r1, [r3, #32]
 8002586:	619c      	str	r4, [r3, #24]
 8002588:	43a9      	bics	r1, r5
 800258a:	000d      	movs	r5, r1
 800258c:	0101      	lsls	r1, r0, #4
 800258e:	4329      	orrs	r1, r5
 8002590:	6219      	str	r1, [r3, #32]
 8002592:	e7cc      	b.n	800252e <HAL_TIM_SlaveConfigSynchronization+0x52>
 8002594:	6a1c      	ldr	r4, [r3, #32]
 8002596:	6a1e      	ldr	r6, [r3, #32]
 8002598:	6888      	ldr	r0, [r1, #8]
 800259a:	43ae      	bics	r6, r5
 800259c:	6909      	ldr	r1, [r1, #16]
 800259e:	621e      	str	r6, [r3, #32]
 80025a0:	26f0      	movs	r6, #240	; 0xf0
 80025a2:	699d      	ldr	r5, [r3, #24]
 80025a4:	0109      	lsls	r1, r1, #4
 80025a6:	43b5      	bics	r5, r6
 80025a8:	4329      	orrs	r1, r5
 80025aa:	250a      	movs	r5, #10
 80025ac:	43ac      	bics	r4, r5
 80025ae:	4320      	orrs	r0, r4
 80025b0:	6199      	str	r1, [r3, #24]
 80025b2:	6218      	str	r0, [r3, #32]
 80025b4:	e7bb      	b.n	800252e <HAL_TIM_SlaveConfigSynchronization+0x52>
 80025b6:	46c0      	nop			; (mov r8, r8)
 80025b8:	ffff00ff 	.word	0xffff00ff
 80025bc:	ffffbfff 	.word	0xffffbfff
 80025c0:	ffff0fff 	.word	0xffff0fff

080025c4 <HAL_TIM_OC_DelayElapsedCallback>:
 80025c4:	4770      	bx	lr
 80025c6:	46c0      	nop			; (mov r8, r8)

080025c8 <HAL_TIM_IC_CaptureCallback>:
 80025c8:	4770      	bx	lr
 80025ca:	46c0      	nop			; (mov r8, r8)

080025cc <TIM_DMACaptureCplt>:
 80025cc:	223d      	movs	r2, #61	; 0x3d
 80025ce:	2301      	movs	r3, #1
 80025d0:	b510      	push	{r4, lr}
 80025d2:	6a44      	ldr	r4, [r0, #36]	; 0x24
 80025d4:	54a3      	strb	r3, [r4, r2]
 80025d6:	6a62      	ldr	r2, [r4, #36]	; 0x24
 80025d8:	4290      	cmp	r0, r2
 80025da:	d00f      	beq.n	80025fc <TIM_DMACaptureCplt+0x30>
 80025dc:	6aa3      	ldr	r3, [r4, #40]	; 0x28
 80025de:	4298      	cmp	r0, r3
 80025e0:	d00e      	beq.n	8002600 <TIM_DMACaptureCplt+0x34>
 80025e2:	6ae3      	ldr	r3, [r4, #44]	; 0x2c
 80025e4:	4298      	cmp	r0, r3
 80025e6:	d00e      	beq.n	8002606 <TIM_DMACaptureCplt+0x3a>
 80025e8:	6b23      	ldr	r3, [r4, #48]	; 0x30
 80025ea:	4298      	cmp	r0, r3
 80025ec:	d005      	beq.n	80025fa <TIM_DMACaptureCplt+0x2e>
 80025ee:	0020      	movs	r0, r4
 80025f0:	f7ff ffea 	bl	80025c8 <HAL_TIM_IC_CaptureCallback>
 80025f4:	2300      	movs	r3, #0
 80025f6:	7723      	strb	r3, [r4, #28]
 80025f8:	bd10      	pop	{r4, pc}
 80025fa:	2308      	movs	r3, #8
 80025fc:	7723      	strb	r3, [r4, #28]
 80025fe:	e7f6      	b.n	80025ee <TIM_DMACaptureCplt+0x22>
 8002600:	2302      	movs	r3, #2
 8002602:	7723      	strb	r3, [r4, #28]
 8002604:	e7f3      	b.n	80025ee <TIM_DMACaptureCplt+0x22>
 8002606:	2304      	movs	r3, #4
 8002608:	7723      	strb	r3, [r4, #28]
 800260a:	e7f0      	b.n	80025ee <TIM_DMACaptureCplt+0x22>

0800260c <HAL_TIM_PWM_PulseFinishedCallback>:
 800260c:	4770      	bx	lr
 800260e:	46c0      	nop			; (mov r8, r8)

08002610 <HAL_TIM_TriggerCallback>:
 8002610:	4770      	bx	lr
 8002612:	46c0      	nop			; (mov r8, r8)

08002614 <HAL_TIM_IRQHandler>:
 8002614:	2202      	movs	r2, #2
 8002616:	6803      	ldr	r3, [r0, #0]
 8002618:	b510      	push	{r4, lr}
 800261a:	6919      	ldr	r1, [r3, #16]
 800261c:	0004      	movs	r4, r0
 800261e:	420a      	tst	r2, r1
 8002620:	d002      	beq.n	8002628 <HAL_TIM_IRQHandler+0x14>
 8002622:	68d9      	ldr	r1, [r3, #12]
 8002624:	420a      	tst	r2, r1
 8002626:	d168      	bne.n	80026fa <HAL_TIM_IRQHandler+0xe6>
 8002628:	2204      	movs	r2, #4
 800262a:	6919      	ldr	r1, [r3, #16]
 800262c:	420a      	tst	r2, r1
 800262e:	d002      	beq.n	8002636 <HAL_TIM_IRQHandler+0x22>
 8002630:	68d9      	ldr	r1, [r3, #12]
 8002632:	420a      	tst	r2, r1
 8002634:	d14e      	bne.n	80026d4 <HAL_TIM_IRQHandler+0xc0>
 8002636:	2208      	movs	r2, #8
 8002638:	6919      	ldr	r1, [r3, #16]
 800263a:	420a      	tst	r2, r1
 800263c:	d002      	beq.n	8002644 <HAL_TIM_IRQHandler+0x30>
 800263e:	68d9      	ldr	r1, [r3, #12]
 8002640:	420a      	tst	r2, r1
 8002642:	d136      	bne.n	80026b2 <HAL_TIM_IRQHandler+0x9e>
 8002644:	2210      	movs	r2, #16
 8002646:	6919      	ldr	r1, [r3, #16]
 8002648:	420a      	tst	r2, r1
 800264a:	d002      	beq.n	8002652 <HAL_TIM_IRQHandler+0x3e>
 800264c:	68d9      	ldr	r1, [r3, #12]
 800264e:	420a      	tst	r2, r1
 8002650:	d11c      	bne.n	800268c <HAL_TIM_IRQHandler+0x78>
 8002652:	2201      	movs	r2, #1
 8002654:	6919      	ldr	r1, [r3, #16]
 8002656:	420a      	tst	r2, r1
 8002658:	d002      	beq.n	8002660 <HAL_TIM_IRQHandler+0x4c>
 800265a:	68d9      	ldr	r1, [r3, #12]
 800265c:	420a      	tst	r2, r1
 800265e:	d169      	bne.n	8002734 <HAL_TIM_IRQHandler+0x120>
 8002660:	2280      	movs	r2, #128	; 0x80
 8002662:	6919      	ldr	r1, [r3, #16]
 8002664:	420a      	tst	r2, r1
 8002666:	d002      	beq.n	800266e <HAL_TIM_IRQHandler+0x5a>
 8002668:	68d9      	ldr	r1, [r3, #12]
 800266a:	420a      	tst	r2, r1
 800266c:	d169      	bne.n	8002742 <HAL_TIM_IRQHandler+0x12e>
 800266e:	2240      	movs	r2, #64	; 0x40
 8002670:	6919      	ldr	r1, [r3, #16]
 8002672:	420a      	tst	r2, r1
 8002674:	d002      	beq.n	800267c <HAL_TIM_IRQHandler+0x68>
 8002676:	68d9      	ldr	r1, [r3, #12]
 8002678:	420a      	tst	r2, r1
 800267a:	d154      	bne.n	8002726 <HAL_TIM_IRQHandler+0x112>
 800267c:	2220      	movs	r2, #32
 800267e:	6919      	ldr	r1, [r3, #16]
 8002680:	420a      	tst	r2, r1
 8002682:	d002      	beq.n	800268a <HAL_TIM_IRQHandler+0x76>
 8002684:	68d9      	ldr	r1, [r3, #12]
 8002686:	420a      	tst	r2, r1
 8002688:	d147      	bne.n	800271a <HAL_TIM_IRQHandler+0x106>
 800268a:	bd10      	pop	{r4, pc}
 800268c:	3a21      	subs	r2, #33	; 0x21
 800268e:	611a      	str	r2, [r3, #16]
 8002690:	3219      	adds	r2, #25
 8002692:	7722      	strb	r2, [r4, #28]
 8002694:	69da      	ldr	r2, [r3, #28]
 8002696:	23c0      	movs	r3, #192	; 0xc0
 8002698:	009b      	lsls	r3, r3, #2
 800269a:	0020      	movs	r0, r4
 800269c:	421a      	tst	r2, r3
 800269e:	d15b      	bne.n	8002758 <HAL_TIM_IRQHandler+0x144>
 80026a0:	f7ff ff90 	bl	80025c4 <HAL_TIM_OC_DelayElapsedCallback>
 80026a4:	0020      	movs	r0, r4
 80026a6:	f7ff ffb1 	bl	800260c <HAL_TIM_PWM_PulseFinishedCallback>
 80026aa:	2300      	movs	r3, #0
 80026ac:	7723      	strb	r3, [r4, #28]
 80026ae:	6823      	ldr	r3, [r4, #0]
 80026b0:	e7cf      	b.n	8002652 <HAL_TIM_IRQHandler+0x3e>
 80026b2:	3a11      	subs	r2, #17
 80026b4:	611a      	str	r2, [r3, #16]
 80026b6:	69db      	ldr	r3, [r3, #28]
 80026b8:	320d      	adds	r2, #13
 80026ba:	7722      	strb	r2, [r4, #28]
 80026bc:	0020      	movs	r0, r4
 80026be:	079b      	lsls	r3, r3, #30
 80026c0:	d150      	bne.n	8002764 <HAL_TIM_IRQHandler+0x150>
 80026c2:	f7ff ff7f 	bl	80025c4 <HAL_TIM_OC_DelayElapsedCallback>
 80026c6:	0020      	movs	r0, r4
 80026c8:	f7ff ffa0 	bl	800260c <HAL_TIM_PWM_PulseFinishedCallback>
 80026cc:	2300      	movs	r3, #0
 80026ce:	7723      	strb	r3, [r4, #28]
 80026d0:	6823      	ldr	r3, [r4, #0]
 80026d2:	e7b7      	b.n	8002644 <HAL_TIM_IRQHandler+0x30>
 80026d4:	3a09      	subs	r2, #9
 80026d6:	611a      	str	r2, [r3, #16]
 80026d8:	3207      	adds	r2, #7
 80026da:	7722      	strb	r2, [r4, #28]
 80026dc:	699a      	ldr	r2, [r3, #24]
 80026de:	23c0      	movs	r3, #192	; 0xc0
 80026e0:	009b      	lsls	r3, r3, #2
 80026e2:	0020      	movs	r0, r4
 80026e4:	421a      	tst	r2, r3
 80026e6:	d13a      	bne.n	800275e <HAL_TIM_IRQHandler+0x14a>
 80026e8:	f7ff ff6c 	bl	80025c4 <HAL_TIM_OC_DelayElapsedCallback>
 80026ec:	0020      	movs	r0, r4
 80026ee:	f7ff ff8d 	bl	800260c <HAL_TIM_PWM_PulseFinishedCallback>
 80026f2:	2300      	movs	r3, #0
 80026f4:	7723      	strb	r3, [r4, #28]
 80026f6:	6823      	ldr	r3, [r4, #0]
 80026f8:	e79d      	b.n	8002636 <HAL_TIM_IRQHandler+0x22>
 80026fa:	3a05      	subs	r2, #5
 80026fc:	611a      	str	r2, [r3, #16]
 80026fe:	699b      	ldr	r3, [r3, #24]
 8002700:	3204      	adds	r2, #4
 8002702:	7702      	strb	r2, [r0, #28]
 8002704:	079b      	lsls	r3, r3, #30
 8002706:	d124      	bne.n	8002752 <HAL_TIM_IRQHandler+0x13e>
 8002708:	f7ff ff5c 	bl	80025c4 <HAL_TIM_OC_DelayElapsedCallback>
 800270c:	0020      	movs	r0, r4
 800270e:	f7ff ff7d 	bl	800260c <HAL_TIM_PWM_PulseFinishedCallback>
 8002712:	2300      	movs	r3, #0
 8002714:	7723      	strb	r3, [r4, #28]
 8002716:	6823      	ldr	r3, [r4, #0]
 8002718:	e786      	b.n	8002628 <HAL_TIM_IRQHandler+0x14>
 800271a:	3a41      	subs	r2, #65	; 0x41
 800271c:	611a      	str	r2, [r3, #16]
 800271e:	0020      	movs	r0, r4
 8002720:	f000 f89e 	bl	8002860 <HAL_TIMEx_CommutationCallback>
 8002724:	e7b1      	b.n	800268a <HAL_TIM_IRQHandler+0x76>
 8002726:	3a81      	subs	r2, #129	; 0x81
 8002728:	611a      	str	r2, [r3, #16]
 800272a:	0020      	movs	r0, r4
 800272c:	f7ff ff70 	bl	8002610 <HAL_TIM_TriggerCallback>
 8002730:	6823      	ldr	r3, [r4, #0]
 8002732:	e7a3      	b.n	800267c <HAL_TIM_IRQHandler+0x68>
 8002734:	3a03      	subs	r2, #3
 8002736:	611a      	str	r2, [r3, #16]
 8002738:	0020      	movs	r0, r4
 800273a:	f001 fb27 	bl	8003d8c <HAL_TIM_PeriodElapsedCallback>
 800273e:	6823      	ldr	r3, [r4, #0]
 8002740:	e78e      	b.n	8002660 <HAL_TIM_IRQHandler+0x4c>
 8002742:	3a02      	subs	r2, #2
 8002744:	3aff      	subs	r2, #255	; 0xff
 8002746:	611a      	str	r2, [r3, #16]
 8002748:	0020      	movs	r0, r4
 800274a:	f000 f88b 	bl	8002864 <HAL_TIMEx_BreakCallback>
 800274e:	6823      	ldr	r3, [r4, #0]
 8002750:	e78d      	b.n	800266e <HAL_TIM_IRQHandler+0x5a>
 8002752:	f7ff ff39 	bl	80025c8 <HAL_TIM_IC_CaptureCallback>
 8002756:	e7dc      	b.n	8002712 <HAL_TIM_IRQHandler+0xfe>
 8002758:	f7ff ff36 	bl	80025c8 <HAL_TIM_IC_CaptureCallback>
 800275c:	e7a5      	b.n	80026aa <HAL_TIM_IRQHandler+0x96>
 800275e:	f7ff ff33 	bl	80025c8 <HAL_TIM_IC_CaptureCallback>
 8002762:	e7c6      	b.n	80026f2 <HAL_TIM_IRQHandler+0xde>
 8002764:	f7ff ff30 	bl	80025c8 <HAL_TIM_IC_CaptureCallback>
 8002768:	e7b0      	b.n	80026cc <HAL_TIM_IRQHandler+0xb8>
 800276a:	46c0      	nop			; (mov r8, r8)

0800276c <HAL_TIM_ErrorCallback>:
 800276c:	4770      	bx	lr
 800276e:	46c0      	nop			; (mov r8, r8)

08002770 <TIM_DMAError>:
 8002770:	2201      	movs	r2, #1
 8002772:	233d      	movs	r3, #61	; 0x3d
 8002774:	b510      	push	{r4, lr}
 8002776:	6a40      	ldr	r0, [r0, #36]	; 0x24
 8002778:	54c2      	strb	r2, [r0, r3]
 800277a:	f7ff fff7 	bl	800276c <HAL_TIM_ErrorCallback>
 800277e:	bd10      	pop	{r4, pc}

08002780 <HAL_TIMEx_PWMN_Start>:
 8002780:	2204      	movs	r2, #4
 8002782:	408a      	lsls	r2, r1
 8002784:	6803      	ldr	r3, [r0, #0]
 8002786:	6a19      	ldr	r1, [r3, #32]
 8002788:	2000      	movs	r0, #0
 800278a:	4391      	bics	r1, r2
 800278c:	6219      	str	r1, [r3, #32]
 800278e:	6a19      	ldr	r1, [r3, #32]
 8002790:	430a      	orrs	r2, r1
 8002792:	621a      	str	r2, [r3, #32]
 8002794:	2280      	movs	r2, #128	; 0x80
 8002796:	6c59      	ldr	r1, [r3, #68]	; 0x44
 8002798:	0212      	lsls	r2, r2, #8
 800279a:	430a      	orrs	r2, r1
 800279c:	2101      	movs	r1, #1
 800279e:	645a      	str	r2, [r3, #68]	; 0x44
 80027a0:	681a      	ldr	r2, [r3, #0]
 80027a2:	430a      	orrs	r2, r1
 80027a4:	601a      	str	r2, [r3, #0]
 80027a6:	4770      	bx	lr

080027a8 <HAL_TIMEx_MasterConfigSynchronization>:
 80027a8:	b570      	push	{r4, r5, r6, lr}
 80027aa:	243c      	movs	r4, #60	; 0x3c
 80027ac:	5d03      	ldrb	r3, [r0, r4]
 80027ae:	0002      	movs	r2, r0
 80027b0:	2002      	movs	r0, #2
 80027b2:	2b01      	cmp	r3, #1
 80027b4:	d017      	beq.n	80027e6 <HAL_TIMEx_MasterConfigSynchronization+0x3e>
 80027b6:	253d      	movs	r5, #61	; 0x3d
 80027b8:	2670      	movs	r6, #112	; 0x70
 80027ba:	6813      	ldr	r3, [r2, #0]
 80027bc:	5550      	strb	r0, [r2, r5]
 80027be:	6858      	ldr	r0, [r3, #4]
 80027c0:	43b0      	bics	r0, r6
 80027c2:	6058      	str	r0, [r3, #4]
 80027c4:	6858      	ldr	r0, [r3, #4]
 80027c6:	680e      	ldr	r6, [r1, #0]
 80027c8:	6849      	ldr	r1, [r1, #4]
 80027ca:	4330      	orrs	r0, r6
 80027cc:	2680      	movs	r6, #128	; 0x80
 80027ce:	6058      	str	r0, [r3, #4]
 80027d0:	6898      	ldr	r0, [r3, #8]
 80027d2:	43b0      	bics	r0, r6
 80027d4:	6098      	str	r0, [r3, #8]
 80027d6:	6898      	ldr	r0, [r3, #8]
 80027d8:	4301      	orrs	r1, r0
 80027da:	6099      	str	r1, [r3, #8]
 80027dc:	2301      	movs	r3, #1
 80027de:	5553      	strb	r3, [r2, r5]
 80027e0:	2300      	movs	r3, #0
 80027e2:	2000      	movs	r0, #0
 80027e4:	5513      	strb	r3, [r2, r4]
 80027e6:	bd70      	pop	{r4, r5, r6, pc}

080027e8 <HAL_TIMEx_ConfigBreakDeadTime>:
 80027e8:	b530      	push	{r4, r5, lr}
 80027ea:	243c      	movs	r4, #60	; 0x3c
 80027ec:	5d03      	ldrb	r3, [r0, r4]
 80027ee:	0002      	movs	r2, r0
 80027f0:	2002      	movs	r0, #2
 80027f2:	2b01      	cmp	r3, #1
 80027f4:	d024      	beq.n	8002840 <HAL_TIMEx_ConfigBreakDeadTime+0x58>
 80027f6:	253d      	movs	r5, #61	; 0x3d
 80027f8:	4b12      	ldr	r3, [pc, #72]	; (8002844 <HAL_TIMEx_ConfigBreakDeadTime+0x5c>)
 80027fa:	5550      	strb	r0, [r2, r5]
 80027fc:	68c8      	ldr	r0, [r1, #12]
 80027fe:	4003      	ands	r3, r0
 8002800:	6888      	ldr	r0, [r1, #8]
 8002802:	4303      	orrs	r3, r0
 8002804:	4810      	ldr	r0, [pc, #64]	; (8002848 <HAL_TIMEx_ConfigBreakDeadTime+0x60>)
 8002806:	4003      	ands	r3, r0
 8002808:	6848      	ldr	r0, [r1, #4]
 800280a:	4303      	orrs	r3, r0
 800280c:	480f      	ldr	r0, [pc, #60]	; (800284c <HAL_TIMEx_ConfigBreakDeadTime+0x64>)
 800280e:	4003      	ands	r3, r0
 8002810:	6808      	ldr	r0, [r1, #0]
 8002812:	4303      	orrs	r3, r0
 8002814:	480e      	ldr	r0, [pc, #56]	; (8002850 <HAL_TIMEx_ConfigBreakDeadTime+0x68>)
 8002816:	4003      	ands	r3, r0
 8002818:	6908      	ldr	r0, [r1, #16]
 800281a:	4303      	orrs	r3, r0
 800281c:	480d      	ldr	r0, [pc, #52]	; (8002854 <HAL_TIMEx_ConfigBreakDeadTime+0x6c>)
 800281e:	4003      	ands	r3, r0
 8002820:	6948      	ldr	r0, [r1, #20]
 8002822:	6989      	ldr	r1, [r1, #24]
 8002824:	4303      	orrs	r3, r0
 8002826:	480c      	ldr	r0, [pc, #48]	; (8002858 <HAL_TIMEx_ConfigBreakDeadTime+0x70>)
 8002828:	4003      	ands	r3, r0
 800282a:	480c      	ldr	r0, [pc, #48]	; (800285c <HAL_TIMEx_ConfigBreakDeadTime+0x74>)
 800282c:	430b      	orrs	r3, r1
 800282e:	4003      	ands	r3, r0
 8002830:	430b      	orrs	r3, r1
 8002832:	6811      	ldr	r1, [r2, #0]
 8002834:	2000      	movs	r0, #0
 8002836:	644b      	str	r3, [r1, #68]	; 0x44
 8002838:	2301      	movs	r3, #1
 800283a:	5553      	strb	r3, [r2, r5]
 800283c:	2300      	movs	r3, #0
 800283e:	5513      	strb	r3, [r2, r4]
 8002840:	bd30      	pop	{r4, r5, pc}
 8002842:	46c0      	nop			; (mov r8, r8)
 8002844:	fffffcff 	.word	0xfffffcff
 8002848:	fffffbff 	.word	0xfffffbff
 800284c:	fffff7ff 	.word	0xfffff7ff
 8002850:	ffffefff 	.word	0xffffefff
 8002854:	ffffdfff 	.word	0xffffdfff
 8002858:	ffffbfff 	.word	0xffffbfff
 800285c:	ffff7fff 	.word	0xffff7fff

08002860 <HAL_TIMEx_CommutationCallback>:
 8002860:	4770      	bx	lr
 8002862:	46c0      	nop			; (mov r8, r8)

08002864 <HAL_TIMEx_BreakCallback>:
 8002864:	4770      	bx	lr
 8002866:	46c0      	nop			; (mov r8, r8)

08002868 <LL_GPIO_Init>:
 8002868:	b5f0      	push	{r4, r5, r6, r7, lr}
 800286a:	46de      	mov	lr, fp
 800286c:	464e      	mov	r6, r9
 800286e:	4657      	mov	r7, sl
 8002870:	4645      	mov	r5, r8
 8002872:	b5e0      	push	{r5, r6, r7, lr}
 8002874:	680e      	ldr	r6, [r1, #0]
 8002876:	468b      	mov	fp, r1
 8002878:	2e00      	cmp	r6, #0
 800287a:	d100      	bne.n	800287e <LL_GPIO_Init+0x16>
 800287c:	e073      	b.n	8002966 <LL_GPIO_Init+0xfe>
 800287e:	684b      	ldr	r3, [r1, #4]
 8002880:	2200      	movs	r2, #0
 8002882:	469c      	mov	ip, r3
 8002884:	2301      	movs	r3, #1
 8002886:	425b      	negs	r3, r3
 8002888:	4463      	add	r3, ip
 800288a:	4698      	mov	r8, r3
 800288c:	e00a      	b.n	80028a4 <LL_GPIO_Init+0x3c>
 800288e:	4659      	mov	r1, fp
 8002890:	6909      	ldr	r1, [r1, #16]
 8002892:	68c3      	ldr	r3, [r0, #12]
 8002894:	434d      	muls	r5, r1
 8002896:	401c      	ands	r4, r3
 8002898:	432c      	orrs	r4, r5
 800289a:	60c4      	str	r4, [r0, #12]
 800289c:	0033      	movs	r3, r6
 800289e:	3201      	adds	r2, #1
 80028a0:	40d3      	lsrs	r3, r2
 80028a2:	d042      	beq.n	800292a <LL_GPIO_Init+0xc2>
 80028a4:	2301      	movs	r3, #1
 80028a6:	4093      	lsls	r3, r2
 80028a8:	4033      	ands	r3, r6
 80028aa:	d0f7      	beq.n	800289c <LL_GPIO_Init+0x34>
 80028ac:	001d      	movs	r5, r3
 80028ae:	6804      	ldr	r4, [r0, #0]
 80028b0:	435d      	muls	r5, r3
 80028b2:	46a1      	mov	r9, r4
 80028b4:	006c      	lsls	r4, r5, #1
 80028b6:	1964      	adds	r4, r4, r5
 80028b8:	464f      	mov	r7, r9
 80028ba:	43e4      	mvns	r4, r4
 80028bc:	4027      	ands	r7, r4
 80028be:	46b9      	mov	r9, r7
 80028c0:	4667      	mov	r7, ip
 80028c2:	436f      	muls	r7, r5
 80028c4:	46ba      	mov	sl, r7
 80028c6:	464f      	mov	r7, r9
 80028c8:	4651      	mov	r1, sl
 80028ca:	430f      	orrs	r7, r1
 80028cc:	4641      	mov	r1, r8
 80028ce:	6007      	str	r7, [r0, #0]
 80028d0:	2901      	cmp	r1, #1
 80028d2:	d8dc      	bhi.n	800288e <LL_GPIO_Init+0x26>
 80028d4:	6881      	ldr	r1, [r0, #8]
 80028d6:	468a      	mov	sl, r1
 80028d8:	4659      	mov	r1, fp
 80028da:	6889      	ldr	r1, [r1, #8]
 80028dc:	4369      	muls	r1, r5
 80028de:	4689      	mov	r9, r1
 80028e0:	4651      	mov	r1, sl
 80028e2:	4021      	ands	r1, r4
 80028e4:	468a      	mov	sl, r1
 80028e6:	4649      	mov	r1, r9
 80028e8:	4657      	mov	r7, sl
 80028ea:	4339      	orrs	r1, r7
 80028ec:	6081      	str	r1, [r0, #8]
 80028ee:	68c1      	ldr	r1, [r0, #12]
 80028f0:	468a      	mov	sl, r1
 80028f2:	4659      	mov	r1, fp
 80028f4:	6909      	ldr	r1, [r1, #16]
 80028f6:	4369      	muls	r1, r5
 80028f8:	4689      	mov	r9, r1
 80028fa:	4651      	mov	r1, sl
 80028fc:	400c      	ands	r4, r1
 80028fe:	4649      	mov	r1, r9
 8002900:	430c      	orrs	r4, r1
 8002902:	4661      	mov	r1, ip
 8002904:	60c4      	str	r4, [r0, #12]
 8002906:	2902      	cmp	r1, #2
 8002908:	d1c8      	bne.n	800289c <LL_GPIO_Init+0x34>
 800290a:	2bff      	cmp	r3, #255	; 0xff
 800290c:	d81e      	bhi.n	800294c <LL_GPIO_Init+0xe4>
 800290e:	4659      	mov	r1, fp
 8002910:	436d      	muls	r5, r5
 8002912:	6949      	ldr	r1, [r1, #20]
 8002914:	012c      	lsls	r4, r5, #4
 8002916:	1b64      	subs	r4, r4, r5
 8002918:	434d      	muls	r5, r1
 800291a:	6a03      	ldr	r3, [r0, #32]
 800291c:	3201      	adds	r2, #1
 800291e:	43a3      	bics	r3, r4
 8002920:	431d      	orrs	r5, r3
 8002922:	0033      	movs	r3, r6
 8002924:	6205      	str	r5, [r0, #32]
 8002926:	40d3      	lsrs	r3, r2
 8002928:	d1bc      	bne.n	80028a4 <LL_GPIO_Init+0x3c>
 800292a:	4643      	mov	r3, r8
 800292c:	2b01      	cmp	r3, #1
 800292e:	d806      	bhi.n	800293e <LL_GPIO_Init+0xd6>
 8002930:	465a      	mov	r2, fp
 8002932:	6843      	ldr	r3, [r0, #4]
 8002934:	68d2      	ldr	r2, [r2, #12]
 8002936:	43b3      	bics	r3, r6
 8002938:	4356      	muls	r6, r2
 800293a:	431e      	orrs	r6, r3
 800293c:	6046      	str	r6, [r0, #4]
 800293e:	2001      	movs	r0, #1
 8002940:	bc3c      	pop	{r2, r3, r4, r5}
 8002942:	4690      	mov	r8, r2
 8002944:	4699      	mov	r9, r3
 8002946:	46a2      	mov	sl, r4
 8002948:	46ab      	mov	fp, r5
 800294a:	bdf0      	pop	{r4, r5, r6, r7, pc}
 800294c:	4659      	mov	r1, fp
 800294e:	0a1b      	lsrs	r3, r3, #8
 8002950:	435b      	muls	r3, r3
 8002952:	435b      	muls	r3, r3
 8002954:	6949      	ldr	r1, [r1, #20]
 8002956:	011d      	lsls	r5, r3, #4
 8002958:	1aed      	subs	r5, r5, r3
 800295a:	434b      	muls	r3, r1
 800295c:	6a44      	ldr	r4, [r0, #36]	; 0x24
 800295e:	43ac      	bics	r4, r5
 8002960:	4323      	orrs	r3, r4
 8002962:	6243      	str	r3, [r0, #36]	; 0x24
 8002964:	e79a      	b.n	800289c <LL_GPIO_Init+0x34>
 8002966:	684b      	ldr	r3, [r1, #4]
 8002968:	3b01      	subs	r3, #1
 800296a:	4698      	mov	r8, r3
 800296c:	e7dd      	b.n	800292a <LL_GPIO_Init+0xc2>
 800296e:	46c0      	nop			; (mov r8, r8)

08002970 <EE_Init>:
 8002970:	b5f0      	push	{r4, r5, r6, r7, lr}
 8002972:	4647      	mov	r7, r8
 8002974:	46ce      	mov	lr, r9
 8002976:	2500      	movs	r5, #0
 8002978:	2601      	movs	r6, #1
 800297a:	b580      	push	{r7, lr}
 800297c:	49a5      	ldr	r1, [pc, #660]	; (8002c14 <EE_Init+0x2a4>)
 800297e:	4fa6      	ldr	r7, [pc, #664]	; (8002c18 <EE_Init+0x2a8>)
 8002980:	880b      	ldrh	r3, [r1, #0]
 8002982:	48a6      	ldr	r0, [pc, #664]	; (8002c1c <EE_Init+0x2ac>)
 8002984:	883c      	ldrh	r4, [r7, #0]
 8002986:	b089      	sub	sp, #36	; 0x24
 8002988:	b29b      	uxth	r3, r3
 800298a:	9500      	str	r5, [sp, #0]
 800298c:	b2a4      	uxth	r4, r4
 800298e:	9502      	str	r5, [sp, #8]
 8002990:	9103      	str	r1, [sp, #12]
 8002992:	9604      	str	r6, [sp, #16]
 8002994:	4283      	cmp	r3, r0
 8002996:	d100      	bne.n	800299a <EE_Init+0x2a>
 8002998:	e096      	b.n	8002ac8 <EE_Init+0x158>
 800299a:	4aa1      	ldr	r2, [pc, #644]	; (8002c20 <EE_Init+0x2b0>)
 800299c:	4293      	cmp	r3, r2
 800299e:	d022      	beq.n	80029e6 <EE_Init+0x76>
 80029a0:	2b00      	cmp	r3, #0
 80029a2:	d03e      	beq.n	8002a22 <EE_Init+0xb2>
 80029a4:	a805      	add	r0, sp, #20
 80029a6:	9501      	str	r5, [sp, #4]
 80029a8:	9505      	str	r5, [sp, #20]
 80029aa:	6041      	str	r1, [r0, #4]
 80029ac:	6086      	str	r6, [r0, #8]
 80029ae:	4c9d      	ldr	r4, [pc, #628]	; (8002c24 <EE_Init+0x2b4>)
 80029b0:	e002      	b.n	80029b8 <EE_Init+0x48>
 80029b2:	3104      	adds	r1, #4
 80029b4:	42a1      	cmp	r1, r4
 80029b6:	d007      	beq.n	80029c8 <EE_Init+0x58>
 80029b8:	880b      	ldrh	r3, [r1, #0]
 80029ba:	4293      	cmp	r3, r2
 80029bc:	d0f9      	beq.n	80029b2 <EE_Init+0x42>
 80029be:	a901      	add	r1, sp, #4
 80029c0:	f7fe fb54 	bl	800106c <HAL_FLASHEx_Erase>
 80029c4:	2800      	cmp	r0, #0
 80029c6:	d12a      	bne.n	8002a1e <EE_Init+0xae>
 80029c8:	2200      	movs	r2, #0
 80029ca:	2300      	movs	r3, #0
 80029cc:	4991      	ldr	r1, [pc, #580]	; (8002c14 <EE_Init+0x2a4>)
 80029ce:	2001      	movs	r0, #1
 80029d0:	f7fe fa12 	bl	8000df8 <HAL_FLASH_Program>
 80029d4:	2800      	cmp	r0, #0
 80029d6:	d122      	bne.n	8002a1e <EE_Init+0xae>
 80029d8:	2400      	movs	r4, #0
 80029da:	0020      	movs	r0, r4
 80029dc:	b009      	add	sp, #36	; 0x24
 80029de:	bc0c      	pop	{r2, r3}
 80029e0:	4690      	mov	r8, r2
 80029e2:	4699      	mov	r9, r3
 80029e4:	bdf0      	pop	{r4, r5, r6, r7, pc}
 80029e6:	2c00      	cmp	r4, #0
 80029e8:	d100      	bne.n	80029ec <EE_Init+0x7c>
 80029ea:	e0a0      	b.n	8002b2e <EE_Init+0x1be>
 80029ec:	4284      	cmp	r4, r0
 80029ee:	d000      	beq.n	80029f2 <EE_Init+0x82>
 80029f0:	e101      	b.n	8002bf6 <EE_Init+0x286>
 80029f2:	488c      	ldr	r0, [pc, #560]	; (8002c24 <EE_Init+0x2b4>)
 80029f4:	e002      	b.n	80029fc <EE_Init+0x8c>
 80029f6:	3104      	adds	r1, #4
 80029f8:	4281      	cmp	r1, r0
 80029fa:	d008      	beq.n	8002a0e <EE_Init+0x9e>
 80029fc:	880a      	ldrh	r2, [r1, #0]
 80029fe:	429a      	cmp	r2, r3
 8002a00:	d0f9      	beq.n	80029f6 <EE_Init+0x86>
 8002a02:	4669      	mov	r1, sp
 8002a04:	a802      	add	r0, sp, #8
 8002a06:	f7fe fb31 	bl	800106c <HAL_FLASHEx_Erase>
 8002a0a:	2800      	cmp	r0, #0
 8002a0c:	d107      	bne.n	8002a1e <EE_Init+0xae>
 8002a0e:	2200      	movs	r2, #0
 8002a10:	2300      	movs	r3, #0
 8002a12:	4981      	ldr	r1, [pc, #516]	; (8002c18 <EE_Init+0x2a8>)
 8002a14:	2001      	movs	r0, #1
 8002a16:	f7fe f9ef 	bl	8000df8 <HAL_FLASH_Program>
 8002a1a:	2800      	cmp	r0, #0
 8002a1c:	d0dc      	beq.n	80029d8 <EE_Init+0x68>
 8002a1e:	b284      	uxth	r4, r0
 8002a20:	e7db      	b.n	80029da <EE_Init+0x6a>
 8002a22:	2c00      	cmp	r4, #0
 8002a24:	d100      	bne.n	8002a28 <EE_Init+0xb8>
 8002a26:	e092      	b.n	8002b4e <EE_Init+0x1de>
 8002a28:	4294      	cmp	r4, r2
 8002a2a:	d0d5      	beq.n	80029d8 <EE_Init+0x68>
 8002a2c:	2301      	movs	r3, #1
 8002a2e:	425b      	negs	r3, r3
 8002a30:	4698      	mov	r8, r3
 8002a32:	4b7d      	ldr	r3, [pc, #500]	; (8002c28 <EE_Init+0x2b8>)
 8002a34:	2600      	movs	r6, #0
 8002a36:	4699      	mov	r9, r3
 8002a38:	4f7c      	ldr	r7, [pc, #496]	; (8002c2c <EE_Init+0x2bc>)
 8002a3a:	4b7d      	ldr	r3, [pc, #500]	; (8002c30 <EE_Init+0x2c0>)
 8002a3c:	0072      	lsls	r2, r6, #1
 8002a3e:	881b      	ldrh	r3, [r3, #0]
 8002a40:	5abc      	ldrh	r4, [r7, r2]
 8002a42:	42a3      	cmp	r3, r4
 8002a44:	d100      	bne.n	8002a48 <EE_Init+0xd8>
 8002a46:	e0be      	b.n	8002bc6 <EE_Init+0x256>
 8002a48:	4546      	cmp	r6, r8
 8002a4a:	d01a      	beq.n	8002a82 <EE_Init+0x112>
 8002a4c:	4b71      	ldr	r3, [pc, #452]	; (8002c14 <EE_Init+0x2a4>)
 8002a4e:	881a      	ldrh	r2, [r3, #0]
 8002a50:	4b71      	ldr	r3, [pc, #452]	; (8002c18 <EE_Init+0x2a8>)
 8002a52:	881b      	ldrh	r3, [r3, #0]
 8002a54:	b29b      	uxth	r3, r3
 8002a56:	2a00      	cmp	r2, #0
 8002a58:	d100      	bne.n	8002a5c <EE_Init+0xec>
 8002a5a:	e0b7      	b.n	8002bcc <EE_Init+0x25c>
 8002a5c:	2b00      	cmp	r3, #0
 8002a5e:	d000      	beq.n	8002a62 <EE_Init+0xf2>
 8002a60:	e11f      	b.n	8002ca2 <EE_Init+0x332>
 8002a62:	4b74      	ldr	r3, [pc, #464]	; (8002c34 <EE_Init+0x2c4>)
 8002a64:	4974      	ldr	r1, [pc, #464]	; (8002c38 <EE_Init+0x2c8>)
 8002a66:	001a      	movs	r2, r3
 8002a68:	4874      	ldr	r0, [pc, #464]	; (8002c3c <EE_Init+0x2cc>)
 8002a6a:	881b      	ldrh	r3, [r3, #0]
 8002a6c:	429c      	cmp	r4, r3
 8002a6e:	d105      	bne.n	8002a7c <EE_Init+0x10c>
 8002a70:	e0ef      	b.n	8002c52 <EE_Init+0x2e2>
 8002a72:	8819      	ldrh	r1, [r3, #0]
 8002a74:	428c      	cmp	r4, r1
 8002a76:	d100      	bne.n	8002a7a <EE_Init+0x10a>
 8002a78:	e0ea      	b.n	8002c50 <EE_Init+0x2e0>
 8002a7a:	001a      	movs	r2, r3
 8002a7c:	1f13      	subs	r3, r2, #4
 8002a7e:	4283      	cmp	r3, r0
 8002a80:	d8f7      	bhi.n	8002a72 <EE_Init+0x102>
 8002a82:	3601      	adds	r6, #1
 8002a84:	2e03      	cmp	r6, #3
 8002a86:	d1d8      	bne.n	8002a3a <EE_Init+0xca>
 8002a88:	2200      	movs	r2, #0
 8002a8a:	2300      	movs	r3, #0
 8002a8c:	4962      	ldr	r1, [pc, #392]	; (8002c18 <EE_Init+0x2a8>)
 8002a8e:	2001      	movs	r0, #1
 8002a90:	f7fe f9b2 	bl	8000df8 <HAL_FLASH_Program>
 8002a94:	2800      	cmp	r0, #0
 8002a96:	d1c2      	bne.n	8002a1e <EE_Init+0xae>
 8002a98:	2201      	movs	r2, #1
 8002a9a:	4b5e      	ldr	r3, [pc, #376]	; (8002c14 <EE_Init+0x2a4>)
 8002a9c:	9002      	str	r0, [sp, #8]
 8002a9e:	9303      	str	r3, [sp, #12]
 8002aa0:	9204      	str	r2, [sp, #16]
 8002aa2:	495f      	ldr	r1, [pc, #380]	; (8002c20 <EE_Init+0x2b0>)
 8002aa4:	485f      	ldr	r0, [pc, #380]	; (8002c24 <EE_Init+0x2b4>)
 8002aa6:	e003      	b.n	8002ab0 <EE_Init+0x140>
 8002aa8:	3304      	adds	r3, #4
 8002aaa:	4283      	cmp	r3, r0
 8002aac:	d100      	bne.n	8002ab0 <EE_Init+0x140>
 8002aae:	e793      	b.n	80029d8 <EE_Init+0x68>
 8002ab0:	881a      	ldrh	r2, [r3, #0]
 8002ab2:	428a      	cmp	r2, r1
 8002ab4:	d0f8      	beq.n	8002aa8 <EE_Init+0x138>
 8002ab6:	4669      	mov	r1, sp
 8002ab8:	a802      	add	r0, sp, #8
 8002aba:	f7fe fad7 	bl	800106c <HAL_FLASHEx_Erase>
 8002abe:	2800      	cmp	r0, #0
 8002ac0:	d100      	bne.n	8002ac4 <EE_Init+0x154>
 8002ac2:	e789      	b.n	80029d8 <EE_Init+0x68>
 8002ac4:	b284      	uxth	r4, r0
 8002ac6:	e788      	b.n	80029da <EE_Init+0x6a>
 8002ac8:	2c00      	cmp	r4, #0
 8002aca:	d11d      	bne.n	8002b08 <EE_Init+0x198>
 8002acc:	2301      	movs	r3, #1
 8002ace:	2600      	movs	r6, #0
 8002ad0:	425b      	negs	r3, r3
 8002ad2:	4698      	mov	r8, r3
 8002ad4:	4b54      	ldr	r3, [pc, #336]	; (8002c28 <EE_Init+0x2b8>)
 8002ad6:	4f55      	ldr	r7, [pc, #340]	; (8002c2c <EE_Init+0x2bc>)
 8002ad8:	4699      	mov	r9, r3
 8002ada:	4b59      	ldr	r3, [pc, #356]	; (8002c40 <EE_Init+0x2d0>)
 8002adc:	0072      	lsls	r2, r6, #1
 8002ade:	881b      	ldrh	r3, [r3, #0]
 8002ae0:	5abc      	ldrh	r4, [r7, r2]
 8002ae2:	42a3      	cmp	r3, r4
 8002ae4:	d06c      	beq.n	8002bc0 <EE_Init+0x250>
 8002ae6:	4546      	cmp	r6, r8
 8002ae8:	d060      	beq.n	8002bac <EE_Init+0x23c>
 8002aea:	4b4a      	ldr	r3, [pc, #296]	; (8002c14 <EE_Init+0x2a4>)
 8002aec:	881a      	ldrh	r2, [r3, #0]
 8002aee:	4b4a      	ldr	r3, [pc, #296]	; (8002c18 <EE_Init+0x2a8>)
 8002af0:	881b      	ldrh	r3, [r3, #0]
 8002af2:	b29b      	uxth	r3, r3
 8002af4:	2a00      	cmp	r2, #0
 8002af6:	d06e      	beq.n	8002bd6 <EE_Init+0x266>
 8002af8:	2b00      	cmp	r3, #0
 8002afa:	d000      	beq.n	8002afe <EE_Init+0x18e>
 8002afc:	e0fc      	b.n	8002cf8 <EE_Init+0x388>
 8002afe:	4b4d      	ldr	r3, [pc, #308]	; (8002c34 <EE_Init+0x2c4>)
 8002b00:	494d      	ldr	r1, [pc, #308]	; (8002c38 <EE_Init+0x2c8>)
 8002b02:	001a      	movs	r2, r3
 8002b04:	484d      	ldr	r0, [pc, #308]	; (8002c3c <EE_Init+0x2cc>)
 8002b06:	e06a      	b.n	8002bde <EE_Init+0x26e>
 8002b08:	4a45      	ldr	r2, [pc, #276]	; (8002c20 <EE_Init+0x2b0>)
 8002b0a:	4294      	cmp	r4, r2
 8002b0c:	d100      	bne.n	8002b10 <EE_Init+0x1a0>
 8002b0e:	e0f6      	b.n	8002cfe <EE_Init+0x38e>
 8002b10:	a805      	add	r0, sp, #20
 8002b12:	9501      	str	r5, [sp, #4]
 8002b14:	9505      	str	r5, [sp, #20]
 8002b16:	6041      	str	r1, [r0, #4]
 8002b18:	6086      	str	r6, [r0, #8]
 8002b1a:	4c42      	ldr	r4, [pc, #264]	; (8002c24 <EE_Init+0x2b4>)
 8002b1c:	e003      	b.n	8002b26 <EE_Init+0x1b6>
 8002b1e:	3104      	adds	r1, #4
 8002b20:	42a1      	cmp	r1, r4
 8002b22:	d100      	bne.n	8002b26 <EE_Init+0x1b6>
 8002b24:	e750      	b.n	80029c8 <EE_Init+0x58>
 8002b26:	880b      	ldrh	r3, [r1, #0]
 8002b28:	4293      	cmp	r3, r2
 8002b2a:	d0f8      	beq.n	8002b1e <EE_Init+0x1ae>
 8002b2c:	e747      	b.n	80029be <EE_Init+0x4e>
 8002b2e:	483d      	ldr	r0, [pc, #244]	; (8002c24 <EE_Init+0x2b4>)
 8002b30:	e003      	b.n	8002b3a <EE_Init+0x1ca>
 8002b32:	3104      	adds	r1, #4
 8002b34:	4281      	cmp	r1, r0
 8002b36:	d100      	bne.n	8002b3a <EE_Init+0x1ca>
 8002b38:	e74e      	b.n	80029d8 <EE_Init+0x68>
 8002b3a:	880a      	ldrh	r2, [r1, #0]
 8002b3c:	429a      	cmp	r2, r3
 8002b3e:	d0f8      	beq.n	8002b32 <EE_Init+0x1c2>
 8002b40:	4669      	mov	r1, sp
 8002b42:	a802      	add	r0, sp, #8
 8002b44:	f7fe fa92 	bl	800106c <HAL_FLASHEx_Erase>
 8002b48:	2800      	cmp	r0, #0
 8002b4a:	d1bb      	bne.n	8002ac4 <EE_Init+0x154>
 8002b4c:	e744      	b.n	80029d8 <EE_Init+0x68>
 8002b4e:	a805      	add	r0, sp, #20
 8002b50:	9401      	str	r4, [sp, #4]
 8002b52:	9405      	str	r4, [sp, #20]
 8002b54:	6041      	str	r1, [r0, #4]
 8002b56:	6086      	str	r6, [r0, #8]
 8002b58:	4d32      	ldr	r5, [pc, #200]	; (8002c24 <EE_Init+0x2b4>)
 8002b5a:	e002      	b.n	8002b62 <EE_Init+0x1f2>
 8002b5c:	3104      	adds	r1, #4
 8002b5e:	42a9      	cmp	r1, r5
 8002b60:	d008      	beq.n	8002b74 <EE_Init+0x204>
 8002b62:	880b      	ldrh	r3, [r1, #0]
 8002b64:	4293      	cmp	r3, r2
 8002b66:	d0f9      	beq.n	8002b5c <EE_Init+0x1ec>
 8002b68:	a901      	add	r1, sp, #4
 8002b6a:	f7fe fa7f 	bl	800106c <HAL_FLASHEx_Erase>
 8002b6e:	2800      	cmp	r0, #0
 8002b70:	d000      	beq.n	8002b74 <EE_Init+0x204>
 8002b72:	e754      	b.n	8002a1e <EE_Init+0xae>
 8002b74:	2200      	movs	r2, #0
 8002b76:	2300      	movs	r3, #0
 8002b78:	4926      	ldr	r1, [pc, #152]	; (8002c14 <EE_Init+0x2a4>)
 8002b7a:	2001      	movs	r0, #1
 8002b7c:	f7fe f93c 	bl	8000df8 <HAL_FLASH_Program>
 8002b80:	2800      	cmp	r0, #0
 8002b82:	d100      	bne.n	8002b86 <EE_Init+0x216>
 8002b84:	e729      	b.n	80029da <EE_Init+0x6a>
 8002b86:	e74a      	b.n	8002a1e <EE_Init+0xae>
 8002b88:	2300      	movs	r3, #0
 8002b8a:	0029      	movs	r1, r5
 8002b8c:	2001      	movs	r0, #1
 8002b8e:	f7fe f933 	bl	8000df8 <HAL_FLASH_Program>
 8002b92:	2800      	cmp	r0, #0
 8002b94:	d000      	beq.n	8002b98 <EE_Init+0x228>
 8002b96:	e742      	b.n	8002a1e <EE_Init+0xae>
 8002b98:	0022      	movs	r2, r4
 8002b9a:	1ca9      	adds	r1, r5, #2
 8002b9c:	2300      	movs	r3, #0
 8002b9e:	2001      	movs	r0, #1
 8002ba0:	f7fe f92a 	bl	8000df8 <HAL_FLASH_Program>
 8002ba4:	b284      	uxth	r4, r0
 8002ba6:	2c00      	cmp	r4, #0
 8002ba8:	d000      	beq.n	8002bac <EE_Init+0x23c>
 8002baa:	e716      	b.n	80029da <EE_Init+0x6a>
 8002bac:	3601      	adds	r6, #1
 8002bae:	2e03      	cmp	r6, #3
 8002bb0:	d100      	bne.n	8002bb4 <EE_Init+0x244>
 8002bb2:	e709      	b.n	80029c8 <EE_Init+0x58>
 8002bb4:	4b22      	ldr	r3, [pc, #136]	; (8002c40 <EE_Init+0x2d0>)
 8002bb6:	0072      	lsls	r2, r6, #1
 8002bb8:	881b      	ldrh	r3, [r3, #0]
 8002bba:	5abc      	ldrh	r4, [r7, r2]
 8002bbc:	42a3      	cmp	r3, r4
 8002bbe:	d192      	bne.n	8002ae6 <EE_Init+0x176>
 8002bc0:	b233      	sxth	r3, r6
 8002bc2:	4698      	mov	r8, r3
 8002bc4:	e78f      	b.n	8002ae6 <EE_Init+0x176>
 8002bc6:	b233      	sxth	r3, r6
 8002bc8:	4698      	mov	r8, r3
 8002bca:	e73d      	b.n	8002a48 <EE_Init+0xd8>
 8002bcc:	4b1d      	ldr	r3, [pc, #116]	; (8002c44 <EE_Init+0x2d4>)
 8002bce:	491e      	ldr	r1, [pc, #120]	; (8002c48 <EE_Init+0x2d8>)
 8002bd0:	001a      	movs	r2, r3
 8002bd2:	481e      	ldr	r0, [pc, #120]	; (8002c4c <EE_Init+0x2dc>)
 8002bd4:	e749      	b.n	8002a6a <EE_Init+0xfa>
 8002bd6:	4b1b      	ldr	r3, [pc, #108]	; (8002c44 <EE_Init+0x2d4>)
 8002bd8:	491b      	ldr	r1, [pc, #108]	; (8002c48 <EE_Init+0x2d8>)
 8002bda:	001a      	movs	r2, r3
 8002bdc:	481b      	ldr	r0, [pc, #108]	; (8002c4c <EE_Init+0x2dc>)
 8002bde:	881b      	ldrh	r3, [r3, #0]
 8002be0:	429c      	cmp	r4, r3
 8002be2:	d104      	bne.n	8002bee <EE_Init+0x27e>
 8002be4:	e061      	b.n	8002caa <EE_Init+0x33a>
 8002be6:	8819      	ldrh	r1, [r3, #0]
 8002be8:	428c      	cmp	r4, r1
 8002bea:	d05d      	beq.n	8002ca8 <EE_Init+0x338>
 8002bec:	001a      	movs	r2, r3
 8002bee:	1f13      	subs	r3, r2, #4
 8002bf0:	4298      	cmp	r0, r3
 8002bf2:	d3f8      	bcc.n	8002be6 <EE_Init+0x276>
 8002bf4:	e7da      	b.n	8002bac <EE_Init+0x23c>
 8002bf6:	a805      	add	r0, sp, #20
 8002bf8:	9501      	str	r5, [sp, #4]
 8002bfa:	9505      	str	r5, [sp, #20]
 8002bfc:	6041      	str	r1, [r0, #4]
 8002bfe:	6086      	str	r6, [r0, #8]
 8002c00:	4c08      	ldr	r4, [pc, #32]	; (8002c24 <EE_Init+0x2b4>)
 8002c02:	e003      	b.n	8002c0c <EE_Init+0x29c>
 8002c04:	3104      	adds	r1, #4
 8002c06:	42a1      	cmp	r1, r4
 8002c08:	d100      	bne.n	8002c0c <EE_Init+0x29c>
 8002c0a:	e6dd      	b.n	80029c8 <EE_Init+0x58>
 8002c0c:	880a      	ldrh	r2, [r1, #0]
 8002c0e:	429a      	cmp	r2, r3
 8002c10:	d0f8      	beq.n	8002c04 <EE_Init+0x294>
 8002c12:	e6d4      	b.n	80029be <EE_Init+0x4e>
 8002c14:	08007000 	.word	0x08007000
 8002c18:	08007800 	.word	0x08007800
 8002c1c:	0000eeee 	.word	0x0000eeee
 8002c20:	0000ffff 	.word	0x0000ffff
 8002c24:	08007400 	.word	0x08007400
 8002c28:	20000084 	.word	0x20000084
 8002c2c:	20000004 	.word	0x20000004
 8002c30:	08007806 	.word	0x08007806
 8002c34:	0800f3fe 	.word	0x0800f3fe
 8002c38:	0800f3fc 	.word	0x0800f3fc
 8002c3c:	0800f002 	.word	0x0800f002
 8002c40:	08007006 	.word	0x08007006
 8002c44:	080073fe 	.word	0x080073fe
 8002c48:	080073fc 	.word	0x080073fc
 8002c4c:	08007002 	.word	0x08007002
 8002c50:	1f91      	subs	r1, r2, #6
 8002c52:	464b      	mov	r3, r9
 8002c54:	880a      	ldrh	r2, [r1, #0]
 8002c56:	b292      	uxth	r2, r2
 8002c58:	801a      	strh	r2, [r3, #0]
 8002c5a:	4d38      	ldr	r5, [pc, #224]	; (8002d3c <EE_Init+0x3cc>)
 8002c5c:	4b38      	ldr	r3, [pc, #224]	; (8002d40 <EE_Init+0x3d0>)
 8002c5e:	8828      	ldrh	r0, [r5, #0]
 8002c60:	881b      	ldrh	r3, [r3, #0]
 8002c62:	b280      	uxth	r0, r0
 8002c64:	b29b      	uxth	r3, r3
 8002c66:	2b00      	cmp	r3, #0
 8002c68:	d111      	bne.n	8002c8e <EE_Init+0x31e>
 8002c6a:	4b36      	ldr	r3, [pc, #216]	; (8002d44 <EE_Init+0x3d4>)
 8002c6c:	4298      	cmp	r0, r3
 8002c6e:	d013      	beq.n	8002c98 <EE_Init+0x328>
 8002c70:	4d35      	ldr	r5, [pc, #212]	; (8002d48 <EE_Init+0x3d8>)
 8002c72:	4936      	ldr	r1, [pc, #216]	; (8002d4c <EE_Init+0x3dc>)
 8002c74:	002b      	movs	r3, r5
 8002c76:	681b      	ldr	r3, [r3, #0]
 8002c78:	3301      	adds	r3, #1
 8002c7a:	d103      	bne.n	8002c84 <EE_Init+0x314>
 8002c7c:	e04a      	b.n	8002d14 <EE_Init+0x3a4>
 8002c7e:	682b      	ldr	r3, [r5, #0]
 8002c80:	3301      	adds	r3, #1
 8002c82:	d047      	beq.n	8002d14 <EE_Init+0x3a4>
 8002c84:	3504      	adds	r5, #4
 8002c86:	42a9      	cmp	r1, r5
 8002c88:	d8f9      	bhi.n	8002c7e <EE_Init+0x30e>
 8002c8a:	2480      	movs	r4, #128	; 0x80
 8002c8c:	e6a5      	b.n	80029da <EE_Init+0x6a>
 8002c8e:	2800      	cmp	r0, #0
 8002c90:	d105      	bne.n	8002c9e <EE_Init+0x32e>
 8002c92:	492c      	ldr	r1, [pc, #176]	; (8002d44 <EE_Init+0x3d4>)
 8002c94:	428b      	cmp	r3, r1
 8002c96:	d0eb      	beq.n	8002c70 <EE_Init+0x300>
 8002c98:	492d      	ldr	r1, [pc, #180]	; (8002d50 <EE_Init+0x3e0>)
 8002c9a:	002b      	movs	r3, r5
 8002c9c:	e7eb      	b.n	8002c76 <EE_Init+0x306>
 8002c9e:	24ab      	movs	r4, #171	; 0xab
 8002ca0:	e69b      	b.n	80029da <EE_Init+0x6a>
 8002ca2:	4b2c      	ldr	r3, [pc, #176]	; (8002d54 <EE_Init+0x3e4>)
 8002ca4:	881a      	ldrh	r2, [r3, #0]
 8002ca6:	e7d8      	b.n	8002c5a <EE_Init+0x2ea>
 8002ca8:	1f91      	subs	r1, r2, #6
 8002caa:	464b      	mov	r3, r9
 8002cac:	880a      	ldrh	r2, [r1, #0]
 8002cae:	b292      	uxth	r2, r2
 8002cb0:	801a      	strh	r2, [r3, #0]
 8002cb2:	4d22      	ldr	r5, [pc, #136]	; (8002d3c <EE_Init+0x3cc>)
 8002cb4:	4b22      	ldr	r3, [pc, #136]	; (8002d40 <EE_Init+0x3d0>)
 8002cb6:	8828      	ldrh	r0, [r5, #0]
 8002cb8:	881b      	ldrh	r3, [r3, #0]
 8002cba:	b280      	uxth	r0, r0
 8002cbc:	b29b      	uxth	r3, r3
 8002cbe:	2b00      	cmp	r3, #0
 8002cc0:	d013      	beq.n	8002cea <EE_Init+0x37a>
 8002cc2:	2800      	cmp	r0, #0
 8002cc4:	d1eb      	bne.n	8002c9e <EE_Init+0x32e>
 8002cc6:	491f      	ldr	r1, [pc, #124]	; (8002d44 <EE_Init+0x3d4>)
 8002cc8:	428b      	cmp	r3, r1
 8002cca:	d011      	beq.n	8002cf0 <EE_Init+0x380>
 8002ccc:	002b      	movs	r3, r5
 8002cce:	4920      	ldr	r1, [pc, #128]	; (8002d50 <EE_Init+0x3e0>)
 8002cd0:	681b      	ldr	r3, [r3, #0]
 8002cd2:	3301      	adds	r3, #1
 8002cd4:	d104      	bne.n	8002ce0 <EE_Init+0x370>
 8002cd6:	e757      	b.n	8002b88 <EE_Init+0x218>
 8002cd8:	682b      	ldr	r3, [r5, #0]
 8002cda:	3301      	adds	r3, #1
 8002cdc:	d100      	bne.n	8002ce0 <EE_Init+0x370>
 8002cde:	e753      	b.n	8002b88 <EE_Init+0x218>
 8002ce0:	3504      	adds	r5, #4
 8002ce2:	42a9      	cmp	r1, r5
 8002ce4:	d8f8      	bhi.n	8002cd8 <EE_Init+0x368>
 8002ce6:	2480      	movs	r4, #128	; 0x80
 8002ce8:	e677      	b.n	80029da <EE_Init+0x6a>
 8002cea:	4b16      	ldr	r3, [pc, #88]	; (8002d44 <EE_Init+0x3d4>)
 8002cec:	4298      	cmp	r0, r3
 8002cee:	d0ed      	beq.n	8002ccc <EE_Init+0x35c>
 8002cf0:	4d15      	ldr	r5, [pc, #84]	; (8002d48 <EE_Init+0x3d8>)
 8002cf2:	4916      	ldr	r1, [pc, #88]	; (8002d4c <EE_Init+0x3dc>)
 8002cf4:	002b      	movs	r3, r5
 8002cf6:	e7eb      	b.n	8002cd0 <EE_Init+0x360>
 8002cf8:	4b16      	ldr	r3, [pc, #88]	; (8002d54 <EE_Init+0x3e4>)
 8002cfa:	881a      	ldrh	r2, [r3, #0]
 8002cfc:	e7d9      	b.n	8002cb2 <EE_Init+0x342>
 8002cfe:	2200      	movs	r2, #0
 8002d00:	2300      	movs	r3, #0
 8002d02:	2001      	movs	r0, #1
 8002d04:	9703      	str	r7, [sp, #12]
 8002d06:	f7fe f877 	bl	8000df8 <HAL_FLASH_Program>
 8002d0a:	2800      	cmp	r0, #0
 8002d0c:	d100      	bne.n	8002d10 <EE_Init+0x3a0>
 8002d0e:	e663      	b.n	80029d8 <EE_Init+0x68>
 8002d10:	b284      	uxth	r4, r0
 8002d12:	e662      	b.n	80029da <EE_Init+0x6a>
 8002d14:	2300      	movs	r3, #0
 8002d16:	0029      	movs	r1, r5
 8002d18:	2001      	movs	r0, #1
 8002d1a:	f7fe f86d 	bl	8000df8 <HAL_FLASH_Program>
 8002d1e:	2800      	cmp	r0, #0
 8002d20:	d000      	beq.n	8002d24 <EE_Init+0x3b4>
 8002d22:	e67c      	b.n	8002a1e <EE_Init+0xae>
 8002d24:	0022      	movs	r2, r4
 8002d26:	1ca9      	adds	r1, r5, #2
 8002d28:	2300      	movs	r3, #0
 8002d2a:	2001      	movs	r0, #1
 8002d2c:	f7fe f864 	bl	8000df8 <HAL_FLASH_Program>
 8002d30:	b284      	uxth	r4, r0
 8002d32:	2c00      	cmp	r4, #0
 8002d34:	d100      	bne.n	8002d38 <EE_Init+0x3c8>
 8002d36:	e6a4      	b.n	8002a82 <EE_Init+0x112>
 8002d38:	e64f      	b.n	80029da <EE_Init+0x6a>
 8002d3a:	46c0      	nop			; (mov r8, r8)
 8002d3c:	08007000 	.word	0x08007000
 8002d40:	08007800 	.word	0x08007800
 8002d44:	0000eeee 	.word	0x0000eeee
 8002d48:	0800f000 	.word	0x0800f000
 8002d4c:	0800f3ff 	.word	0x0800f3ff
 8002d50:	080073ff 	.word	0x080073ff
 8002d54:	20000084 	.word	0x20000084

08002d58 <EE_ReadVariable>:
 8002d58:	4b13      	ldr	r3, [pc, #76]	; (8002da8 <EE_ReadVariable+0x50>)
 8002d5a:	b530      	push	{r4, r5, lr}
 8002d5c:	881a      	ldrh	r2, [r3, #0]
 8002d5e:	4b13      	ldr	r3, [pc, #76]	; (8002dac <EE_ReadVariable+0x54>)
 8002d60:	881b      	ldrh	r3, [r3, #0]
 8002d62:	b29b      	uxth	r3, r3
 8002d64:	2a00      	cmp	r2, #0
 8002d66:	d006      	beq.n	8002d76 <EE_ReadVariable+0x1e>
 8002d68:	2b00      	cmp	r3, #0
 8002d6a:	d115      	bne.n	8002d98 <EE_ReadVariable+0x40>
 8002d6c:	4a10      	ldr	r2, [pc, #64]	; (8002db0 <EE_ReadVariable+0x58>)
 8002d6e:	4c11      	ldr	r4, [pc, #68]	; (8002db4 <EE_ReadVariable+0x5c>)
 8002d70:	4d11      	ldr	r5, [pc, #68]	; (8002db8 <EE_ReadVariable+0x60>)
 8002d72:	0013      	movs	r3, r2
 8002d74:	e003      	b.n	8002d7e <EE_ReadVariable+0x26>
 8002d76:	4a11      	ldr	r2, [pc, #68]	; (8002dbc <EE_ReadVariable+0x64>)
 8002d78:	4c11      	ldr	r4, [pc, #68]	; (8002dc0 <EE_ReadVariable+0x68>)
 8002d7a:	0013      	movs	r3, r2
 8002d7c:	4d11      	ldr	r5, [pc, #68]	; (8002dc4 <EE_ReadVariable+0x6c>)
 8002d7e:	881b      	ldrh	r3, [r3, #0]
 8002d80:	4298      	cmp	r0, r3
 8002d82:	d104      	bne.n	8002d8e <EE_ReadVariable+0x36>
 8002d84:	e00b      	b.n	8002d9e <EE_ReadVariable+0x46>
 8002d86:	881c      	ldrh	r4, [r3, #0]
 8002d88:	4284      	cmp	r4, r0
 8002d8a:	d007      	beq.n	8002d9c <EE_ReadVariable+0x44>
 8002d8c:	001a      	movs	r2, r3
 8002d8e:	1f13      	subs	r3, r2, #4
 8002d90:	429d      	cmp	r5, r3
 8002d92:	d3f8      	bcc.n	8002d86 <EE_ReadVariable+0x2e>
 8002d94:	2001      	movs	r0, #1
 8002d96:	bd30      	pop	{r4, r5, pc}
 8002d98:	20ab      	movs	r0, #171	; 0xab
 8002d9a:	e7fc      	b.n	8002d96 <EE_ReadVariable+0x3e>
 8002d9c:	1f94      	subs	r4, r2, #6
 8002d9e:	8823      	ldrh	r3, [r4, #0]
 8002da0:	2000      	movs	r0, #0
 8002da2:	800b      	strh	r3, [r1, #0]
 8002da4:	e7f7      	b.n	8002d96 <EE_ReadVariable+0x3e>
 8002da6:	46c0      	nop			; (mov r8, r8)
 8002da8:	08007000 	.word	0x08007000
 8002dac:	08007800 	.word	0x08007800
 8002db0:	0800f3fe 	.word	0x0800f3fe
 8002db4:	0800f3fc 	.word	0x0800f3fc
 8002db8:	0800f002 	.word	0x0800f002
 8002dbc:	080073fe 	.word	0x080073fe
 8002dc0:	080073fc 	.word	0x080073fc
 8002dc4:	08007002 	.word	0x08007002

08002dc8 <EE_WriteVariable>:
 8002dc8:	b5f0      	push	{r4, r5, r6, r7, lr}
 8002dca:	464e      	mov	r6, r9
 8002dcc:	4645      	mov	r5, r8
 8002dce:	46de      	mov	lr, fp
 8002dd0:	4657      	mov	r7, sl
 8002dd2:	4b86      	ldr	r3, [pc, #536]	; (8002fec <EE_WriteVariable+0x224>)
 8002dd4:	b5e0      	push	{r5, r6, r7, lr}
 8002dd6:	4a86      	ldr	r2, [pc, #536]	; (8002ff0 <EE_WriteVariable+0x228>)
 8002dd8:	000d      	movs	r5, r1
 8002dda:	8819      	ldrh	r1, [r3, #0]
 8002ddc:	8812      	ldrh	r2, [r2, #0]
 8002dde:	b085      	sub	sp, #20
 8002de0:	b292      	uxth	r2, r2
 8002de2:	0006      	movs	r6, r0
 8002de4:	b289      	uxth	r1, r1
 8002de6:	2a00      	cmp	r2, #0
 8002de8:	d129      	bne.n	8002e3e <EE_WriteVariable+0x76>
 8002dea:	4a82      	ldr	r2, [pc, #520]	; (8002ff4 <EE_WriteVariable+0x22c>)
 8002dec:	4291      	cmp	r1, r2
 8002dee:	d02c      	beq.n	8002e4a <EE_WriteVariable+0x82>
 8002df0:	4b81      	ldr	r3, [pc, #516]	; (8002ff8 <EE_WriteVariable+0x230>)
 8002df2:	4a82      	ldr	r2, [pc, #520]	; (8002ffc <EE_WriteVariable+0x234>)
 8002df4:	001c      	movs	r4, r3
 8002df6:	681b      	ldr	r3, [r3, #0]
 8002df8:	3301      	adds	r3, #1
 8002dfa:	d103      	bne.n	8002e04 <EE_WriteVariable+0x3c>
 8002dfc:	e028      	b.n	8002e50 <EE_WriteVariable+0x88>
 8002dfe:	6823      	ldr	r3, [r4, #0]
 8002e00:	3301      	adds	r3, #1
 8002e02:	d025      	beq.n	8002e50 <EE_WriteVariable+0x88>
 8002e04:	3404      	adds	r4, #4
 8002e06:	42a2      	cmp	r2, r4
 8002e08:	d8f9      	bhi.n	8002dfe <EE_WriteVariable+0x36>
 8002e0a:	2300      	movs	r3, #0
 8002e0c:	4a77      	ldr	r2, [pc, #476]	; (8002fec <EE_WriteVariable+0x224>)
 8002e0e:	4c78      	ldr	r4, [pc, #480]	; (8002ff0 <EE_WriteVariable+0x228>)
 8002e10:	9300      	str	r3, [sp, #0]
 8002e12:	8811      	ldrh	r1, [r2, #0]
 8002e14:	8823      	ldrh	r3, [r4, #0]
 8002e16:	b29b      	uxth	r3, r3
 8002e18:	2900      	cmp	r1, #0
 8002e1a:	d125      	bne.n	8002e68 <EE_WriteVariable+0xa0>
 8002e1c:	4690      	mov	r8, r2
 8002e1e:	4a75      	ldr	r2, [pc, #468]	; (8002ff4 <EE_WriteVariable+0x22c>)
 8002e20:	2300      	movs	r3, #0
 8002e22:	0021      	movs	r1, r4
 8002e24:	2001      	movs	r0, #1
 8002e26:	f7fd ffe7 	bl	8000df8 <HAL_FLASH_Program>
 8002e2a:	2800      	cmp	r0, #0
 8002e2c:	d02a      	beq.n	8002e84 <EE_WriteVariable+0xbc>
 8002e2e:	b280      	uxth	r0, r0
 8002e30:	b005      	add	sp, #20
 8002e32:	bc3c      	pop	{r2, r3, r4, r5}
 8002e34:	4690      	mov	r8, r2
 8002e36:	4699      	mov	r9, r3
 8002e38:	46a2      	mov	sl, r4
 8002e3a:	46ab      	mov	fp, r5
 8002e3c:	bdf0      	pop	{r4, r5, r6, r7, pc}
 8002e3e:	20ab      	movs	r0, #171	; 0xab
 8002e40:	2900      	cmp	r1, #0
 8002e42:	d1f5      	bne.n	8002e30 <EE_WriteVariable+0x68>
 8002e44:	496b      	ldr	r1, [pc, #428]	; (8002ff4 <EE_WriteVariable+0x22c>)
 8002e46:	428a      	cmp	r2, r1
 8002e48:	d0d2      	beq.n	8002df0 <EE_WriteVariable+0x28>
 8002e4a:	001c      	movs	r4, r3
 8002e4c:	4a6c      	ldr	r2, [pc, #432]	; (8003000 <EE_WriteVariable+0x238>)
 8002e4e:	e7d2      	b.n	8002df6 <EE_WriteVariable+0x2e>
 8002e50:	002a      	movs	r2, r5
 8002e52:	2300      	movs	r3, #0
 8002e54:	0021      	movs	r1, r4
 8002e56:	2001      	movs	r0, #1
 8002e58:	f7fd ffce 	bl	8000df8 <HAL_FLASH_Program>
 8002e5c:	2800      	cmp	r0, #0
 8002e5e:	d008      	beq.n	8002e72 <EE_WriteVariable+0xaa>
 8002e60:	b280      	uxth	r0, r0
 8002e62:	2880      	cmp	r0, #128	; 0x80
 8002e64:	d1e4      	bne.n	8002e30 <EE_WriteVariable+0x68>
 8002e66:	e7d0      	b.n	8002e0a <EE_WriteVariable+0x42>
 8002e68:	2b00      	cmp	r3, #0
 8002e6a:	d109      	bne.n	8002e80 <EE_WriteVariable+0xb8>
 8002e6c:	46a0      	mov	r8, r4
 8002e6e:	0014      	movs	r4, r2
 8002e70:	e7d5      	b.n	8002e1e <EE_WriteVariable+0x56>
 8002e72:	1ca1      	adds	r1, r4, #2
 8002e74:	0032      	movs	r2, r6
 8002e76:	2300      	movs	r3, #0
 8002e78:	2001      	movs	r0, #1
 8002e7a:	f7fd ffbd 	bl	8000df8 <HAL_FLASH_Program>
 8002e7e:	e7ef      	b.n	8002e60 <EE_WriteVariable+0x98>
 8002e80:	20ab      	movs	r0, #171	; 0xab
 8002e82:	e7d5      	b.n	8002e30 <EE_WriteVariable+0x68>
 8002e84:	4b59      	ldr	r3, [pc, #356]	; (8002fec <EE_WriteVariable+0x224>)
 8002e86:	4a5a      	ldr	r2, [pc, #360]	; (8002ff0 <EE_WriteVariable+0x228>)
 8002e88:	8819      	ldrh	r1, [r3, #0]
 8002e8a:	8812      	ldrh	r2, [r2, #0]
 8002e8c:	b289      	uxth	r1, r1
 8002e8e:	b292      	uxth	r2, r2
 8002e90:	2a00      	cmp	r2, #0
 8002e92:	d111      	bne.n	8002eb8 <EE_WriteVariable+0xf0>
 8002e94:	4a57      	ldr	r2, [pc, #348]	; (8002ff4 <EE_WriteVariable+0x22c>)
 8002e96:	4291      	cmp	r1, r2
 8002e98:	d013      	beq.n	8002ec2 <EE_WriteVariable+0xfa>
 8002e9a:	4b57      	ldr	r3, [pc, #348]	; (8002ff8 <EE_WriteVariable+0x230>)
 8002e9c:	4a57      	ldr	r2, [pc, #348]	; (8002ffc <EE_WriteVariable+0x234>)
 8002e9e:	001f      	movs	r7, r3
 8002ea0:	681b      	ldr	r3, [r3, #0]
 8002ea2:	3301      	adds	r3, #1
 8002ea4:	d103      	bne.n	8002eae <EE_WriteVariable+0xe6>
 8002ea6:	e00f      	b.n	8002ec8 <EE_WriteVariable+0x100>
 8002ea8:	683b      	ldr	r3, [r7, #0]
 8002eaa:	3301      	adds	r3, #1
 8002eac:	d00c      	beq.n	8002ec8 <EE_WriteVariable+0x100>
 8002eae:	3704      	adds	r7, #4
 8002eb0:	4297      	cmp	r7, r2
 8002eb2:	d3f9      	bcc.n	8002ea8 <EE_WriteVariable+0xe0>
 8002eb4:	2080      	movs	r0, #128	; 0x80
 8002eb6:	e7bb      	b.n	8002e30 <EE_WriteVariable+0x68>
 8002eb8:	2900      	cmp	r1, #0
 8002eba:	d1e1      	bne.n	8002e80 <EE_WriteVariable+0xb8>
 8002ebc:	494d      	ldr	r1, [pc, #308]	; (8002ff4 <EE_WriteVariable+0x22c>)
 8002ebe:	428a      	cmp	r2, r1
 8002ec0:	d0eb      	beq.n	8002e9a <EE_WriteVariable+0xd2>
 8002ec2:	4a4f      	ldr	r2, [pc, #316]	; (8003000 <EE_WriteVariable+0x238>)
 8002ec4:	001f      	movs	r7, r3
 8002ec6:	e7eb      	b.n	8002ea0 <EE_WriteVariable+0xd8>
 8002ec8:	002a      	movs	r2, r5
 8002eca:	2300      	movs	r3, #0
 8002ecc:	0039      	movs	r1, r7
 8002ece:	2001      	movs	r0, #1
 8002ed0:	f7fd ff92 	bl	8000df8 <HAL_FLASH_Program>
 8002ed4:	2800      	cmp	r0, #0
 8002ed6:	d1aa      	bne.n	8002e2e <EE_WriteVariable+0x66>
 8002ed8:	1cb9      	adds	r1, r7, #2
 8002eda:	0032      	movs	r2, r6
 8002edc:	2300      	movs	r3, #0
 8002ede:	2001      	movs	r0, #1
 8002ee0:	f7fd ff8a 	bl	8000df8 <HAL_FLASH_Program>
 8002ee4:	b280      	uxth	r0, r0
 8002ee6:	2800      	cmp	r0, #0
 8002ee8:	d1a2      	bne.n	8002e30 <EE_WriteVariable+0x68>
 8002eea:	4b46      	ldr	r3, [pc, #280]	; (8003004 <EE_WriteVariable+0x23c>)
 8002eec:	2700      	movs	r7, #0
 8002eee:	4699      	mov	r9, r3
 8002ef0:	4b45      	ldr	r3, [pc, #276]	; (8003008 <EE_WriteVariable+0x240>)
 8002ef2:	469a      	mov	sl, r3
 8002ef4:	464b      	mov	r3, r9
 8002ef6:	5bdb      	ldrh	r3, [r3, r7]
 8002ef8:	469b      	mov	fp, r3
 8002efa:	429e      	cmp	r6, r3
 8002efc:	d017      	beq.n	8002f2e <EE_WriteVariable+0x166>
 8002efe:	4b3b      	ldr	r3, [pc, #236]	; (8002fec <EE_WriteVariable+0x224>)
 8002f00:	881a      	ldrh	r2, [r3, #0]
 8002f02:	4b3b      	ldr	r3, [pc, #236]	; (8002ff0 <EE_WriteVariable+0x228>)
 8002f04:	881b      	ldrh	r3, [r3, #0]
 8002f06:	b29b      	uxth	r3, r3
 8002f08:	2a00      	cmp	r2, #0
 8002f0a:	d02d      	beq.n	8002f68 <EE_WriteVariable+0x1a0>
 8002f0c:	2b00      	cmp	r3, #0
 8002f0e:	d14f      	bne.n	8002fb0 <EE_WriteVariable+0x1e8>
 8002f10:	4a3e      	ldr	r2, [pc, #248]	; (800300c <EE_WriteVariable+0x244>)
 8002f12:	493f      	ldr	r1, [pc, #252]	; (8003010 <EE_WriteVariable+0x248>)
 8002f14:	0013      	movs	r3, r2
 8002f16:	483f      	ldr	r0, [pc, #252]	; (8003014 <EE_WriteVariable+0x24c>)
 8002f18:	881b      	ldrh	r3, [r3, #0]
 8002f1a:	459b      	cmp	fp, r3
 8002f1c:	d104      	bne.n	8002f28 <EE_WriteVariable+0x160>
 8002f1e:	e029      	b.n	8002f74 <EE_WriteVariable+0x1ac>
 8002f20:	8819      	ldrh	r1, [r3, #0]
 8002f22:	458b      	cmp	fp, r1
 8002f24:	d025      	beq.n	8002f72 <EE_WriteVariable+0x1aa>
 8002f26:	001a      	movs	r2, r3
 8002f28:	1f13      	subs	r3, r2, #4
 8002f2a:	4298      	cmp	r0, r3
 8002f2c:	d3f8      	bcc.n	8002f20 <EE_WriteVariable+0x158>
 8002f2e:	3702      	adds	r7, #2
 8002f30:	2f06      	cmp	r7, #6
 8002f32:	d1df      	bne.n	8002ef4 <EE_WriteVariable+0x12c>
 8002f34:	2300      	movs	r3, #0
 8002f36:	9301      	str	r3, [sp, #4]
 8002f38:	4643      	mov	r3, r8
 8002f3a:	9302      	str	r3, [sp, #8]
 8002f3c:	2301      	movs	r3, #1
 8002f3e:	4669      	mov	r1, sp
 8002f40:	a801      	add	r0, sp, #4
 8002f42:	9303      	str	r3, [sp, #12]
 8002f44:	f7fe f892 	bl	800106c <HAL_FLASHEx_Erase>
 8002f48:	2800      	cmp	r0, #0
 8002f4a:	d000      	beq.n	8002f4e <EE_WriteVariable+0x186>
 8002f4c:	e76f      	b.n	8002e2e <EE_WriteVariable+0x66>
 8002f4e:	2300      	movs	r3, #0
 8002f50:	2200      	movs	r2, #0
 8002f52:	0021      	movs	r1, r4
 8002f54:	2001      	movs	r0, #1
 8002f56:	f7fd ff4f 	bl	8000df8 <HAL_FLASH_Program>
 8002f5a:	0003      	movs	r3, r0
 8002f5c:	2000      	movs	r0, #0
 8002f5e:	2b00      	cmp	r3, #0
 8002f60:	d100      	bne.n	8002f64 <EE_WriteVariable+0x19c>
 8002f62:	e765      	b.n	8002e30 <EE_WriteVariable+0x68>
 8002f64:	b298      	uxth	r0, r3
 8002f66:	e763      	b.n	8002e30 <EE_WriteVariable+0x68>
 8002f68:	4a2b      	ldr	r2, [pc, #172]	; (8003018 <EE_WriteVariable+0x250>)
 8002f6a:	492c      	ldr	r1, [pc, #176]	; (800301c <EE_WriteVariable+0x254>)
 8002f6c:	482c      	ldr	r0, [pc, #176]	; (8003020 <EE_WriteVariable+0x258>)
 8002f6e:	0013      	movs	r3, r2
 8002f70:	e7d2      	b.n	8002f18 <EE_WriteVariable+0x150>
 8002f72:	1f91      	subs	r1, r2, #6
 8002f74:	4653      	mov	r3, sl
 8002f76:	880a      	ldrh	r2, [r1, #0]
 8002f78:	b292      	uxth	r2, r2
 8002f7a:	801a      	strh	r2, [r3, #0]
 8002f7c:	4b1b      	ldr	r3, [pc, #108]	; (8002fec <EE_WriteVariable+0x224>)
 8002f7e:	491c      	ldr	r1, [pc, #112]	; (8002ff0 <EE_WriteVariable+0x228>)
 8002f80:	8818      	ldrh	r0, [r3, #0]
 8002f82:	8809      	ldrh	r1, [r1, #0]
 8002f84:	b280      	uxth	r0, r0
 8002f86:	b289      	uxth	r1, r1
 8002f88:	2900      	cmp	r1, #0
 8002f8a:	d114      	bne.n	8002fb6 <EE_WriteVariable+0x1ee>
 8002f8c:	4919      	ldr	r1, [pc, #100]	; (8002ff4 <EE_WriteVariable+0x22c>)
 8002f8e:	4288      	cmp	r0, r1
 8002f90:	d017      	beq.n	8002fc2 <EE_WriteVariable+0x1fa>
 8002f92:	4b19      	ldr	r3, [pc, #100]	; (8002ff8 <EE_WriteVariable+0x230>)
 8002f94:	4919      	ldr	r1, [pc, #100]	; (8002ffc <EE_WriteVariable+0x234>)
 8002f96:	001d      	movs	r5, r3
 8002f98:	681b      	ldr	r3, [r3, #0]
 8002f9a:	3301      	adds	r3, #1
 8002f9c:	d103      	bne.n	8002fa6 <EE_WriteVariable+0x1de>
 8002f9e:	e013      	b.n	8002fc8 <EE_WriteVariable+0x200>
 8002fa0:	682b      	ldr	r3, [r5, #0]
 8002fa2:	3301      	adds	r3, #1
 8002fa4:	d010      	beq.n	8002fc8 <EE_WriteVariable+0x200>
 8002fa6:	3504      	adds	r5, #4
 8002fa8:	428d      	cmp	r5, r1
 8002faa:	d3f9      	bcc.n	8002fa0 <EE_WriteVariable+0x1d8>
 8002fac:	2080      	movs	r0, #128	; 0x80
 8002fae:	e73f      	b.n	8002e30 <EE_WriteVariable+0x68>
 8002fb0:	4b15      	ldr	r3, [pc, #84]	; (8003008 <EE_WriteVariable+0x240>)
 8002fb2:	881a      	ldrh	r2, [r3, #0]
 8002fb4:	e7e2      	b.n	8002f7c <EE_WriteVariable+0x1b4>
 8002fb6:	2800      	cmp	r0, #0
 8002fb8:	d000      	beq.n	8002fbc <EE_WriteVariable+0x1f4>
 8002fba:	e761      	b.n	8002e80 <EE_WriteVariable+0xb8>
 8002fbc:	480d      	ldr	r0, [pc, #52]	; (8002ff4 <EE_WriteVariable+0x22c>)
 8002fbe:	4281      	cmp	r1, r0
 8002fc0:	d0e7      	beq.n	8002f92 <EE_WriteVariable+0x1ca>
 8002fc2:	001d      	movs	r5, r3
 8002fc4:	490e      	ldr	r1, [pc, #56]	; (8003000 <EE_WriteVariable+0x238>)
 8002fc6:	e7e7      	b.n	8002f98 <EE_WriteVariable+0x1d0>
 8002fc8:	2300      	movs	r3, #0
 8002fca:	0029      	movs	r1, r5
 8002fcc:	2001      	movs	r0, #1
 8002fce:	f7fd ff13 	bl	8000df8 <HAL_FLASH_Program>
 8002fd2:	2800      	cmp	r0, #0
 8002fd4:	d000      	beq.n	8002fd8 <EE_WriteVariable+0x210>
 8002fd6:	e72a      	b.n	8002e2e <EE_WriteVariable+0x66>
 8002fd8:	1ca9      	adds	r1, r5, #2
 8002fda:	465a      	mov	r2, fp
 8002fdc:	2300      	movs	r3, #0
 8002fde:	2001      	movs	r0, #1
 8002fe0:	f7fd ff0a 	bl	8000df8 <HAL_FLASH_Program>
 8002fe4:	b280      	uxth	r0, r0
 8002fe6:	2800      	cmp	r0, #0
 8002fe8:	d0a1      	beq.n	8002f2e <EE_WriteVariable+0x166>
 8002fea:	e721      	b.n	8002e30 <EE_WriteVariable+0x68>
 8002fec:	08007000 	.word	0x08007000
 8002ff0:	08007800 	.word	0x08007800
 8002ff4:	0000eeee 	.word	0x0000eeee
 8002ff8:	0800f000 	.word	0x0800f000
 8002ffc:	0800f3ff 	.word	0x0800f3ff
 8003000:	080073ff 	.word	0x080073ff
 8003004:	20000004 	.word	0x20000004
 8003008:	20000084 	.word	0x20000084
 800300c:	0800f3fe 	.word	0x0800f3fe
 8003010:	0800f3fc 	.word	0x0800f3fc
 8003014:	0800f002 	.word	0x0800f002
 8003018:	080073fe 	.word	0x080073fe
 800301c:	080073fc 	.word	0x080073fc
 8003020:	08007002 	.word	0x08007002

08003024 <computeDshotDMA.part.1>:
 8003024:	b5f0      	push	{r4, r5, r6, r7, lr}
 8003026:	46de      	mov	lr, fp
 8003028:	4657      	mov	r7, sl
 800302a:	464e      	mov	r6, r9
 800302c:	4645      	mov	r5, r8
 800302e:	b5e0      	push	{r5, r6, r7, lr}
 8003030:	4d70      	ldr	r5, [pc, #448]	; (80031f4 <computeDshotDMA.part.1+0x1d0>)
 8003032:	b08b      	sub	sp, #44	; 0x2c
 8003034:	6868      	ldr	r0, [r5, #4]
 8003036:	210a      	movs	r1, #10
 8003038:	f7fd f866 	bl	8000108 <__udivsi3>
 800303c:	4c6e      	ldr	r4, [pc, #440]	; (80031f8 <computeDshotDMA.part.1+0x1d4>)
 800303e:	1e43      	subs	r3, r0, #1
 8003040:	6023      	str	r3, [r4, #0]
 8003042:	68e8      	ldr	r0, [r5, #12]
 8003044:	210a      	movs	r1, #10
 8003046:	9301      	str	r3, [sp, #4]
 8003048:	f7fd f85e 	bl	8000108 <__udivsi3>
 800304c:	1e47      	subs	r7, r0, #1
 800304e:	6067      	str	r7, [r4, #4]
 8003050:	6968      	ldr	r0, [r5, #20]
 8003052:	210a      	movs	r1, #10
 8003054:	f7fd f858 	bl	8000108 <__udivsi3>
 8003058:	1e42      	subs	r2, r0, #1
 800305a:	60a2      	str	r2, [r4, #8]
 800305c:	69e8      	ldr	r0, [r5, #28]
 800305e:	210a      	movs	r1, #10
 8003060:	9202      	str	r2, [sp, #8]
 8003062:	f7fd f851 	bl	8000108 <__udivsi3>
 8003066:	1e41      	subs	r1, r0, #1
 8003068:	60e1      	str	r1, [r4, #12]
 800306a:	6a68      	ldr	r0, [r5, #36]	; 0x24
 800306c:	9103      	str	r1, [sp, #12]
 800306e:	210a      	movs	r1, #10
 8003070:	f7fd f84a 	bl	8000108 <__udivsi3>
 8003074:	3801      	subs	r0, #1
 8003076:	6120      	str	r0, [r4, #16]
 8003078:	9004      	str	r0, [sp, #16]
 800307a:	210a      	movs	r1, #10
 800307c:	6ae8      	ldr	r0, [r5, #44]	; 0x2c
 800307e:	f7fd f843 	bl	8000108 <__udivsi3>
 8003082:	3801      	subs	r0, #1
 8003084:	6160      	str	r0, [r4, #20]
 8003086:	9005      	str	r0, [sp, #20]
 8003088:	210a      	movs	r1, #10
 800308a:	6b68      	ldr	r0, [r5, #52]	; 0x34
 800308c:	f7fd f83c 	bl	8000108 <__udivsi3>
 8003090:	1e46      	subs	r6, r0, #1
 8003092:	61a6      	str	r6, [r4, #24]
 8003094:	6be8      	ldr	r0, [r5, #60]	; 0x3c
 8003096:	210a      	movs	r1, #10
 8003098:	9606      	str	r6, [sp, #24]
 800309a:	f7fd f835 	bl	8000108 <__udivsi3>
 800309e:	1e46      	subs	r6, r0, #1
 80030a0:	61e6      	str	r6, [r4, #28]
 80030a2:	6c68      	ldr	r0, [r5, #68]	; 0x44
 80030a4:	210a      	movs	r1, #10
 80030a6:	f7fd f82f 	bl	8000108 <__udivsi3>
 80030aa:	46b3      	mov	fp, r6
 80030ac:	1e46      	subs	r6, r0, #1
 80030ae:	6226      	str	r6, [r4, #32]
 80030b0:	6ce8      	ldr	r0, [r5, #76]	; 0x4c
 80030b2:	210a      	movs	r1, #10
 80030b4:	f7fd f828 	bl	8000108 <__udivsi3>
 80030b8:	46b1      	mov	r9, r6
 80030ba:	1e46      	subs	r6, r0, #1
 80030bc:	6266      	str	r6, [r4, #36]	; 0x24
 80030be:	6d68      	ldr	r0, [r5, #84]	; 0x54
 80030c0:	210a      	movs	r1, #10
 80030c2:	f7fd f821 	bl	8000108 <__udivsi3>
 80030c6:	46b0      	mov	r8, r6
 80030c8:	1e46      	subs	r6, r0, #1
 80030ca:	62a6      	str	r6, [r4, #40]	; 0x28
 80030cc:	6de8      	ldr	r0, [r5, #92]	; 0x5c
 80030ce:	210a      	movs	r1, #10
 80030d0:	f7fd f81a 	bl	8000108 <__udivsi3>
 80030d4:	46b2      	mov	sl, r6
 80030d6:	1e46      	subs	r6, r0, #1
 80030d8:	62e6      	str	r6, [r4, #44]	; 0x2c
 80030da:	6e68      	ldr	r0, [r5, #100]	; 0x64
 80030dc:	210a      	movs	r1, #10
 80030de:	9607      	str	r6, [sp, #28]
 80030e0:	f7fd f812 	bl	8000108 <__udivsi3>
 80030e4:	1e43      	subs	r3, r0, #1
 80030e6:	6323      	str	r3, [r4, #48]	; 0x30
 80030e8:	6ee8      	ldr	r0, [r5, #108]	; 0x6c
 80030ea:	210a      	movs	r1, #10
 80030ec:	9308      	str	r3, [sp, #32]
 80030ee:	f7fd f80b 	bl	8000108 <__udivsi3>
 80030f2:	1e46      	subs	r6, r0, #1
 80030f4:	6366      	str	r6, [r4, #52]	; 0x34
 80030f6:	210a      	movs	r1, #10
 80030f8:	6f68      	ldr	r0, [r5, #116]	; 0x74
 80030fa:	f7fd f805 	bl	8000108 <__udivsi3>
 80030fe:	1e42      	subs	r2, r0, #1
 8003100:	63a2      	str	r2, [r4, #56]	; 0x38
 8003102:	6fe8      	ldr	r0, [r5, #124]	; 0x7c
 8003104:	210a      	movs	r1, #10
 8003106:	9209      	str	r2, [sp, #36]	; 0x24
 8003108:	f7fc fffe 	bl	8000108 <__udivsi3>
 800310c:	9d04      	ldr	r5, [sp, #16]
 800310e:	9b01      	ldr	r3, [sp, #4]
 8003110:	3801      	subs	r0, #1
 8003112:	406b      	eors	r3, r5
 8003114:	464d      	mov	r5, r9
 8003116:	63e0      	str	r0, [r4, #60]	; 0x3c
 8003118:	9c05      	ldr	r4, [sp, #20]
 800311a:	406b      	eors	r3, r5
 800311c:	407c      	eors	r4, r7
 800311e:	0022      	movs	r2, r4
 8003120:	4645      	mov	r5, r8
 8003122:	406a      	eors	r2, r5
 8003124:	465d      	mov	r5, fp
 8003126:	9903      	ldr	r1, [sp, #12]
 8003128:	0092      	lsls	r2, r2, #2
 800312a:	4069      	eors	r1, r5
 800312c:	00db      	lsls	r3, r3, #3
 800312e:	4313      	orrs	r3, r2
 8003130:	000a      	movs	r2, r1
 8003132:	9c07      	ldr	r4, [sp, #28]
 8003134:	9906      	ldr	r1, [sp, #24]
 8003136:	4062      	eors	r2, r4
 8003138:	4654      	mov	r4, sl
 800313a:	4313      	orrs	r3, r2
 800313c:	9a02      	ldr	r2, [sp, #8]
 800313e:	00b6      	lsls	r6, r6, #2
 8003140:	404a      	eors	r2, r1
 8003142:	4062      	eors	r2, r4
 8003144:	0052      	lsls	r2, r2, #1
 8003146:	4313      	orrs	r3, r2
 8003148:	4a2c      	ldr	r2, [pc, #176]	; (80031fc <computeDshotDMA.part.1+0x1d8>)
 800314a:	b2db      	uxtb	r3, r3
 800314c:	7013      	strb	r3, [r2, #0]
 800314e:	9a08      	ldr	r2, [sp, #32]
 8003150:	9909      	ldr	r1, [sp, #36]	; 0x24
 8003152:	00d2      	lsls	r2, r2, #3
 8003154:	4332      	orrs	r2, r6
 8003156:	4302      	orrs	r2, r0
 8003158:	0048      	lsls	r0, r1, #1
 800315a:	4302      	orrs	r2, r0
 800315c:	4928      	ldr	r1, [pc, #160]	; (8003200 <computeDshotDMA.part.1+0x1dc>)
 800315e:	b2d2      	uxtb	r2, r2
 8003160:	700a      	strb	r2, [r1, #0]
 8003162:	4293      	cmp	r3, r2
 8003164:	d027      	beq.n	80031b6 <computeDshotDMA.part.1+0x192>
 8003166:	4b27      	ldr	r3, [pc, #156]	; (8003204 <computeDshotDMA.part.1+0x1e0>)
 8003168:	6818      	ldr	r0, [r3, #0]
 800316a:	0003      	movs	r3, r0
 800316c:	4a26      	ldr	r2, [pc, #152]	; (8003208 <computeDshotDMA.part.1+0x1e4>)
 800316e:	3b30      	subs	r3, #48	; 0x30
 8003170:	4293      	cmp	r3, r2
 8003172:	d91a      	bls.n	80031aa <computeDshotDMA.part.1+0x186>
 8003174:	1e83      	subs	r3, r0, #2
 8003176:	2b2d      	cmp	r3, #45	; 0x2d
 8003178:	d910      	bls.n	800319c <computeDshotDMA.part.1+0x178>
 800317a:	4a24      	ldr	r2, [pc, #144]	; (800320c <computeDshotDMA.part.1+0x1e8>)
 800317c:	6813      	ldr	r3, [r2, #0]
 800317e:	3301      	adds	r3, #1
 8003180:	6013      	str	r3, [r2, #0]
 8003182:	2b01      	cmp	r3, #1
 8003184:	dd03      	ble.n	800318e <computeDshotDMA.part.1+0x16a>
 8003186:	4b22      	ldr	r3, [pc, #136]	; (8003210 <computeDshotDMA.part.1+0x1ec>)
 8003188:	6018      	str	r0, [r3, #0]
 800318a:	2300      	movs	r3, #0
 800318c:	6013      	str	r3, [r2, #0]
 800318e:	b00b      	add	sp, #44	; 0x2c
 8003190:	bc3c      	pop	{r2, r3, r4, r5}
 8003192:	4690      	mov	r8, r2
 8003194:	4699      	mov	r9, r3
 8003196:	46a2      	mov	sl, r4
 8003198:	46ab      	mov	fp, r5
 800319a:	bdf0      	pop	{r4, r5, r6, r7, pc}
 800319c:	4b1d      	ldr	r3, [pc, #116]	; (8003214 <computeDshotDMA.part.1+0x1f0>)
 800319e:	681b      	ldr	r3, [r3, #0]
 80031a0:	2b00      	cmp	r3, #0
 80031a2:	d1ea      	bne.n	800317a <computeDshotDMA.part.1+0x156>
 80031a4:	4b1c      	ldr	r3, [pc, #112]	; (8003218 <computeDshotDMA.part.1+0x1f4>)
 80031a6:	6018      	str	r0, [r3, #0]
 80031a8:	e7f1      	b.n	800318e <computeDshotDMA.part.1+0x16a>
 80031aa:	2200      	movs	r2, #0
 80031ac:	4b18      	ldr	r3, [pc, #96]	; (8003210 <computeDshotDMA.part.1+0x1ec>)
 80031ae:	6018      	str	r0, [r3, #0]
 80031b0:	4b16      	ldr	r3, [pc, #88]	; (800320c <computeDshotDMA.part.1+0x1e8>)
 80031b2:	601a      	str	r2, [r3, #0]
 80031b4:	e7eb      	b.n	800318e <computeDshotDMA.part.1+0x16a>
 80031b6:	9b01      	ldr	r3, [sp, #4]
 80031b8:	027f      	lsls	r7, r7, #9
 80031ba:	0298      	lsls	r0, r3, #10
 80031bc:	9b02      	ldr	r3, [sp, #8]
 80031be:	4338      	orrs	r0, r7
 80031c0:	021f      	lsls	r7, r3, #8
 80031c2:	9b03      	ldr	r3, [sp, #12]
 80031c4:	4320      	orrs	r0, r4
 80031c6:	01db      	lsls	r3, r3, #7
 80031c8:	4338      	orrs	r0, r7
 80031ca:	4318      	orrs	r0, r3
 80031cc:	9b04      	ldr	r3, [sp, #16]
 80031ce:	019b      	lsls	r3, r3, #6
 80031d0:	4318      	orrs	r0, r3
 80031d2:	9b05      	ldr	r3, [sp, #20]
 80031d4:	015b      	lsls	r3, r3, #5
 80031d6:	4318      	orrs	r0, r3
 80031d8:	9b06      	ldr	r3, [sp, #24]
 80031da:	011b      	lsls	r3, r3, #4
 80031dc:	4318      	orrs	r0, r3
 80031de:	00eb      	lsls	r3, r5, #3
 80031e0:	4318      	orrs	r0, r3
 80031e2:	464b      	mov	r3, r9
 80031e4:	009b      	lsls	r3, r3, #2
 80031e6:	4318      	orrs	r0, r3
 80031e8:	4643      	mov	r3, r8
 80031ea:	005b      	lsls	r3, r3, #1
 80031ec:	4318      	orrs	r0, r3
 80031ee:	4b05      	ldr	r3, [pc, #20]	; (8003204 <computeDshotDMA.part.1+0x1e0>)
 80031f0:	6018      	str	r0, [r3, #0]
 80031f2:	e7ba      	b.n	800316a <computeDshotDMA.part.1+0x146>
 80031f4:	20000284 	.word	0x20000284
 80031f8:	200000c8 	.word	0x200000c8
 80031fc:	200001f0 	.word	0x200001f0
 8003200:	20000204 	.word	0x20000204
 8003204:	20000170 	.word	0x20000170
 8003208:	000007cf 	.word	0x000007cf
 800320c:	200000b0 	.word	0x200000b0
 8003210:	2000012c 	.word	0x2000012c
 8003214:	2000011c 	.word	0x2000011c
 8003218:	2000010c 	.word	0x2000010c

0800321c <storeEEpromConfig>:
 800321c:	b510      	push	{r4, lr}
 800321e:	4b08      	ldr	r3, [pc, #32]	; (8003240 <storeEEpromConfig+0x24>)
 8003220:	4c08      	ldr	r4, [pc, #32]	; (8003244 <storeEEpromConfig+0x28>)
 8003222:	7819      	ldrb	r1, [r3, #0]
 8003224:	8820      	ldrh	r0, [r4, #0]
 8003226:	f7ff fdcf 	bl	8002dc8 <EE_WriteVariable>
 800322a:	4b07      	ldr	r3, [pc, #28]	; (8003248 <storeEEpromConfig+0x2c>)
 800322c:	8860      	ldrh	r0, [r4, #2]
 800322e:	8819      	ldrh	r1, [r3, #0]
 8003230:	f7ff fdca 	bl	8002dc8 <EE_WriteVariable>
 8003234:	4b05      	ldr	r3, [pc, #20]	; (800324c <storeEEpromConfig+0x30>)
 8003236:	88a0      	ldrh	r0, [r4, #4]
 8003238:	8819      	ldrh	r1, [r3, #0]
 800323a:	f7ff fdc5 	bl	8002dc8 <EE_WriteVariable>
 800323e:	bd10      	pop	{r4, pc}
 8003240:	20000058 	.word	0x20000058
 8003244:	20000004 	.word	0x20000004
 8003248:	200000c4 	.word	0x200000c4
 800324c:	200000ac 	.word	0x200000ac

08003250 <loadEEpromConfig>:
 8003250:	b570      	push	{r4, r5, r6, lr}
 8003252:	4c15      	ldr	r4, [pc, #84]	; (80032a8 <loadEEpromConfig+0x58>)
 8003254:	4d15      	ldr	r5, [pc, #84]	; (80032ac <loadEEpromConfig+0x5c>)
 8003256:	0021      	movs	r1, r4
 8003258:	8828      	ldrh	r0, [r5, #0]
 800325a:	f7ff fd7d 	bl	8002d58 <EE_ReadVariable>
 800325e:	1ca1      	adds	r1, r4, #2
 8003260:	8868      	ldrh	r0, [r5, #2]
 8003262:	f7ff fd79 	bl	8002d58 <EE_ReadVariable>
 8003266:	1d21      	adds	r1, r4, #4
 8003268:	88a8      	ldrh	r0, [r5, #4]
 800326a:	f7ff fd75 	bl	8002d58 <EE_ReadVariable>
 800326e:	8823      	ldrh	r3, [r4, #0]
 8003270:	2b00      	cmp	r3, #0
 8003272:	d008      	beq.n	8003286 <loadEEpromConfig+0x36>
 8003274:	4a0e      	ldr	r2, [pc, #56]	; (80032b0 <loadEEpromConfig+0x60>)
 8003276:	7013      	strb	r3, [r2, #0]
 8003278:	8862      	ldrh	r2, [r4, #2]
 800327a:	4b0e      	ldr	r3, [pc, #56]	; (80032b4 <loadEEpromConfig+0x64>)
 800327c:	601a      	str	r2, [r3, #0]
 800327e:	88a2      	ldrh	r2, [r4, #4]
 8003280:	4b0d      	ldr	r3, [pc, #52]	; (80032b8 <loadEEpromConfig+0x68>)
 8003282:	601a      	str	r2, [r3, #0]
 8003284:	bd70      	pop	{r4, r5, r6, pc}
 8003286:	4b0a      	ldr	r3, [pc, #40]	; (80032b0 <loadEEpromConfig+0x60>)
 8003288:	8828      	ldrh	r0, [r5, #0]
 800328a:	7819      	ldrb	r1, [r3, #0]
 800328c:	f7ff fd9c 	bl	8002dc8 <EE_WriteVariable>
 8003290:	4b08      	ldr	r3, [pc, #32]	; (80032b4 <loadEEpromConfig+0x64>)
 8003292:	8868      	ldrh	r0, [r5, #2]
 8003294:	8819      	ldrh	r1, [r3, #0]
 8003296:	f7ff fd97 	bl	8002dc8 <EE_WriteVariable>
 800329a:	4b07      	ldr	r3, [pc, #28]	; (80032b8 <loadEEpromConfig+0x68>)
 800329c:	88a8      	ldrh	r0, [r5, #4]
 800329e:	8819      	ldrh	r1, [r3, #0]
 80032a0:	f7ff fd92 	bl	8002dc8 <EE_WriteVariable>
 80032a4:	e7ee      	b.n	8003284 <loadEEpromConfig+0x34>
 80032a6:	46c0      	nop			; (mov r8, r8)
 80032a8:	20000094 	.word	0x20000094
 80032ac:	20000004 	.word	0x20000004
 80032b0:	20000058 	.word	0x20000058
 80032b4:	200000c4 	.word	0x200000c4
 80032b8:	200000ac 	.word	0x200000ac

080032bc <phaseB>:
 80032bc:	4b2b      	ldr	r3, [pc, #172]	; (800336c <phaseB+0xb0>)
 80032be:	681b      	ldr	r3, [r3, #0]
 80032c0:	4283      	cmp	r3, r0
 80032c2:	d031      	beq.n	8003328 <phaseB+0x6c>
 80032c4:	4b2a      	ldr	r3, [pc, #168]	; (8003370 <phaseB+0xb4>)
 80032c6:	681b      	ldr	r3, [r3, #0]
 80032c8:	4298      	cmp	r0, r3
 80032ca:	d018      	beq.n	80032fe <phaseB+0x42>
 80032cc:	4b29      	ldr	r3, [pc, #164]	; (8003374 <phaseB+0xb8>)
 80032ce:	681b      	ldr	r3, [r3, #0]
 80032d0:	4298      	cmp	r0, r3
 80032d2:	d113      	bne.n	80032fc <phaseB+0x40>
 80032d4:	2103      	movs	r1, #3
 80032d6:	4a28      	ldr	r2, [pc, #160]	; (8003378 <phaseB+0xbc>)
 80032d8:	6813      	ldr	r3, [r2, #0]
 80032da:	438b      	bics	r3, r1
 80032dc:	3902      	subs	r1, #2
 80032de:	430b      	orrs	r3, r1
 80032e0:	6013      	str	r3, [r2, #0]
 80032e2:	2390      	movs	r3, #144	; 0x90
 80032e4:	6191      	str	r1, [r2, #24]
 80032e6:	05db      	lsls	r3, r3, #23
 80032e8:	681a      	ldr	r2, [r3, #0]
 80032ea:	4924      	ldr	r1, [pc, #144]	; (800337c <phaseB+0xc0>)
 80032ec:	4011      	ands	r1, r2
 80032ee:	2280      	movs	r2, #128	; 0x80
 80032f0:	02d2      	lsls	r2, r2, #11
 80032f2:	430a      	orrs	r2, r1
 80032f4:	601a      	str	r2, [r3, #0]
 80032f6:	2280      	movs	r2, #128	; 0x80
 80032f8:	0092      	lsls	r2, r2, #2
 80032fa:	629a      	str	r2, [r3, #40]	; 0x28
 80032fc:	4770      	bx	lr
 80032fe:	2103      	movs	r1, #3
 8003300:	4a1d      	ldr	r2, [pc, #116]	; (8003378 <phaseB+0xbc>)
 8003302:	6813      	ldr	r3, [r2, #0]
 8003304:	438b      	bics	r3, r1
 8003306:	3902      	subs	r1, #2
 8003308:	430b      	orrs	r3, r1
 800330a:	6013      	str	r3, [r2, #0]
 800330c:	2390      	movs	r3, #144	; 0x90
 800330e:	6291      	str	r1, [r2, #40]	; 0x28
 8003310:	05db      	lsls	r3, r3, #23
 8003312:	681a      	ldr	r2, [r3, #0]
 8003314:	4919      	ldr	r1, [pc, #100]	; (800337c <phaseB+0xc0>)
 8003316:	4011      	ands	r1, r2
 8003318:	2280      	movs	r2, #128	; 0x80
 800331a:	02d2      	lsls	r2, r2, #11
 800331c:	430a      	orrs	r2, r1
 800331e:	601a      	str	r2, [r3, #0]
 8003320:	2280      	movs	r2, #128	; 0x80
 8003322:	0092      	lsls	r2, r2, #2
 8003324:	629a      	str	r2, [r3, #40]	; 0x28
 8003326:	e7d1      	b.n	80032cc <phaseB+0x10>
 8003328:	4b15      	ldr	r3, [pc, #84]	; (8003380 <phaseB+0xc4>)
 800332a:	4a13      	ldr	r2, [pc, #76]	; (8003378 <phaseB+0xbc>)
 800332c:	781b      	ldrb	r3, [r3, #0]
 800332e:	2b00      	cmp	r3, #0
 8003330:	d110      	bne.n	8003354 <phaseB+0x98>
 8003332:	2103      	movs	r1, #3
 8003334:	6813      	ldr	r3, [r2, #0]
 8003336:	438b      	bics	r3, r1
 8003338:	3902      	subs	r1, #2
 800333a:	430b      	orrs	r3, r1
 800333c:	6013      	str	r3, [r2, #0]
 800333e:	6291      	str	r1, [r2, #40]	; 0x28
 8003340:	2190      	movs	r1, #144	; 0x90
 8003342:	05c9      	lsls	r1, r1, #23
 8003344:	680b      	ldr	r3, [r1, #0]
 8003346:	4a0d      	ldr	r2, [pc, #52]	; (800337c <phaseB+0xc0>)
 8003348:	401a      	ands	r2, r3
 800334a:	2380      	movs	r3, #128	; 0x80
 800334c:	031b      	lsls	r3, r3, #12
 800334e:	4313      	orrs	r3, r2
 8003350:	600b      	str	r3, [r1, #0]
 8003352:	e7b7      	b.n	80032c4 <phaseB+0x8>
 8003354:	4b0b      	ldr	r3, [pc, #44]	; (8003384 <phaseB+0xc8>)
 8003356:	781b      	ldrb	r3, [r3, #0]
 8003358:	2b00      	cmp	r3, #0
 800335a:	d1ea      	bne.n	8003332 <phaseB+0x76>
 800335c:	2103      	movs	r1, #3
 800335e:	6813      	ldr	r3, [r2, #0]
 8003360:	438b      	bics	r3, r1
 8003362:	3901      	subs	r1, #1
 8003364:	430b      	orrs	r3, r1
 8003366:	6013      	str	r3, [r2, #0]
 8003368:	e7ea      	b.n	8003340 <phaseB+0x84>
 800336a:	46c0      	nop			; (mov r8, r8)
 800336c:	20000034 	.word	0x20000034
 8003370:	2000001c 	.word	0x2000001c
 8003374:	20000028 	.word	0x20000028
 8003378:	48000400 	.word	0x48000400
 800337c:	fff3ffff 	.word	0xfff3ffff
 8003380:	20000040 	.word	0x20000040
 8003384:	20000133 	.word	0x20000133

08003388 <phaseC>:
 8003388:	4b2f      	ldr	r3, [pc, #188]	; (8003448 <phaseC+0xc0>)
 800338a:	681b      	ldr	r3, [r3, #0]
 800338c:	4283      	cmp	r3, r0
 800338e:	d033      	beq.n	80033f8 <phaseC+0x70>
 8003390:	4b2e      	ldr	r3, [pc, #184]	; (800344c <phaseC+0xc4>)
 8003392:	681b      	ldr	r3, [r3, #0]
 8003394:	4298      	cmp	r0, r3
 8003396:	d019      	beq.n	80033cc <phaseC+0x44>
 8003398:	4b2d      	ldr	r3, [pc, #180]	; (8003450 <phaseC+0xc8>)
 800339a:	681b      	ldr	r3, [r3, #0]
 800339c:	4298      	cmp	r0, r3
 800339e:	d114      	bne.n	80033ca <phaseC+0x42>
 80033a0:	2390      	movs	r3, #144	; 0x90
 80033a2:	05db      	lsls	r3, r3, #23
 80033a4:	681a      	ldr	r2, [r3, #0]
 80033a6:	492b      	ldr	r1, [pc, #172]	; (8003454 <phaseC+0xcc>)
 80033a8:	4011      	ands	r1, r2
 80033aa:	2280      	movs	r2, #128	; 0x80
 80033ac:	01d2      	lsls	r2, r2, #7
 80033ae:	430a      	orrs	r2, r1
 80033b0:	601a      	str	r2, [r3, #0]
 80033b2:	2280      	movs	r2, #128	; 0x80
 80033b4:	619a      	str	r2, [r3, #24]
 80033b6:	681a      	ldr	r2, [r3, #0]
 80033b8:	4927      	ldr	r1, [pc, #156]	; (8003458 <phaseC+0xd0>)
 80033ba:	4011      	ands	r1, r2
 80033bc:	2280      	movs	r2, #128	; 0x80
 80033be:	0252      	lsls	r2, r2, #9
 80033c0:	430a      	orrs	r2, r1
 80033c2:	601a      	str	r2, [r3, #0]
 80033c4:	2280      	movs	r2, #128	; 0x80
 80033c6:	0052      	lsls	r2, r2, #1
 80033c8:	629a      	str	r2, [r3, #40]	; 0x28
 80033ca:	4770      	bx	lr
 80033cc:	2390      	movs	r3, #144	; 0x90
 80033ce:	05db      	lsls	r3, r3, #23
 80033d0:	681a      	ldr	r2, [r3, #0]
 80033d2:	4920      	ldr	r1, [pc, #128]	; (8003454 <phaseC+0xcc>)
 80033d4:	4011      	ands	r1, r2
 80033d6:	2280      	movs	r2, #128	; 0x80
 80033d8:	01d2      	lsls	r2, r2, #7
 80033da:	430a      	orrs	r2, r1
 80033dc:	601a      	str	r2, [r3, #0]
 80033de:	2280      	movs	r2, #128	; 0x80
 80033e0:	629a      	str	r2, [r3, #40]	; 0x28
 80033e2:	681a      	ldr	r2, [r3, #0]
 80033e4:	491c      	ldr	r1, [pc, #112]	; (8003458 <phaseC+0xd0>)
 80033e6:	4011      	ands	r1, r2
 80033e8:	2280      	movs	r2, #128	; 0x80
 80033ea:	0252      	lsls	r2, r2, #9
 80033ec:	430a      	orrs	r2, r1
 80033ee:	601a      	str	r2, [r3, #0]
 80033f0:	2280      	movs	r2, #128	; 0x80
 80033f2:	0052      	lsls	r2, r2, #1
 80033f4:	629a      	str	r2, [r3, #40]	; 0x28
 80033f6:	e7cf      	b.n	8003398 <phaseC+0x10>
 80033f8:	4b18      	ldr	r3, [pc, #96]	; (800345c <phaseC+0xd4>)
 80033fa:	781b      	ldrb	r3, [r3, #0]
 80033fc:	2b00      	cmp	r3, #0
 80033fe:	d114      	bne.n	800342a <phaseC+0xa2>
 8003400:	2390      	movs	r3, #144	; 0x90
 8003402:	05db      	lsls	r3, r3, #23
 8003404:	681a      	ldr	r2, [r3, #0]
 8003406:	4913      	ldr	r1, [pc, #76]	; (8003454 <phaseC+0xcc>)
 8003408:	4011      	ands	r1, r2
 800340a:	2280      	movs	r2, #128	; 0x80
 800340c:	01d2      	lsls	r2, r2, #7
 800340e:	430a      	orrs	r2, r1
 8003410:	601a      	str	r2, [r3, #0]
 8003412:	2280      	movs	r2, #128	; 0x80
 8003414:	629a      	str	r2, [r3, #40]	; 0x28
 8003416:	2190      	movs	r1, #144	; 0x90
 8003418:	05c9      	lsls	r1, r1, #23
 800341a:	680b      	ldr	r3, [r1, #0]
 800341c:	4a0e      	ldr	r2, [pc, #56]	; (8003458 <phaseC+0xd0>)
 800341e:	401a      	ands	r2, r3
 8003420:	2380      	movs	r3, #128	; 0x80
 8003422:	029b      	lsls	r3, r3, #10
 8003424:	4313      	orrs	r3, r2
 8003426:	600b      	str	r3, [r1, #0]
 8003428:	e7b2      	b.n	8003390 <phaseC+0x8>
 800342a:	4b0d      	ldr	r3, [pc, #52]	; (8003460 <phaseC+0xd8>)
 800342c:	781b      	ldrb	r3, [r3, #0]
 800342e:	2b00      	cmp	r3, #0
 8003430:	d1e6      	bne.n	8003400 <phaseC+0x78>
 8003432:	2190      	movs	r1, #144	; 0x90
 8003434:	05c9      	lsls	r1, r1, #23
 8003436:	680b      	ldr	r3, [r1, #0]
 8003438:	4a06      	ldr	r2, [pc, #24]	; (8003454 <phaseC+0xcc>)
 800343a:	401a      	ands	r2, r3
 800343c:	2380      	movs	r3, #128	; 0x80
 800343e:	021b      	lsls	r3, r3, #8
 8003440:	4313      	orrs	r3, r2
 8003442:	600b      	str	r3, [r1, #0]
 8003444:	e7e7      	b.n	8003416 <phaseC+0x8e>
 8003446:	46c0      	nop			; (mov r8, r8)
 8003448:	20000034 	.word	0x20000034
 800344c:	2000001c 	.word	0x2000001c
 8003450:	20000028 	.word	0x20000028
 8003454:	ffff3fff 	.word	0xffff3fff
 8003458:	fffcffff 	.word	0xfffcffff
 800345c:	20000040 	.word	0x20000040
 8003460:	20000133 	.word	0x20000133

08003464 <phaseA>:
 8003464:	4b2c      	ldr	r3, [pc, #176]	; (8003518 <phaseA+0xb4>)
 8003466:	681b      	ldr	r3, [r3, #0]
 8003468:	4283      	cmp	r3, r0
 800346a:	d033      	beq.n	80034d4 <phaseA+0x70>
 800346c:	4b2b      	ldr	r3, [pc, #172]	; (800351c <phaseA+0xb8>)
 800346e:	681b      	ldr	r3, [r3, #0]
 8003470:	4298      	cmp	r0, r3
 8003472:	d019      	beq.n	80034a8 <phaseA+0x44>
 8003474:	4b2a      	ldr	r3, [pc, #168]	; (8003520 <phaseA+0xbc>)
 8003476:	681b      	ldr	r3, [r3, #0]
 8003478:	4298      	cmp	r0, r3
 800347a:	d114      	bne.n	80034a6 <phaseA+0x42>
 800347c:	210c      	movs	r1, #12
 800347e:	4a29      	ldr	r2, [pc, #164]	; (8003524 <phaseA+0xc0>)
 8003480:	6813      	ldr	r3, [r2, #0]
 8003482:	438b      	bics	r3, r1
 8003484:	3908      	subs	r1, #8
 8003486:	430b      	orrs	r3, r1
 8003488:	6013      	str	r3, [r2, #0]
 800348a:	2302      	movs	r3, #2
 800348c:	6193      	str	r3, [r2, #24]
 800348e:	2390      	movs	r3, #144	; 0x90
 8003490:	05db      	lsls	r3, r3, #23
 8003492:	681a      	ldr	r2, [r3, #0]
 8003494:	4924      	ldr	r1, [pc, #144]	; (8003528 <phaseA+0xc4>)
 8003496:	4011      	ands	r1, r2
 8003498:	2280      	movs	r2, #128	; 0x80
 800349a:	0352      	lsls	r2, r2, #13
 800349c:	430a      	orrs	r2, r1
 800349e:	601a      	str	r2, [r3, #0]
 80034a0:	2280      	movs	r2, #128	; 0x80
 80034a2:	00d2      	lsls	r2, r2, #3
 80034a4:	629a      	str	r2, [r3, #40]	; 0x28
 80034a6:	4770      	bx	lr
 80034a8:	210c      	movs	r1, #12
 80034aa:	4a1e      	ldr	r2, [pc, #120]	; (8003524 <phaseA+0xc0>)
 80034ac:	6813      	ldr	r3, [r2, #0]
 80034ae:	438b      	bics	r3, r1
 80034b0:	3908      	subs	r1, #8
 80034b2:	430b      	orrs	r3, r1
 80034b4:	6013      	str	r3, [r2, #0]
 80034b6:	2302      	movs	r3, #2
 80034b8:	6293      	str	r3, [r2, #40]	; 0x28
 80034ba:	2390      	movs	r3, #144	; 0x90
 80034bc:	05db      	lsls	r3, r3, #23
 80034be:	681a      	ldr	r2, [r3, #0]
 80034c0:	4919      	ldr	r1, [pc, #100]	; (8003528 <phaseA+0xc4>)
 80034c2:	4011      	ands	r1, r2
 80034c4:	2280      	movs	r2, #128	; 0x80
 80034c6:	0352      	lsls	r2, r2, #13
 80034c8:	430a      	orrs	r2, r1
 80034ca:	601a      	str	r2, [r3, #0]
 80034cc:	2280      	movs	r2, #128	; 0x80
 80034ce:	00d2      	lsls	r2, r2, #3
 80034d0:	629a      	str	r2, [r3, #40]	; 0x28
 80034d2:	e7cf      	b.n	8003474 <phaseA+0x10>
 80034d4:	4b15      	ldr	r3, [pc, #84]	; (800352c <phaseA+0xc8>)
 80034d6:	4a13      	ldr	r2, [pc, #76]	; (8003524 <phaseA+0xc0>)
 80034d8:	781b      	ldrb	r3, [r3, #0]
 80034da:	2b00      	cmp	r3, #0
 80034dc:	d111      	bne.n	8003502 <phaseA+0x9e>
 80034de:	210c      	movs	r1, #12
 80034e0:	6813      	ldr	r3, [r2, #0]
 80034e2:	438b      	bics	r3, r1
 80034e4:	3908      	subs	r1, #8
 80034e6:	430b      	orrs	r3, r1
 80034e8:	6013      	str	r3, [r2, #0]
 80034ea:	2302      	movs	r3, #2
 80034ec:	6293      	str	r3, [r2, #40]	; 0x28
 80034ee:	2190      	movs	r1, #144	; 0x90
 80034f0:	05c9      	lsls	r1, r1, #23
 80034f2:	680b      	ldr	r3, [r1, #0]
 80034f4:	4a0c      	ldr	r2, [pc, #48]	; (8003528 <phaseA+0xc4>)
 80034f6:	401a      	ands	r2, r3
 80034f8:	2380      	movs	r3, #128	; 0x80
 80034fa:	039b      	lsls	r3, r3, #14
 80034fc:	4313      	orrs	r3, r2
 80034fe:	600b      	str	r3, [r1, #0]
 8003500:	e7b4      	b.n	800346c <phaseA+0x8>
 8003502:	4b0b      	ldr	r3, [pc, #44]	; (8003530 <phaseA+0xcc>)
 8003504:	781b      	ldrb	r3, [r3, #0]
 8003506:	2b00      	cmp	r3, #0
 8003508:	d1e9      	bne.n	80034de <phaseA+0x7a>
 800350a:	210c      	movs	r1, #12
 800350c:	6813      	ldr	r3, [r2, #0]
 800350e:	438b      	bics	r3, r1
 8003510:	3904      	subs	r1, #4
 8003512:	430b      	orrs	r3, r1
 8003514:	6013      	str	r3, [r2, #0]
 8003516:	e7ea      	b.n	80034ee <phaseA+0x8a>
 8003518:	20000034 	.word	0x20000034
 800351c:	2000001c 	.word	0x2000001c
 8003520:	20000028 	.word	0x20000028
 8003524:	48000400 	.word	0x48000400
 8003528:	ffcfffff 	.word	0xffcfffff
 800352c:	20000040 	.word	0x20000040
 8003530:	20000133 	.word	0x20000133

08003534 <comStep>:
 8003534:	b510      	push	{r4, lr}
 8003536:	2801      	cmp	r0, #1
 8003538:	d02a      	beq.n	8003590 <comStep+0x5c>
 800353a:	2802      	cmp	r0, #2
 800353c:	d02e      	beq.n	800359c <comStep+0x68>
 800353e:	2803      	cmp	r0, #3
 8003540:	d039      	beq.n	80035b6 <comStep+0x82>
 8003542:	2804      	cmp	r0, #4
 8003544:	d004      	beq.n	8003550 <comStep+0x1c>
 8003546:	2805      	cmp	r0, #5
 8003548:	d01c      	beq.n	8003584 <comStep+0x50>
 800354a:	2806      	cmp	r0, #6
 800354c:	d00d      	beq.n	800356a <comStep+0x36>
 800354e:	bd10      	pop	{r4, pc}
 8003550:	4b1c      	ldr	r3, [pc, #112]	; (80035c4 <comStep+0x90>)
 8003552:	6818      	ldr	r0, [r3, #0]
 8003554:	f7ff ff86 	bl	8003464 <phaseA>
 8003558:	4b1b      	ldr	r3, [pc, #108]	; (80035c8 <comStep+0x94>)
 800355a:	6818      	ldr	r0, [r3, #0]
 800355c:	f7ff feae 	bl	80032bc <phaseB>
 8003560:	4b1a      	ldr	r3, [pc, #104]	; (80035cc <comStep+0x98>)
 8003562:	6818      	ldr	r0, [r3, #0]
 8003564:	f7ff ff10 	bl	8003388 <phaseC>
 8003568:	e7f1      	b.n	800354e <comStep+0x1a>
 800356a:	4b17      	ldr	r3, [pc, #92]	; (80035c8 <comStep+0x94>)
 800356c:	6818      	ldr	r0, [r3, #0]
 800356e:	f7ff ff79 	bl	8003464 <phaseA>
 8003572:	4b16      	ldr	r3, [pc, #88]	; (80035cc <comStep+0x98>)
 8003574:	6818      	ldr	r0, [r3, #0]
 8003576:	f7ff fea1 	bl	80032bc <phaseB>
 800357a:	4b12      	ldr	r3, [pc, #72]	; (80035c4 <comStep+0x90>)
 800357c:	6818      	ldr	r0, [r3, #0]
 800357e:	f7ff ff03 	bl	8003388 <phaseC>
 8003582:	e7e4      	b.n	800354e <comStep+0x1a>
 8003584:	4b11      	ldr	r3, [pc, #68]	; (80035cc <comStep+0x98>)
 8003586:	6818      	ldr	r0, [r3, #0]
 8003588:	f7ff ff6c 	bl	8003464 <phaseA>
 800358c:	4b0e      	ldr	r3, [pc, #56]	; (80035c8 <comStep+0x94>)
 800358e:	e7f1      	b.n	8003574 <comStep+0x40>
 8003590:	4b0d      	ldr	r3, [pc, #52]	; (80035c8 <comStep+0x94>)
 8003592:	6818      	ldr	r0, [r3, #0]
 8003594:	f7ff ff66 	bl	8003464 <phaseA>
 8003598:	4b0a      	ldr	r3, [pc, #40]	; (80035c4 <comStep+0x90>)
 800359a:	e7de      	b.n	800355a <comStep+0x26>
 800359c:	4b0b      	ldr	r3, [pc, #44]	; (80035cc <comStep+0x98>)
 800359e:	6818      	ldr	r0, [r3, #0]
 80035a0:	f7ff ff60 	bl	8003464 <phaseA>
 80035a4:	4b07      	ldr	r3, [pc, #28]	; (80035c4 <comStep+0x90>)
 80035a6:	6818      	ldr	r0, [r3, #0]
 80035a8:	f7ff fe88 	bl	80032bc <phaseB>
 80035ac:	4b06      	ldr	r3, [pc, #24]	; (80035c8 <comStep+0x94>)
 80035ae:	6818      	ldr	r0, [r3, #0]
 80035b0:	f7ff feea 	bl	8003388 <phaseC>
 80035b4:	e7cb      	b.n	800354e <comStep+0x1a>
 80035b6:	4b03      	ldr	r3, [pc, #12]	; (80035c4 <comStep+0x90>)
 80035b8:	6818      	ldr	r0, [r3, #0]
 80035ba:	f7ff ff53 	bl	8003464 <phaseA>
 80035be:	4b03      	ldr	r3, [pc, #12]	; (80035cc <comStep+0x98>)
 80035c0:	e7f1      	b.n	80035a6 <comStep+0x72>
 80035c2:	46c0      	nop			; (mov r8, r8)
 80035c4:	20000028 	.word	0x20000028
 80035c8:	20000034 	.word	0x20000034
 80035cc:	2000001c 	.word	0x2000001c

080035d0 <allOff>:
 80035d0:	b5f0      	push	{r4, r5, r6, r7, lr}
 80035d2:	46de      	mov	lr, fp
 80035d4:	4657      	mov	r7, sl
 80035d6:	464e      	mov	r6, r9
 80035d8:	4645      	mov	r5, r8
 80035da:	4b82      	ldr	r3, [pc, #520]	; (80037e4 <allOff+0x214>)
 80035dc:	4a82      	ldr	r2, [pc, #520]	; (80037e8 <allOff+0x218>)
 80035de:	681b      	ldr	r3, [r3, #0]
 80035e0:	6811      	ldr	r1, [r2, #0]
 80035e2:	b5e0      	push	{r5, r6, r7, lr}
 80035e4:	428b      	cmp	r3, r1
 80035e6:	d100      	bne.n	80035ea <allOff+0x1a>
 80035e8:	e0c1      	b.n	800376e <allOff+0x19e>
 80035ea:	270c      	movs	r7, #12
 80035ec:	2404      	movs	r4, #4
 80035ee:	4e7f      	ldr	r6, [pc, #508]	; (80037ec <allOff+0x21c>)
 80035f0:	46a4      	mov	ip, r4
 80035f2:	6832      	ldr	r2, [r6, #0]
 80035f4:	4d7e      	ldr	r5, [pc, #504]	; (80037f0 <allOff+0x220>)
 80035f6:	43ba      	bics	r2, r7
 80035f8:	4322      	orrs	r2, r4
 80035fa:	6032      	str	r2, [r6, #0]
 80035fc:	2490      	movs	r4, #144	; 0x90
 80035fe:	2202      	movs	r2, #2
 8003600:	05e4      	lsls	r4, r4, #23
 8003602:	62b2      	str	r2, [r6, #40]	; 0x28
 8003604:	4691      	mov	r9, r2
 8003606:	6822      	ldr	r2, [r4, #0]
 8003608:	46a8      	mov	r8, r5
 800360a:	402a      	ands	r2, r5
 800360c:	2580      	movs	r5, #128	; 0x80
 800360e:	036d      	lsls	r5, r5, #13
 8003610:	432a      	orrs	r2, r5
 8003612:	6022      	str	r2, [r4, #0]
 8003614:	2280      	movs	r2, #128	; 0x80
 8003616:	00d2      	lsls	r2, r2, #3
 8003618:	4693      	mov	fp, r2
 800361a:	62a2      	str	r2, [r4, #40]	; 0x28
 800361c:	4a75      	ldr	r2, [pc, #468]	; (80037f4 <allOff+0x224>)
 800361e:	46aa      	mov	sl, r5
 8003620:	6815      	ldr	r5, [r2, #0]
 8003622:	42ab      	cmp	r3, r5
 8003624:	d10e      	bne.n	8003644 <allOff+0x74>
 8003626:	4660      	mov	r0, ip
 8003628:	6832      	ldr	r2, [r6, #0]
 800362a:	43ba      	bics	r2, r7
 800362c:	4302      	orrs	r2, r0
 800362e:	6032      	str	r2, [r6, #0]
 8003630:	464a      	mov	r2, r9
 8003632:	4640      	mov	r0, r8
 8003634:	61b2      	str	r2, [r6, #24]
 8003636:	6822      	ldr	r2, [r4, #0]
 8003638:	4002      	ands	r2, r0
 800363a:	4650      	mov	r0, sl
 800363c:	4310      	orrs	r0, r2
 800363e:	465a      	mov	r2, fp
 8003640:	6020      	str	r0, [r4, #0]
 8003642:	62a2      	str	r2, [r4, #40]	; 0x28
 8003644:	001e      	movs	r6, r3
 8003646:	428b      	cmp	r3, r1
 8003648:	d100      	bne.n	800364c <allOff+0x7c>
 800364a:	e078      	b.n	800373e <allOff+0x16e>
 800364c:	2703      	movs	r7, #3
 800364e:	4c67      	ldr	r4, [pc, #412]	; (80037ec <allOff+0x21c>)
 8003650:	46b8      	mov	r8, r7
 8003652:	6822      	ldr	r2, [r4, #0]
 8003654:	4868      	ldr	r0, [pc, #416]	; (80037f8 <allOff+0x228>)
 8003656:	43ba      	bics	r2, r7
 8003658:	3f02      	subs	r7, #2
 800365a:	433a      	orrs	r2, r7
 800365c:	6022      	str	r2, [r4, #0]
 800365e:	46bc      	mov	ip, r7
 8003660:	62a7      	str	r7, [r4, #40]	; 0x28
 8003662:	2790      	movs	r7, #144	; 0x90
 8003664:	05ff      	lsls	r7, r7, #23
 8003666:	683a      	ldr	r2, [r7, #0]
 8003668:	4681      	mov	r9, r0
 800366a:	4002      	ands	r2, r0
 800366c:	2080      	movs	r0, #128	; 0x80
 800366e:	02c0      	lsls	r0, r0, #11
 8003670:	4302      	orrs	r2, r0
 8003672:	603a      	str	r2, [r7, #0]
 8003674:	2280      	movs	r2, #128	; 0x80
 8003676:	0092      	lsls	r2, r2, #2
 8003678:	4682      	mov	sl, r0
 800367a:	62ba      	str	r2, [r7, #40]	; 0x28
 800367c:	42ab      	cmp	r3, r5
 800367e:	d10d      	bne.n	800369c <allOff+0xcc>
 8003680:	4640      	mov	r0, r8
 8003682:	6823      	ldr	r3, [r4, #0]
 8003684:	4383      	bics	r3, r0
 8003686:	4660      	mov	r0, ip
 8003688:	4303      	orrs	r3, r0
 800368a:	6023      	str	r3, [r4, #0]
 800368c:	61a0      	str	r0, [r4, #24]
 800368e:	4648      	mov	r0, r9
 8003690:	683b      	ldr	r3, [r7, #0]
 8003692:	4003      	ands	r3, r0
 8003694:	4650      	mov	r0, sl
 8003696:	4318      	orrs	r0, r3
 8003698:	6038      	str	r0, [r7, #0]
 800369a:	62ba      	str	r2, [r7, #40]	; 0x28
 800369c:	42b1      	cmp	r1, r6
 800369e:	d031      	beq.n	8003704 <allOff+0x134>
 80036a0:	2390      	movs	r3, #144	; 0x90
 80036a2:	05db      	lsls	r3, r3, #23
 80036a4:	681a      	ldr	r2, [r3, #0]
 80036a6:	4955      	ldr	r1, [pc, #340]	; (80037fc <allOff+0x22c>)
 80036a8:	4011      	ands	r1, r2
 80036aa:	2280      	movs	r2, #128	; 0x80
 80036ac:	01d2      	lsls	r2, r2, #7
 80036ae:	430a      	orrs	r2, r1
 80036b0:	601a      	str	r2, [r3, #0]
 80036b2:	2280      	movs	r2, #128	; 0x80
 80036b4:	629a      	str	r2, [r3, #40]	; 0x28
 80036b6:	681a      	ldr	r2, [r3, #0]
 80036b8:	4951      	ldr	r1, [pc, #324]	; (8003800 <allOff+0x230>)
 80036ba:	4011      	ands	r1, r2
 80036bc:	2280      	movs	r2, #128	; 0x80
 80036be:	0252      	lsls	r2, r2, #9
 80036c0:	430a      	orrs	r2, r1
 80036c2:	601a      	str	r2, [r3, #0]
 80036c4:	2280      	movs	r2, #128	; 0x80
 80036c6:	0052      	lsls	r2, r2, #1
 80036c8:	629a      	str	r2, [r3, #40]	; 0x28
 80036ca:	42b5      	cmp	r5, r6
 80036cc:	d114      	bne.n	80036f8 <allOff+0x128>
 80036ce:	2390      	movs	r3, #144	; 0x90
 80036d0:	05db      	lsls	r3, r3, #23
 80036d2:	681a      	ldr	r2, [r3, #0]
 80036d4:	4949      	ldr	r1, [pc, #292]	; (80037fc <allOff+0x22c>)
 80036d6:	4011      	ands	r1, r2
 80036d8:	2280      	movs	r2, #128	; 0x80
 80036da:	01d2      	lsls	r2, r2, #7
 80036dc:	430a      	orrs	r2, r1
 80036de:	601a      	str	r2, [r3, #0]
 80036e0:	2280      	movs	r2, #128	; 0x80
 80036e2:	619a      	str	r2, [r3, #24]
 80036e4:	681a      	ldr	r2, [r3, #0]
 80036e6:	4946      	ldr	r1, [pc, #280]	; (8003800 <allOff+0x230>)
 80036e8:	4011      	ands	r1, r2
 80036ea:	2280      	movs	r2, #128	; 0x80
 80036ec:	0252      	lsls	r2, r2, #9
 80036ee:	430a      	orrs	r2, r1
 80036f0:	601a      	str	r2, [r3, #0]
 80036f2:	2280      	movs	r2, #128	; 0x80
 80036f4:	0052      	lsls	r2, r2, #1
 80036f6:	629a      	str	r2, [r3, #40]	; 0x28
 80036f8:	bc3c      	pop	{r2, r3, r4, r5}
 80036fa:	4690      	mov	r8, r2
 80036fc:	4699      	mov	r9, r3
 80036fe:	46a2      	mov	sl, r4
 8003700:	46ab      	mov	fp, r5
 8003702:	bdf0      	pop	{r4, r5, r6, r7, pc}
 8003704:	4b3f      	ldr	r3, [pc, #252]	; (8003804 <allOff+0x234>)
 8003706:	781b      	ldrb	r3, [r3, #0]
 8003708:	2b00      	cmp	r3, #0
 800370a:	d15d      	bne.n	80037c8 <allOff+0x1f8>
 800370c:	2390      	movs	r3, #144	; 0x90
 800370e:	05db      	lsls	r3, r3, #23
 8003710:	681a      	ldr	r2, [r3, #0]
 8003712:	493a      	ldr	r1, [pc, #232]	; (80037fc <allOff+0x22c>)
 8003714:	4011      	ands	r1, r2
 8003716:	2280      	movs	r2, #128	; 0x80
 8003718:	01d2      	lsls	r2, r2, #7
 800371a:	430a      	orrs	r2, r1
 800371c:	601a      	str	r2, [r3, #0]
 800371e:	2280      	movs	r2, #128	; 0x80
 8003720:	629a      	str	r2, [r3, #40]	; 0x28
 8003722:	2190      	movs	r1, #144	; 0x90
 8003724:	05c9      	lsls	r1, r1, #23
 8003726:	680b      	ldr	r3, [r1, #0]
 8003728:	4a35      	ldr	r2, [pc, #212]	; (8003800 <allOff+0x230>)
 800372a:	401a      	ands	r2, r3
 800372c:	2380      	movs	r3, #128	; 0x80
 800372e:	029b      	lsls	r3, r3, #10
 8003730:	4313      	orrs	r3, r2
 8003732:	600b      	str	r3, [r1, #0]
 8003734:	4b2b      	ldr	r3, [pc, #172]	; (80037e4 <allOff+0x214>)
 8003736:	681b      	ldr	r3, [r3, #0]
 8003738:	42b3      	cmp	r3, r6
 800373a:	d1c6      	bne.n	80036ca <allOff+0xfa>
 800373c:	e7b0      	b.n	80036a0 <allOff+0xd0>
 800373e:	4a31      	ldr	r2, [pc, #196]	; (8003804 <allOff+0x234>)
 8003740:	4c2a      	ldr	r4, [pc, #168]	; (80037ec <allOff+0x21c>)
 8003742:	7812      	ldrb	r2, [r2, #0]
 8003744:	2a00      	cmp	r2, #0
 8003746:	d134      	bne.n	80037b2 <allOff+0x1e2>
 8003748:	2603      	movs	r6, #3
 800374a:	6822      	ldr	r2, [r4, #0]
 800374c:	43b2      	bics	r2, r6
 800374e:	3e02      	subs	r6, #2
 8003750:	4332      	orrs	r2, r6
 8003752:	6022      	str	r2, [r4, #0]
 8003754:	62a6      	str	r6, [r4, #40]	; 0x28
 8003756:	2690      	movs	r6, #144	; 0x90
 8003758:	05f6      	lsls	r6, r6, #23
 800375a:	6832      	ldr	r2, [r6, #0]
 800375c:	4c26      	ldr	r4, [pc, #152]	; (80037f8 <allOff+0x228>)
 800375e:	4014      	ands	r4, r2
 8003760:	2280      	movs	r2, #128	; 0x80
 8003762:	0312      	lsls	r2, r2, #12
 8003764:	4322      	orrs	r2, r4
 8003766:	6032      	str	r2, [r6, #0]
 8003768:	000e      	movs	r6, r1
 800376a:	0019      	movs	r1, r3
 800376c:	e76e      	b.n	800364c <allOff+0x7c>
 800376e:	4a25      	ldr	r2, [pc, #148]	; (8003804 <allOff+0x234>)
 8003770:	4c1e      	ldr	r4, [pc, #120]	; (80037ec <allOff+0x21c>)
 8003772:	7812      	ldrb	r2, [r2, #0]
 8003774:	2a00      	cmp	r2, #0
 8003776:	d111      	bne.n	800379c <allOff+0x1cc>
 8003778:	250c      	movs	r5, #12
 800377a:	6822      	ldr	r2, [r4, #0]
 800377c:	43aa      	bics	r2, r5
 800377e:	3d08      	subs	r5, #8
 8003780:	432a      	orrs	r2, r5
 8003782:	6022      	str	r2, [r4, #0]
 8003784:	2202      	movs	r2, #2
 8003786:	62a2      	str	r2, [r4, #40]	; 0x28
 8003788:	2590      	movs	r5, #144	; 0x90
 800378a:	05ed      	lsls	r5, r5, #23
 800378c:	682a      	ldr	r2, [r5, #0]
 800378e:	4c18      	ldr	r4, [pc, #96]	; (80037f0 <allOff+0x220>)
 8003790:	4014      	ands	r4, r2
 8003792:	2280      	movs	r2, #128	; 0x80
 8003794:	0392      	lsls	r2, r2, #14
 8003796:	4322      	orrs	r2, r4
 8003798:	602a      	str	r2, [r5, #0]
 800379a:	e726      	b.n	80035ea <allOff+0x1a>
 800379c:	4a1a      	ldr	r2, [pc, #104]	; (8003808 <allOff+0x238>)
 800379e:	7812      	ldrb	r2, [r2, #0]
 80037a0:	2a00      	cmp	r2, #0
 80037a2:	d1e9      	bne.n	8003778 <allOff+0x1a8>
 80037a4:	250c      	movs	r5, #12
 80037a6:	6822      	ldr	r2, [r4, #0]
 80037a8:	43aa      	bics	r2, r5
 80037aa:	3d04      	subs	r5, #4
 80037ac:	432a      	orrs	r2, r5
 80037ae:	6022      	str	r2, [r4, #0]
 80037b0:	e7ea      	b.n	8003788 <allOff+0x1b8>
 80037b2:	4a15      	ldr	r2, [pc, #84]	; (8003808 <allOff+0x238>)
 80037b4:	7812      	ldrb	r2, [r2, #0]
 80037b6:	2a00      	cmp	r2, #0
 80037b8:	d1c6      	bne.n	8003748 <allOff+0x178>
 80037ba:	2603      	movs	r6, #3
 80037bc:	6822      	ldr	r2, [r4, #0]
 80037be:	43b2      	bics	r2, r6
 80037c0:	3e01      	subs	r6, #1
 80037c2:	4332      	orrs	r2, r6
 80037c4:	6022      	str	r2, [r4, #0]
 80037c6:	e7c6      	b.n	8003756 <allOff+0x186>
 80037c8:	4b0f      	ldr	r3, [pc, #60]	; (8003808 <allOff+0x238>)
 80037ca:	781b      	ldrb	r3, [r3, #0]
 80037cc:	2b00      	cmp	r3, #0
 80037ce:	d19d      	bne.n	800370c <allOff+0x13c>
 80037d0:	2190      	movs	r1, #144	; 0x90
 80037d2:	05c9      	lsls	r1, r1, #23
 80037d4:	680b      	ldr	r3, [r1, #0]
 80037d6:	4a09      	ldr	r2, [pc, #36]	; (80037fc <allOff+0x22c>)
 80037d8:	401a      	ands	r2, r3
 80037da:	2380      	movs	r3, #128	; 0x80
 80037dc:	021b      	lsls	r3, r3, #8
 80037de:	4313      	orrs	r3, r2
 80037e0:	600b      	str	r3, [r1, #0]
 80037e2:	e79e      	b.n	8003722 <allOff+0x152>
 80037e4:	2000001c 	.word	0x2000001c
 80037e8:	20000034 	.word	0x20000034
 80037ec:	48000400 	.word	0x48000400
 80037f0:	ffcfffff 	.word	0xffcfffff
 80037f4:	20000028 	.word	0x20000028
 80037f8:	fff3ffff 	.word	0xfff3ffff
 80037fc:	ffff3fff 	.word	0xffff3fff
 8003800:	fffcffff 	.word	0xfffcffff
 8003804:	20000040 	.word	0x20000040
 8003808:	20000133 	.word	0x20000133

0800380c <fullBrake>:
 800380c:	b5f0      	push	{r4, r5, r6, r7, lr}
 800380e:	4b8a      	ldr	r3, [pc, #552]	; (8003a38 <fullBrake+0x22c>)
 8003810:	4d8a      	ldr	r5, [pc, #552]	; (8003a3c <fullBrake+0x230>)
 8003812:	681a      	ldr	r2, [r3, #0]
 8003814:	6829      	ldr	r1, [r5, #0]
 8003816:	4291      	cmp	r1, r2
 8003818:	d100      	bne.n	800381c <fullBrake+0x10>
 800381a:	e0cc      	b.n	80039b6 <fullBrake+0x1aa>
 800381c:	4b88      	ldr	r3, [pc, #544]	; (8003a40 <fullBrake+0x234>)
 800381e:	681b      	ldr	r3, [r3, #0]
 8003820:	4299      	cmp	r1, r3
 8003822:	d04a      	beq.n	80038ba <fullBrake+0xae>
 8003824:	260c      	movs	r6, #12
 8003826:	4c87      	ldr	r4, [pc, #540]	; (8003a44 <fullBrake+0x238>)
 8003828:	6820      	ldr	r0, [r4, #0]
 800382a:	43b0      	bics	r0, r6
 800382c:	3e08      	subs	r6, #8
 800382e:	4330      	orrs	r0, r6
 8003830:	6020      	str	r0, [r4, #0]
 8003832:	2002      	movs	r0, #2
 8003834:	61a0      	str	r0, [r4, #24]
 8003836:	2090      	movs	r0, #144	; 0x90
 8003838:	05c0      	lsls	r0, r0, #23
 800383a:	6804      	ldr	r4, [r0, #0]
 800383c:	4e82      	ldr	r6, [pc, #520]	; (8003a48 <fullBrake+0x23c>)
 800383e:	4026      	ands	r6, r4
 8003840:	2480      	movs	r4, #128	; 0x80
 8003842:	0364      	lsls	r4, r4, #13
 8003844:	4334      	orrs	r4, r6
 8003846:	6004      	str	r4, [r0, #0]
 8003848:	2480      	movs	r4, #128	; 0x80
 800384a:	001e      	movs	r6, r3
 800384c:	000b      	movs	r3, r1
 800384e:	00e4      	lsls	r4, r4, #3
 8003850:	6284      	str	r4, [r0, #40]	; 0x28
 8003852:	4293      	cmp	r3, r2
 8003854:	d100      	bne.n	8003858 <fullBrake+0x4c>
 8003856:	e093      	b.n	8003980 <fullBrake+0x174>
 8003858:	42b3      	cmp	r3, r6
 800385a:	d100      	bne.n	800385e <fullBrake+0x52>
 800385c:	e07b      	b.n	8003956 <fullBrake+0x14a>
 800385e:	2403      	movs	r4, #3
 8003860:	4878      	ldr	r0, [pc, #480]	; (8003a44 <fullBrake+0x238>)
 8003862:	6801      	ldr	r1, [r0, #0]
 8003864:	43a1      	bics	r1, r4
 8003866:	3c02      	subs	r4, #2
 8003868:	4321      	orrs	r1, r4
 800386a:	6001      	str	r1, [r0, #0]
 800386c:	2190      	movs	r1, #144	; 0x90
 800386e:	6184      	str	r4, [r0, #24]
 8003870:	05c9      	lsls	r1, r1, #23
 8003872:	6808      	ldr	r0, [r1, #0]
 8003874:	4c75      	ldr	r4, [pc, #468]	; (8003a4c <fullBrake+0x240>)
 8003876:	4004      	ands	r4, r0
 8003878:	2080      	movs	r0, #128	; 0x80
 800387a:	02c0      	lsls	r0, r0, #11
 800387c:	4320      	orrs	r0, r4
 800387e:	6008      	str	r0, [r1, #0]
 8003880:	2080      	movs	r0, #128	; 0x80
 8003882:	0080      	lsls	r0, r0, #2
 8003884:	6288      	str	r0, [r1, #40]	; 0x28
 8003886:	4293      	cmp	r3, r2
 8003888:	d031      	beq.n	80038ee <fullBrake+0xe2>
 800388a:	42b3      	cmp	r3, r6
 800388c:	d049      	beq.n	8003922 <fullBrake+0x116>
 800388e:	2390      	movs	r3, #144	; 0x90
 8003890:	05db      	lsls	r3, r3, #23
 8003892:	681a      	ldr	r2, [r3, #0]
 8003894:	496e      	ldr	r1, [pc, #440]	; (8003a50 <fullBrake+0x244>)
 8003896:	4011      	ands	r1, r2
 8003898:	2280      	movs	r2, #128	; 0x80
 800389a:	01d2      	lsls	r2, r2, #7
 800389c:	430a      	orrs	r2, r1
 800389e:	601a      	str	r2, [r3, #0]
 80038a0:	2280      	movs	r2, #128	; 0x80
 80038a2:	619a      	str	r2, [r3, #24]
 80038a4:	681a      	ldr	r2, [r3, #0]
 80038a6:	496b      	ldr	r1, [pc, #428]	; (8003a54 <fullBrake+0x248>)
 80038a8:	4011      	ands	r1, r2
 80038aa:	2280      	movs	r2, #128	; 0x80
 80038ac:	0252      	lsls	r2, r2, #9
 80038ae:	430a      	orrs	r2, r1
 80038b0:	601a      	str	r2, [r3, #0]
 80038b2:	2280      	movs	r2, #128	; 0x80
 80038b4:	0052      	lsls	r2, r2, #1
 80038b6:	629a      	str	r2, [r3, #40]	; 0x28
 80038b8:	bdf0      	pop	{r4, r5, r6, r7, pc}
 80038ba:	000e      	movs	r6, r1
 80038bc:	270c      	movs	r7, #12
 80038be:	4c61      	ldr	r4, [pc, #388]	; (8003a44 <fullBrake+0x238>)
 80038c0:	6820      	ldr	r0, [r4, #0]
 80038c2:	43b8      	bics	r0, r7
 80038c4:	3f08      	subs	r7, #8
 80038c6:	4338      	orrs	r0, r7
 80038c8:	6020      	str	r0, [r4, #0]
 80038ca:	2002      	movs	r0, #2
 80038cc:	62a0      	str	r0, [r4, #40]	; 0x28
 80038ce:	2090      	movs	r0, #144	; 0x90
 80038d0:	05c0      	lsls	r0, r0, #23
 80038d2:	6804      	ldr	r4, [r0, #0]
 80038d4:	4f5c      	ldr	r7, [pc, #368]	; (8003a48 <fullBrake+0x23c>)
 80038d6:	4027      	ands	r7, r4
 80038d8:	2480      	movs	r4, #128	; 0x80
 80038da:	0364      	lsls	r4, r4, #13
 80038dc:	433c      	orrs	r4, r7
 80038de:	6004      	str	r4, [r0, #0]
 80038e0:	2480      	movs	r4, #128	; 0x80
 80038e2:	00e4      	lsls	r4, r4, #3
 80038e4:	6284      	str	r4, [r0, #40]	; 0x28
 80038e6:	4299      	cmp	r1, r3
 80038e8:	d1b3      	bne.n	8003852 <fullBrake+0x46>
 80038ea:	0033      	movs	r3, r6
 80038ec:	e79a      	b.n	8003824 <fullBrake+0x18>
 80038ee:	4a5a      	ldr	r2, [pc, #360]	; (8003a58 <fullBrake+0x24c>)
 80038f0:	7812      	ldrb	r2, [r2, #0]
 80038f2:	2a00      	cmp	r2, #0
 80038f4:	d17d      	bne.n	80039f2 <fullBrake+0x1e6>
 80038f6:	2290      	movs	r2, #144	; 0x90
 80038f8:	05d2      	lsls	r2, r2, #23
 80038fa:	6811      	ldr	r1, [r2, #0]
 80038fc:	4854      	ldr	r0, [pc, #336]	; (8003a50 <fullBrake+0x244>)
 80038fe:	4008      	ands	r0, r1
 8003900:	2180      	movs	r1, #128	; 0x80
 8003902:	01c9      	lsls	r1, r1, #7
 8003904:	4301      	orrs	r1, r0
 8003906:	6011      	str	r1, [r2, #0]
 8003908:	2180      	movs	r1, #128	; 0x80
 800390a:	6291      	str	r1, [r2, #40]	; 0x28
 800390c:	2090      	movs	r0, #144	; 0x90
 800390e:	05c0      	lsls	r0, r0, #23
 8003910:	6802      	ldr	r2, [r0, #0]
 8003912:	4950      	ldr	r1, [pc, #320]	; (8003a54 <fullBrake+0x248>)
 8003914:	4011      	ands	r1, r2
 8003916:	2280      	movs	r2, #128	; 0x80
 8003918:	0292      	lsls	r2, r2, #10
 800391a:	430a      	orrs	r2, r1
 800391c:	6002      	str	r2, [r0, #0]
 800391e:	42b3      	cmp	r3, r6
 8003920:	d114      	bne.n	800394c <fullBrake+0x140>
 8003922:	2290      	movs	r2, #144	; 0x90
 8003924:	05d2      	lsls	r2, r2, #23
 8003926:	6811      	ldr	r1, [r2, #0]
 8003928:	4849      	ldr	r0, [pc, #292]	; (8003a50 <fullBrake+0x244>)
 800392a:	4008      	ands	r0, r1
 800392c:	2180      	movs	r1, #128	; 0x80
 800392e:	01c9      	lsls	r1, r1, #7
 8003930:	4301      	orrs	r1, r0
 8003932:	6011      	str	r1, [r2, #0]
 8003934:	2180      	movs	r1, #128	; 0x80
 8003936:	6291      	str	r1, [r2, #40]	; 0x28
 8003938:	6811      	ldr	r1, [r2, #0]
 800393a:	4846      	ldr	r0, [pc, #280]	; (8003a54 <fullBrake+0x248>)
 800393c:	4008      	ands	r0, r1
 800393e:	2180      	movs	r1, #128	; 0x80
 8003940:	0249      	lsls	r1, r1, #9
 8003942:	4301      	orrs	r1, r0
 8003944:	6011      	str	r1, [r2, #0]
 8003946:	2180      	movs	r1, #128	; 0x80
 8003948:	0049      	lsls	r1, r1, #1
 800394a:	6291      	str	r1, [r2, #40]	; 0x28
 800394c:	682a      	ldr	r2, [r5, #0]
 800394e:	4293      	cmp	r3, r2
 8003950:	d1b2      	bne.n	80038b8 <fullBrake+0xac>
 8003952:	e79c      	b.n	800388e <fullBrake+0x82>
 8003954:	000a      	movs	r2, r1
 8003956:	2403      	movs	r4, #3
 8003958:	483a      	ldr	r0, [pc, #232]	; (8003a44 <fullBrake+0x238>)
 800395a:	6801      	ldr	r1, [r0, #0]
 800395c:	43a1      	bics	r1, r4
 800395e:	3c02      	subs	r4, #2
 8003960:	4321      	orrs	r1, r4
 8003962:	6001      	str	r1, [r0, #0]
 8003964:	2190      	movs	r1, #144	; 0x90
 8003966:	6284      	str	r4, [r0, #40]	; 0x28
 8003968:	05c9      	lsls	r1, r1, #23
 800396a:	6808      	ldr	r0, [r1, #0]
 800396c:	4c37      	ldr	r4, [pc, #220]	; (8003a4c <fullBrake+0x240>)
 800396e:	4004      	ands	r4, r0
 8003970:	2080      	movs	r0, #128	; 0x80
 8003972:	02c0      	lsls	r0, r0, #11
 8003974:	4320      	orrs	r0, r4
 8003976:	6008      	str	r0, [r1, #0]
 8003978:	2080      	movs	r0, #128	; 0x80
 800397a:	0080      	lsls	r0, r0, #2
 800397c:	6288      	str	r0, [r1, #40]	; 0x28
 800397e:	e76e      	b.n	800385e <fullBrake+0x52>
 8003980:	4935      	ldr	r1, [pc, #212]	; (8003a58 <fullBrake+0x24c>)
 8003982:	4830      	ldr	r0, [pc, #192]	; (8003a44 <fullBrake+0x238>)
 8003984:	7809      	ldrb	r1, [r1, #0]
 8003986:	2900      	cmp	r1, #0
 8003988:	d14b      	bne.n	8003a22 <fullBrake+0x216>
 800398a:	2403      	movs	r4, #3
 800398c:	6801      	ldr	r1, [r0, #0]
 800398e:	43a1      	bics	r1, r4
 8003990:	3c02      	subs	r4, #2
 8003992:	4321      	orrs	r1, r4
 8003994:	6001      	str	r1, [r0, #0]
 8003996:	6284      	str	r4, [r0, #40]	; 0x28
 8003998:	2490      	movs	r4, #144	; 0x90
 800399a:	05e4      	lsls	r4, r4, #23
 800399c:	6821      	ldr	r1, [r4, #0]
 800399e:	482b      	ldr	r0, [pc, #172]	; (8003a4c <fullBrake+0x240>)
 80039a0:	4008      	ands	r0, r1
 80039a2:	2180      	movs	r1, #128	; 0x80
 80039a4:	0309      	lsls	r1, r1, #12
 80039a6:	4301      	orrs	r1, r0
 80039a8:	6021      	str	r1, [r4, #0]
 80039aa:	0019      	movs	r1, r3
 80039ac:	0013      	movs	r3, r2
 80039ae:	42b2      	cmp	r2, r6
 80039b0:	d0d0      	beq.n	8003954 <fullBrake+0x148>
 80039b2:	000a      	movs	r2, r1
 80039b4:	e753      	b.n	800385e <fullBrake+0x52>
 80039b6:	4b28      	ldr	r3, [pc, #160]	; (8003a58 <fullBrake+0x24c>)
 80039b8:	4822      	ldr	r0, [pc, #136]	; (8003a44 <fullBrake+0x238>)
 80039ba:	781b      	ldrb	r3, [r3, #0]
 80039bc:	2b00      	cmp	r3, #0
 80039be:	d125      	bne.n	8003a0c <fullBrake+0x200>
 80039c0:	240c      	movs	r4, #12
 80039c2:	6803      	ldr	r3, [r0, #0]
 80039c4:	43a3      	bics	r3, r4
 80039c6:	3c08      	subs	r4, #8
 80039c8:	4323      	orrs	r3, r4
 80039ca:	6003      	str	r3, [r0, #0]
 80039cc:	2302      	movs	r3, #2
 80039ce:	6283      	str	r3, [r0, #40]	; 0x28
 80039d0:	2490      	movs	r4, #144	; 0x90
 80039d2:	05e4      	lsls	r4, r4, #23
 80039d4:	6823      	ldr	r3, [r4, #0]
 80039d6:	481c      	ldr	r0, [pc, #112]	; (8003a48 <fullBrake+0x23c>)
 80039d8:	4018      	ands	r0, r3
 80039da:	2380      	movs	r3, #128	; 0x80
 80039dc:	039b      	lsls	r3, r3, #14
 80039de:	4303      	orrs	r3, r0
 80039e0:	6023      	str	r3, [r4, #0]
 80039e2:	4b17      	ldr	r3, [pc, #92]	; (8003a40 <fullBrake+0x234>)
 80039e4:	681b      	ldr	r3, [r3, #0]
 80039e6:	429a      	cmp	r2, r3
 80039e8:	d000      	beq.n	80039ec <fullBrake+0x1e0>
 80039ea:	e71b      	b.n	8003824 <fullBrake+0x18>
 80039ec:	0016      	movs	r6, r2
 80039ee:	000b      	movs	r3, r1
 80039f0:	e764      	b.n	80038bc <fullBrake+0xb0>
 80039f2:	4a1a      	ldr	r2, [pc, #104]	; (8003a5c <fullBrake+0x250>)
 80039f4:	7812      	ldrb	r2, [r2, #0]
 80039f6:	2a00      	cmp	r2, #0
 80039f8:	d000      	beq.n	80039fc <fullBrake+0x1f0>
 80039fa:	e77c      	b.n	80038f6 <fullBrake+0xea>
 80039fc:	680a      	ldr	r2, [r1, #0]
 80039fe:	4814      	ldr	r0, [pc, #80]	; (8003a50 <fullBrake+0x244>)
 8003a00:	4010      	ands	r0, r2
 8003a02:	2280      	movs	r2, #128	; 0x80
 8003a04:	0212      	lsls	r2, r2, #8
 8003a06:	4302      	orrs	r2, r0
 8003a08:	600a      	str	r2, [r1, #0]
 8003a0a:	e77f      	b.n	800390c <fullBrake+0x100>
 8003a0c:	4b13      	ldr	r3, [pc, #76]	; (8003a5c <fullBrake+0x250>)
 8003a0e:	781b      	ldrb	r3, [r3, #0]
 8003a10:	2b00      	cmp	r3, #0
 8003a12:	d1d5      	bne.n	80039c0 <fullBrake+0x1b4>
 8003a14:	240c      	movs	r4, #12
 8003a16:	6803      	ldr	r3, [r0, #0]
 8003a18:	43a3      	bics	r3, r4
 8003a1a:	3c04      	subs	r4, #4
 8003a1c:	4323      	orrs	r3, r4
 8003a1e:	6003      	str	r3, [r0, #0]
 8003a20:	e7d6      	b.n	80039d0 <fullBrake+0x1c4>
 8003a22:	490e      	ldr	r1, [pc, #56]	; (8003a5c <fullBrake+0x250>)
 8003a24:	7809      	ldrb	r1, [r1, #0]
 8003a26:	2900      	cmp	r1, #0
 8003a28:	d1af      	bne.n	800398a <fullBrake+0x17e>
 8003a2a:	2403      	movs	r4, #3
 8003a2c:	6801      	ldr	r1, [r0, #0]
 8003a2e:	43a1      	bics	r1, r4
 8003a30:	3c01      	subs	r4, #1
 8003a32:	4321      	orrs	r1, r4
 8003a34:	6001      	str	r1, [r0, #0]
 8003a36:	e7af      	b.n	8003998 <fullBrake+0x18c>
 8003a38:	20000034 	.word	0x20000034
 8003a3c:	20000028 	.word	0x20000028
 8003a40:	2000001c 	.word	0x2000001c
 8003a44:	48000400 	.word	0x48000400
 8003a48:	ffcfffff 	.word	0xffcfffff
 8003a4c:	fff3ffff 	.word	0xfff3ffff
 8003a50:	ffff3fff 	.word	0xffff3fff
 8003a54:	fffcffff 	.word	0xfffcffff
 8003a58:	20000040 	.word	0x20000040
 8003a5c:	20000133 	.word	0x20000133

08003a60 <proBrake>:
 8003a60:	b5f0      	push	{r4, r5, r6, r7, lr}
 8003a62:	46c6      	mov	lr, r8
 8003a64:	b500      	push	{lr}
 8003a66:	4a7b      	ldr	r2, [pc, #492]	; (8003c54 <proBrake+0x1f4>)
 8003a68:	4b7b      	ldr	r3, [pc, #492]	; (8003c58 <proBrake+0x1f8>)
 8003a6a:	7812      	ldrb	r2, [r2, #0]
 8003a6c:	681b      	ldr	r3, [r3, #0]
 8003a6e:	487b      	ldr	r0, [pc, #492]	; (8003c5c <proBrake+0x1fc>)
 8003a70:	2a00      	cmp	r2, #0
 8003a72:	d004      	beq.n	8003a7e <proBrake+0x1e>
 8003a74:	497a      	ldr	r1, [pc, #488]	; (8003c60 <proBrake+0x200>)
 8003a76:	7809      	ldrb	r1, [r1, #0]
 8003a78:	2900      	cmp	r1, #0
 8003a7a:	d100      	bne.n	8003a7e <proBrake+0x1e>
 8003a7c:	e0e2      	b.n	8003c44 <proBrake+0x1e4>
 8003a7e:	240c      	movs	r4, #12
 8003a80:	6801      	ldr	r1, [r0, #0]
 8003a82:	43a1      	bics	r1, r4
 8003a84:	3c08      	subs	r4, #8
 8003a86:	4321      	orrs	r1, r4
 8003a88:	6001      	str	r1, [r0, #0]
 8003a8a:	2102      	movs	r1, #2
 8003a8c:	6281      	str	r1, [r0, #40]	; 0x28
 8003a8e:	2490      	movs	r4, #144	; 0x90
 8003a90:	2180      	movs	r1, #128	; 0x80
 8003a92:	05e4      	lsls	r4, r4, #23
 8003a94:	6820      	ldr	r0, [r4, #0]
 8003a96:	4d73      	ldr	r5, [pc, #460]	; (8003c64 <proBrake+0x204>)
 8003a98:	0389      	lsls	r1, r1, #14
 8003a9a:	4028      	ands	r0, r5
 8003a9c:	4301      	orrs	r1, r0
 8003a9e:	6021      	str	r1, [r4, #0]
 8003aa0:	4971      	ldr	r1, [pc, #452]	; (8003c68 <proBrake+0x208>)
 8003aa2:	6808      	ldr	r0, [r1, #0]
 8003aa4:	4283      	cmp	r3, r0
 8003aa6:	d100      	bne.n	8003aaa <proBrake+0x4a>
 8003aa8:	e07f      	b.n	8003baa <proBrake+0x14a>
 8003aaa:	4970      	ldr	r1, [pc, #448]	; (8003c6c <proBrake+0x20c>)
 8003aac:	6809      	ldr	r1, [r1, #0]
 8003aae:	428b      	cmp	r3, r1
 8003ab0:	d114      	bne.n	8003adc <proBrake+0x7c>
 8003ab2:	260c      	movs	r6, #12
 8003ab4:	4d69      	ldr	r5, [pc, #420]	; (8003c5c <proBrake+0x1fc>)
 8003ab6:	682c      	ldr	r4, [r5, #0]
 8003ab8:	43b4      	bics	r4, r6
 8003aba:	3e08      	subs	r6, #8
 8003abc:	4334      	orrs	r4, r6
 8003abe:	602c      	str	r4, [r5, #0]
 8003ac0:	2402      	movs	r4, #2
 8003ac2:	61ac      	str	r4, [r5, #24]
 8003ac4:	2490      	movs	r4, #144	; 0x90
 8003ac6:	05e4      	lsls	r4, r4, #23
 8003ac8:	6825      	ldr	r5, [r4, #0]
 8003aca:	4e66      	ldr	r6, [pc, #408]	; (8003c64 <proBrake+0x204>)
 8003acc:	402e      	ands	r6, r5
 8003ace:	2580      	movs	r5, #128	; 0x80
 8003ad0:	036d      	lsls	r5, r5, #13
 8003ad2:	4335      	orrs	r5, r6
 8003ad4:	6025      	str	r5, [r4, #0]
 8003ad6:	2580      	movs	r5, #128	; 0x80
 8003ad8:	00ed      	lsls	r5, r5, #3
 8003ada:	62a5      	str	r5, [r4, #40]	; 0x28
 8003adc:	4d5f      	ldr	r5, [pc, #380]	; (8003c5c <proBrake+0x1fc>)
 8003ade:	2a00      	cmp	r2, #0
 8003ae0:	d004      	beq.n	8003aec <proBrake+0x8c>
 8003ae2:	4c5f      	ldr	r4, [pc, #380]	; (8003c60 <proBrake+0x200>)
 8003ae4:	7824      	ldrb	r4, [r4, #0]
 8003ae6:	2c00      	cmp	r4, #0
 8003ae8:	d100      	bne.n	8003aec <proBrake+0x8c>
 8003aea:	e0a4      	b.n	8003c36 <proBrake+0x1d6>
 8003aec:	2603      	movs	r6, #3
 8003aee:	682c      	ldr	r4, [r5, #0]
 8003af0:	43b4      	bics	r4, r6
 8003af2:	3e02      	subs	r6, #2
 8003af4:	4334      	orrs	r4, r6
 8003af6:	602c      	str	r4, [r5, #0]
 8003af8:	62ae      	str	r6, [r5, #40]	; 0x28
 8003afa:	2690      	movs	r6, #144	; 0x90
 8003afc:	2480      	movs	r4, #128	; 0x80
 8003afe:	05f6      	lsls	r6, r6, #23
 8003b00:	6835      	ldr	r5, [r6, #0]
 8003b02:	4f5b      	ldr	r7, [pc, #364]	; (8003c70 <proBrake+0x210>)
 8003b04:	0324      	lsls	r4, r4, #12
 8003b06:	403d      	ands	r5, r7
 8003b08:	432c      	orrs	r4, r5
 8003b0a:	6034      	str	r4, [r6, #0]
 8003b0c:	4283      	cmp	r3, r0
 8003b0e:	d100      	bne.n	8003b12 <proBrake+0xb2>
 8003b10:	e071      	b.n	8003bf6 <proBrake+0x196>
 8003b12:	428b      	cmp	r3, r1
 8003b14:	d113      	bne.n	8003b3e <proBrake+0xde>
 8003b16:	2603      	movs	r6, #3
 8003b18:	4d50      	ldr	r5, [pc, #320]	; (8003c5c <proBrake+0x1fc>)
 8003b1a:	682c      	ldr	r4, [r5, #0]
 8003b1c:	43b4      	bics	r4, r6
 8003b1e:	3e02      	subs	r6, #2
 8003b20:	4334      	orrs	r4, r6
 8003b22:	602c      	str	r4, [r5, #0]
 8003b24:	2490      	movs	r4, #144	; 0x90
 8003b26:	61ae      	str	r6, [r5, #24]
 8003b28:	05e4      	lsls	r4, r4, #23
 8003b2a:	6825      	ldr	r5, [r4, #0]
 8003b2c:	4e50      	ldr	r6, [pc, #320]	; (8003c70 <proBrake+0x210>)
 8003b2e:	402e      	ands	r6, r5
 8003b30:	2580      	movs	r5, #128	; 0x80
 8003b32:	02ed      	lsls	r5, r5, #11
 8003b34:	4335      	orrs	r5, r6
 8003b36:	6025      	str	r5, [r4, #0]
 8003b38:	2580      	movs	r5, #128	; 0x80
 8003b3a:	00ad      	lsls	r5, r5, #2
 8003b3c:	62a5      	str	r5, [r4, #40]	; 0x28
 8003b3e:	2a00      	cmp	r2, #0
 8003b40:	d003      	beq.n	8003b4a <proBrake+0xea>
 8003b42:	4a47      	ldr	r2, [pc, #284]	; (8003c60 <proBrake+0x200>)
 8003b44:	7812      	ldrb	r2, [r2, #0]
 8003b46:	2a00      	cmp	r2, #0
 8003b48:	d06b      	beq.n	8003c22 <proBrake+0x1c2>
 8003b4a:	2290      	movs	r2, #144	; 0x90
 8003b4c:	05d2      	lsls	r2, r2, #23
 8003b4e:	6814      	ldr	r4, [r2, #0]
 8003b50:	4d48      	ldr	r5, [pc, #288]	; (8003c74 <proBrake+0x214>)
 8003b52:	4025      	ands	r5, r4
 8003b54:	2480      	movs	r4, #128	; 0x80
 8003b56:	01e4      	lsls	r4, r4, #7
 8003b58:	432c      	orrs	r4, r5
 8003b5a:	6014      	str	r4, [r2, #0]
 8003b5c:	2480      	movs	r4, #128	; 0x80
 8003b5e:	6294      	str	r4, [r2, #40]	; 0x28
 8003b60:	2290      	movs	r2, #144	; 0x90
 8003b62:	2480      	movs	r4, #128	; 0x80
 8003b64:	05d2      	lsls	r2, r2, #23
 8003b66:	6815      	ldr	r5, [r2, #0]
 8003b68:	4e43      	ldr	r6, [pc, #268]	; (8003c78 <proBrake+0x218>)
 8003b6a:	02a4      	lsls	r4, r4, #10
 8003b6c:	4035      	ands	r5, r6
 8003b6e:	432c      	orrs	r4, r5
 8003b70:	6014      	str	r4, [r2, #0]
 8003b72:	4283      	cmp	r3, r0
 8003b74:	d02c      	beq.n	8003bd0 <proBrake+0x170>
 8003b76:	428b      	cmp	r3, r1
 8003b78:	d114      	bne.n	8003ba4 <proBrake+0x144>
 8003b7a:	2390      	movs	r3, #144	; 0x90
 8003b7c:	05db      	lsls	r3, r3, #23
 8003b7e:	681a      	ldr	r2, [r3, #0]
 8003b80:	493c      	ldr	r1, [pc, #240]	; (8003c74 <proBrake+0x214>)
 8003b82:	4011      	ands	r1, r2
 8003b84:	2280      	movs	r2, #128	; 0x80
 8003b86:	01d2      	lsls	r2, r2, #7
 8003b88:	430a      	orrs	r2, r1
 8003b8a:	601a      	str	r2, [r3, #0]
 8003b8c:	2280      	movs	r2, #128	; 0x80
 8003b8e:	619a      	str	r2, [r3, #24]
 8003b90:	681a      	ldr	r2, [r3, #0]
 8003b92:	4939      	ldr	r1, [pc, #228]	; (8003c78 <proBrake+0x218>)
 8003b94:	4011      	ands	r1, r2
 8003b96:	2280      	movs	r2, #128	; 0x80
 8003b98:	0252      	lsls	r2, r2, #9
 8003b9a:	430a      	orrs	r2, r1
 8003b9c:	601a      	str	r2, [r3, #0]
 8003b9e:	2280      	movs	r2, #128	; 0x80
 8003ba0:	0052      	lsls	r2, r2, #1
 8003ba2:	629a      	str	r2, [r3, #40]	; 0x28
 8003ba4:	bc04      	pop	{r2}
 8003ba6:	4690      	mov	r8, r2
 8003ba8:	bdf0      	pop	{r4, r5, r6, r7, pc}
 8003baa:	270c      	movs	r7, #12
 8003bac:	4e2b      	ldr	r6, [pc, #172]	; (8003c5c <proBrake+0x1fc>)
 8003bae:	6831      	ldr	r1, [r6, #0]
 8003bb0:	43b9      	bics	r1, r7
 8003bb2:	3f08      	subs	r7, #8
 8003bb4:	4339      	orrs	r1, r7
 8003bb6:	6031      	str	r1, [r6, #0]
 8003bb8:	2102      	movs	r1, #2
 8003bba:	62b1      	str	r1, [r6, #40]	; 0x28
 8003bbc:	6821      	ldr	r1, [r4, #0]
 8003bbe:	4029      	ands	r1, r5
 8003bc0:	2580      	movs	r5, #128	; 0x80
 8003bc2:	036d      	lsls	r5, r5, #13
 8003bc4:	430d      	orrs	r5, r1
 8003bc6:	2180      	movs	r1, #128	; 0x80
 8003bc8:	00c9      	lsls	r1, r1, #3
 8003bca:	6025      	str	r5, [r4, #0]
 8003bcc:	62a1      	str	r1, [r4, #40]	; 0x28
 8003bce:	e76c      	b.n	8003aaa <proBrake+0x4a>
 8003bd0:	6810      	ldr	r0, [r2, #0]
 8003bd2:	4c28      	ldr	r4, [pc, #160]	; (8003c74 <proBrake+0x214>)
 8003bd4:	4004      	ands	r4, r0
 8003bd6:	2080      	movs	r0, #128	; 0x80
 8003bd8:	01c0      	lsls	r0, r0, #7
 8003bda:	4320      	orrs	r0, r4
 8003bdc:	6010      	str	r0, [r2, #0]
 8003bde:	2080      	movs	r0, #128	; 0x80
 8003be0:	6290      	str	r0, [r2, #40]	; 0x28
 8003be2:	6810      	ldr	r0, [r2, #0]
 8003be4:	4030      	ands	r0, r6
 8003be6:	2680      	movs	r6, #128	; 0x80
 8003be8:	0276      	lsls	r6, r6, #9
 8003bea:	4306      	orrs	r6, r0
 8003bec:	2080      	movs	r0, #128	; 0x80
 8003bee:	0040      	lsls	r0, r0, #1
 8003bf0:	6016      	str	r6, [r2, #0]
 8003bf2:	6290      	str	r0, [r2, #40]	; 0x28
 8003bf4:	e7bf      	b.n	8003b76 <proBrake+0x116>
 8003bf6:	4c19      	ldr	r4, [pc, #100]	; (8003c5c <proBrake+0x1fc>)
 8003bf8:	2503      	movs	r5, #3
 8003bfa:	46a0      	mov	r8, r4
 8003bfc:	6824      	ldr	r4, [r4, #0]
 8003bfe:	43ac      	bics	r4, r5
 8003c00:	3d02      	subs	r5, #2
 8003c02:	432c      	orrs	r4, r5
 8003c04:	46ac      	mov	ip, r5
 8003c06:	4645      	mov	r5, r8
 8003c08:	602c      	str	r4, [r5, #0]
 8003c0a:	4664      	mov	r4, ip
 8003c0c:	62ac      	str	r4, [r5, #40]	; 0x28
 8003c0e:	6834      	ldr	r4, [r6, #0]
 8003c10:	403c      	ands	r4, r7
 8003c12:	2780      	movs	r7, #128	; 0x80
 8003c14:	02ff      	lsls	r7, r7, #11
 8003c16:	4327      	orrs	r7, r4
 8003c18:	2480      	movs	r4, #128	; 0x80
 8003c1a:	00a4      	lsls	r4, r4, #2
 8003c1c:	6037      	str	r7, [r6, #0]
 8003c1e:	62b4      	str	r4, [r6, #40]	; 0x28
 8003c20:	e777      	b.n	8003b12 <proBrake+0xb2>
 8003c22:	2590      	movs	r5, #144	; 0x90
 8003c24:	05ed      	lsls	r5, r5, #23
 8003c26:	682a      	ldr	r2, [r5, #0]
 8003c28:	4c12      	ldr	r4, [pc, #72]	; (8003c74 <proBrake+0x214>)
 8003c2a:	4014      	ands	r4, r2
 8003c2c:	2280      	movs	r2, #128	; 0x80
 8003c2e:	0212      	lsls	r2, r2, #8
 8003c30:	4322      	orrs	r2, r4
 8003c32:	602a      	str	r2, [r5, #0]
 8003c34:	e794      	b.n	8003b60 <proBrake+0x100>
 8003c36:	2603      	movs	r6, #3
 8003c38:	682c      	ldr	r4, [r5, #0]
 8003c3a:	43b4      	bics	r4, r6
 8003c3c:	3e01      	subs	r6, #1
 8003c3e:	4334      	orrs	r4, r6
 8003c40:	602c      	str	r4, [r5, #0]
 8003c42:	e75a      	b.n	8003afa <proBrake+0x9a>
 8003c44:	240c      	movs	r4, #12
 8003c46:	6801      	ldr	r1, [r0, #0]
 8003c48:	43a1      	bics	r1, r4
 8003c4a:	3c04      	subs	r4, #4
 8003c4c:	4321      	orrs	r1, r4
 8003c4e:	6001      	str	r1, [r0, #0]
 8003c50:	e71d      	b.n	8003a8e <proBrake+0x2e>
 8003c52:	46c0      	nop			; (mov r8, r8)
 8003c54:	20000040 	.word	0x20000040
 8003c58:	20000034 	.word	0x20000034
 8003c5c:	48000400 	.word	0x48000400
 8003c60:	20000133 	.word	0x20000133
 8003c64:	ffcfffff 	.word	0xffcfffff
 8003c68:	2000001c 	.word	0x2000001c
 8003c6c:	20000028 	.word	0x20000028
 8003c70:	fff3ffff 	.word	0xfff3ffff
 8003c74:	ffff3fff 	.word	0xffff3fff
 8003c78:	fffcffff 	.word	0xfffcffff

08003c7c <commutate>:
 8003c7c:	4b3e      	ldr	r3, [pc, #248]	; (8003d78 <commutate+0xfc>)
 8003c7e:	b570      	push	{r4, r5, r6, lr}
 8003c80:	681a      	ldr	r2, [r3, #0]
 8003c82:	4c3e      	ldr	r4, [pc, #248]	; (8003d7c <commutate+0x100>)
 8003c84:	6823      	ldr	r3, [r4, #0]
 8003c86:	2a01      	cmp	r2, #1
 8003c88:	d04e      	beq.n	8003d28 <commutate+0xac>
 8003c8a:	2a00      	cmp	r2, #0
 8003c8c:	d023      	beq.n	8003cd6 <commutate+0x5a>
 8003c8e:	4d3c      	ldr	r5, [pc, #240]	; (8003d80 <commutate+0x104>)
 8003c90:	4a3c      	ldr	r2, [pc, #240]	; (8003d84 <commutate+0x108>)
 8003c92:	6812      	ldr	r2, [r2, #0]
 8003c94:	2a2f      	cmp	r2, #47	; 0x2f
 8003c96:	dd03      	ble.n	8003ca0 <commutate+0x24>
 8003c98:	0018      	movs	r0, r3
 8003c9a:	f7ff fc4b 	bl	8003534 <comStep>
 8003c9e:	6823      	ldr	r3, [r4, #0]
 8003ca0:	4839      	ldr	r0, [pc, #228]	; (8003d88 <commutate+0x10c>)
 8003ca2:	2b01      	cmp	r3, #1
 8003ca4:	d02f      	beq.n	8003d06 <commutate+0x8a>
 8003ca6:	2b04      	cmp	r3, #4
 8003ca8:	d02d      	beq.n	8003d06 <commutate+0x8a>
 8003caa:	2b02      	cmp	r3, #2
 8003cac:	d028      	beq.n	8003d00 <commutate+0x84>
 8003cae:	2b05      	cmp	r3, #5
 8003cb0:	d026      	beq.n	8003d00 <commutate+0x84>
 8003cb2:	2b03      	cmp	r3, #3
 8003cb4:	d00c      	beq.n	8003cd0 <commutate+0x54>
 8003cb6:	2b06      	cmp	r3, #6
 8003cb8:	d00a      	beq.n	8003cd0 <commutate+0x54>
 8003cba:	682b      	ldr	r3, [r5, #0]
 8003cbc:	1e5a      	subs	r2, r3, #1
 8003cbe:	4193      	sbcs	r3, r2
 8003cc0:	3301      	adds	r3, #1
 8003cc2:	6203      	str	r3, [r0, #32]
 8003cc4:	f7fc fe6a 	bl	800099c <HAL_COMP_Init>
 8003cc8:	2800      	cmp	r0, #0
 8003cca:	d000      	beq.n	8003cce <commutate+0x52>
 8003ccc:	e7fe      	b.n	8003ccc <commutate+0x50>
 8003cce:	bd70      	pop	{r4, r5, r6, pc}
 8003cd0:	2340      	movs	r3, #64	; 0x40
 8003cd2:	6043      	str	r3, [r0, #4]
 8003cd4:	e7f1      	b.n	8003cba <commutate+0x3e>
 8003cd6:	3b01      	subs	r3, #1
 8003cd8:	6023      	str	r3, [r4, #0]
 8003cda:	2b00      	cmp	r3, #0
 8003cdc:	dd33      	ble.n	8003d46 <commutate+0xca>
 8003cde:	2202      	movs	r2, #2
 8003ce0:	0019      	movs	r1, r3
 8003ce2:	4391      	bics	r1, r2
 8003ce4:	2901      	cmp	r1, #1
 8003ce6:	d011      	beq.n	8003d0c <commutate+0x90>
 8003ce8:	2b05      	cmp	r3, #5
 8003cea:	d00f      	beq.n	8003d0c <commutate+0x90>
 8003cec:	2204      	movs	r2, #4
 8003cee:	0019      	movs	r1, r3
 8003cf0:	4391      	bics	r1, r2
 8003cf2:	000a      	movs	r2, r1
 8003cf4:	4d22      	ldr	r5, [pc, #136]	; (8003d80 <commutate+0x104>)
 8003cf6:	2a02      	cmp	r2, #2
 8003cf8:	d111      	bne.n	8003d1e <commutate+0xa2>
 8003cfa:	2201      	movs	r2, #1
 8003cfc:	602a      	str	r2, [r5, #0]
 8003cfe:	e7c7      	b.n	8003c90 <commutate+0x14>
 8003d00:	2250      	movs	r2, #80	; 0x50
 8003d02:	6042      	str	r2, [r0, #4]
 8003d04:	e7d5      	b.n	8003cb2 <commutate+0x36>
 8003d06:	2260      	movs	r2, #96	; 0x60
 8003d08:	6042      	str	r2, [r0, #4]
 8003d0a:	e7ce      	b.n	8003caa <commutate+0x2e>
 8003d0c:	2200      	movs	r2, #0
 8003d0e:	0019      	movs	r1, r3
 8003d10:	4d1b      	ldr	r5, [pc, #108]	; (8003d80 <commutate+0x104>)
 8003d12:	602a      	str	r2, [r5, #0]
 8003d14:	3204      	adds	r2, #4
 8003d16:	4391      	bics	r1, r2
 8003d18:	000a      	movs	r2, r1
 8003d1a:	2a02      	cmp	r2, #2
 8003d1c:	d0ed      	beq.n	8003cfa <commutate+0x7e>
 8003d1e:	2b04      	cmp	r3, #4
 8003d20:	d1b6      	bne.n	8003c90 <commutate+0x14>
 8003d22:	2201      	movs	r2, #1
 8003d24:	602a      	str	r2, [r5, #0]
 8003d26:	e7b3      	b.n	8003c90 <commutate+0x14>
 8003d28:	3301      	adds	r3, #1
 8003d2a:	6023      	str	r3, [r4, #0]
 8003d2c:	2b06      	cmp	r3, #6
 8003d2e:	dd13      	ble.n	8003d58 <commutate+0xdc>
 8003d30:	2301      	movs	r3, #1
 8003d32:	6022      	str	r2, [r4, #0]
 8003d34:	2101      	movs	r1, #1
 8003d36:	4d12      	ldr	r5, [pc, #72]	; (8003d80 <commutate+0x104>)
 8003d38:	6029      	str	r1, [r5, #0]
 8003d3a:	2a02      	cmp	r2, #2
 8003d3c:	d009      	beq.n	8003d52 <commutate+0xd6>
 8003d3e:	2b04      	cmp	r3, #4
 8003d40:	d007      	beq.n	8003d52 <commutate+0xd6>
 8003d42:	6823      	ldr	r3, [r4, #0]
 8003d44:	e7a4      	b.n	8003c90 <commutate+0x14>
 8003d46:	2306      	movs	r3, #6
 8003d48:	2201      	movs	r2, #1
 8003d4a:	4d0d      	ldr	r5, [pc, #52]	; (8003d80 <commutate+0x104>)
 8003d4c:	6023      	str	r3, [r4, #0]
 8003d4e:	602a      	str	r2, [r5, #0]
 8003d50:	e79e      	b.n	8003c90 <commutate+0x14>
 8003d52:	2300      	movs	r3, #0
 8003d54:	602b      	str	r3, [r5, #0]
 8003d56:	e7f4      	b.n	8003d42 <commutate+0xc6>
 8003d58:	2102      	movs	r1, #2
 8003d5a:	0018      	movs	r0, r3
 8003d5c:	4388      	bics	r0, r1
 8003d5e:	2801      	cmp	r0, #1
 8003d60:	d007      	beq.n	8003d72 <commutate+0xf6>
 8003d62:	2b05      	cmp	r3, #5
 8003d64:	d0e6      	beq.n	8003d34 <commutate+0xb8>
 8003d66:	2204      	movs	r2, #4
 8003d68:	0019      	movs	r1, r3
 8003d6a:	4391      	bics	r1, r2
 8003d6c:	000a      	movs	r2, r1
 8003d6e:	4d04      	ldr	r5, [pc, #16]	; (8003d80 <commutate+0x104>)
 8003d70:	e7e3      	b.n	8003d3a <commutate+0xbe>
 8003d72:	001a      	movs	r2, r3
 8003d74:	e7de      	b.n	8003d34 <commutate+0xb8>
 8003d76:	46c0      	nop			; (mov r8, r8)
 8003d78:	20000020 	.word	0x20000020
 8003d7c:	2000004c 	.word	0x2000004c
 8003d80:	20000038 	.word	0x20000038
 8003d84:	2000011c 	.word	0x2000011c
 8003d88:	20000210 	.word	0x20000210

08003d8c <HAL_TIM_PeriodElapsedCallback>:
 8003d8c:	4b0f      	ldr	r3, [pc, #60]	; (8003dcc <HAL_TIM_PeriodElapsedCallback+0x40>)
 8003d8e:	6802      	ldr	r2, [r0, #0]
 8003d90:	b570      	push	{r4, r5, r6, lr}
 8003d92:	429a      	cmp	r2, r3
 8003d94:	d000      	beq.n	8003d98 <HAL_TIM_PeriodElapsedCallback+0xc>
 8003d96:	bd70      	pop	{r4, r5, r6, pc}
 8003d98:	4b0d      	ldr	r3, [pc, #52]	; (8003dd0 <HAL_TIM_PeriodElapsedCallback+0x44>)
 8003d9a:	781b      	ldrb	r3, [r3, #0]
 8003d9c:	2b01      	cmp	r3, #1
 8003d9e:	d1fa      	bne.n	8003d96 <HAL_TIM_PeriodElapsedCallback+0xa>
 8003da0:	2090      	movs	r0, #144	; 0x90
 8003da2:	2104      	movs	r1, #4
 8003da4:	05c0      	lsls	r0, r0, #23
 8003da6:	f7fd faaf 	bl	8001308 <HAL_GPIO_ReadPin>
 8003daa:	1e04      	subs	r4, r0, #0
 8003dac:	d1f3      	bne.n	8003d96 <HAL_TIM_PeriodElapsedCallback+0xa>
 8003dae:	4d09      	ldr	r5, [pc, #36]	; (8003dd4 <HAL_TIM_PeriodElapsedCallback+0x48>)
 8003db0:	2100      	movs	r1, #0
 8003db2:	0028      	movs	r0, r5
 8003db4:	f7fe f872 	bl	8001e9c <HAL_TIM_IC_Stop_DMA>
 8003db8:	4b07      	ldr	r3, [pc, #28]	; (8003dd8 <HAL_TIM_PeriodElapsedCallback+0x4c>)
 8003dba:	4a08      	ldr	r2, [pc, #32]	; (8003ddc <HAL_TIM_PeriodElapsedCallback+0x50>)
 8003dbc:	625c      	str	r4, [r3, #36]	; 0x24
 8003dbe:	4b08      	ldr	r3, [pc, #32]	; (8003de0 <HAL_TIM_PeriodElapsedCallback+0x54>)
 8003dc0:	2100      	movs	r1, #0
 8003dc2:	881b      	ldrh	r3, [r3, #0]
 8003dc4:	0028      	movs	r0, r5
 8003dc6:	f7fd fff5 	bl	8001db4 <HAL_TIM_IC_Start_DMA>
 8003dca:	e7e4      	b.n	8003d96 <HAL_TIM_PeriodElapsedCallback+0xa>
 8003dcc:	40014400 	.word	0x40014400
 8003dd0:	20000120 	.word	0x20000120
 8003dd4:	200001b0 	.word	0x200001b0
 8003dd8:	40014000 	.word	0x40014000
 8003ddc:	20000284 	.word	0x20000284
 8003de0:	20000000 	.word	0x20000000

08003de4 <startMotor>:
 8003de4:	b5f0      	push	{r4, r5, r6, r7, lr}
 8003de6:	464f      	mov	r7, r9
 8003de8:	46d6      	mov	lr, sl
 8003dea:	4646      	mov	r6, r8
 8003dec:	b5c0      	push	{r6, r7, lr}
 8003dee:	4f57      	ldr	r7, [pc, #348]	; (8003f4c <startMotor+0x168>)
 8003df0:	783b      	ldrb	r3, [r7, #0]
 8003df2:	469a      	mov	sl, r3
 8003df4:	4b56      	ldr	r3, [pc, #344]	; (8003f50 <startMotor+0x16c>)
 8003df6:	4698      	mov	r8, r3
 8003df8:	2300      	movs	r3, #0
 8003dfa:	4642      	mov	r2, r8
 8003dfc:	6013      	str	r3, [r2, #0]
 8003dfe:	4b55      	ldr	r3, [pc, #340]	; (8003f54 <startMotor+0x170>)
 8003e00:	4699      	mov	r9, r3
 8003e02:	681b      	ldr	r3, [r3, #0]
 8003e04:	2b00      	cmp	r3, #0
 8003e06:	d00e      	beq.n	8003e26 <startMotor+0x42>
 8003e08:	4653      	mov	r3, sl
 8003e0a:	4642      	mov	r2, r8
 8003e0c:	703b      	strb	r3, [r7, #0]
 8003e0e:	2301      	movs	r3, #1
 8003e10:	6013      	str	r3, [r2, #0]
 8003e12:	2300      	movs	r3, #0
 8003e14:	4a50      	ldr	r2, [pc, #320]	; (8003f58 <startMotor+0x174>)
 8003e16:	6013      	str	r3, [r2, #0]
 8003e18:	4a50      	ldr	r2, [pc, #320]	; (8003f5c <startMotor+0x178>)
 8003e1a:	6013      	str	r3, [r2, #0]
 8003e1c:	bc1c      	pop	{r2, r3, r4}
 8003e1e:	4690      	mov	r8, r2
 8003e20:	4699      	mov	r9, r3
 8003e22:	46a2      	mov	sl, r4
 8003e24:	bdf0      	pop	{r4, r5, r6, r7, pc}
 8003e26:	4e4e      	ldr	r6, [pc, #312]	; (8003f60 <startMotor+0x17c>)
 8003e28:	0030      	movs	r0, r6
 8003e2a:	f7fc fe5b 	bl	8000ae4 <HAL_COMP_Stop_IT>
 8003e2e:	2301      	movs	r3, #1
 8003e30:	703b      	strb	r3, [r7, #0]
 8003e32:	4b4c      	ldr	r3, [pc, #304]	; (8003f64 <startMotor+0x180>)
 8003e34:	4c4c      	ldr	r4, [pc, #304]	; (8003f68 <startMotor+0x184>)
 8003e36:	681a      	ldr	r2, [r3, #0]
 8003e38:	2a01      	cmp	r2, #1
 8003e3a:	d04c      	beq.n	8003ed6 <startMotor+0xf2>
 8003e3c:	2a00      	cmp	r2, #0
 8003e3e:	d032      	beq.n	8003ea6 <startMotor+0xc2>
 8003e40:	6820      	ldr	r0, [r4, #0]
 8003e42:	4d4a      	ldr	r5, [pc, #296]	; (8003f6c <startMotor+0x188>)
 8003e44:	4b4a      	ldr	r3, [pc, #296]	; (8003f70 <startMotor+0x18c>)
 8003e46:	681b      	ldr	r3, [r3, #0]
 8003e48:	2b2f      	cmp	r3, #47	; 0x2f
 8003e4a:	dd02      	ble.n	8003e52 <startMotor+0x6e>
 8003e4c:	f7ff fb72 	bl	8003534 <comStep>
 8003e50:	6820      	ldr	r0, [r4, #0]
 8003e52:	2801      	cmp	r0, #1
 8003e54:	d04f      	beq.n	8003ef6 <startMotor+0x112>
 8003e56:	2804      	cmp	r0, #4
 8003e58:	d04d      	beq.n	8003ef6 <startMotor+0x112>
 8003e5a:	2802      	cmp	r0, #2
 8003e5c:	d04f      	beq.n	8003efe <startMotor+0x11a>
 8003e5e:	2805      	cmp	r0, #5
 8003e60:	d04d      	beq.n	8003efe <startMotor+0x11a>
 8003e62:	2803      	cmp	r0, #3
 8003e64:	d04f      	beq.n	8003f06 <startMotor+0x122>
 8003e66:	2806      	cmp	r0, #6
 8003e68:	d04d      	beq.n	8003f06 <startMotor+0x122>
 8003e6a:	682b      	ldr	r3, [r5, #0]
 8003e6c:	0030      	movs	r0, r6
 8003e6e:	1e5a      	subs	r2, r3, #1
 8003e70:	4193      	sbcs	r3, r2
 8003e72:	3301      	adds	r3, #1
 8003e74:	6233      	str	r3, [r6, #32]
 8003e76:	f7fc fd91 	bl	800099c <HAL_COMP_Init>
 8003e7a:	2800      	cmp	r0, #0
 8003e7c:	d000      	beq.n	8003e80 <startMotor+0x9c>
 8003e7e:	e7fe      	b.n	8003e7e <startMotor+0x9a>
 8003e80:	4a3c      	ldr	r2, [pc, #240]	; (8003f74 <startMotor+0x190>)
 8003e82:	4b3d      	ldr	r3, [pc, #244]	; (8003f78 <startMotor+0x194>)
 8003e84:	601a      	str	r2, [r3, #0]
 8003e86:	4b3d      	ldr	r3, [pc, #244]	; (8003f7c <startMotor+0x198>)
 8003e88:	4a3d      	ldr	r2, [pc, #244]	; (8003f80 <startMotor+0x19c>)
 8003e8a:	6258      	str	r0, [r3, #36]	; 0x24
 8003e8c:	2380      	movs	r3, #128	; 0x80
 8003e8e:	05db      	lsls	r3, r3, #23
 8003e90:	6258      	str	r0, [r3, #36]	; 0x24
 8003e92:	62da      	str	r2, [r3, #44]	; 0x2c
 8003e94:	2301      	movs	r3, #1
 8003e96:	464a      	mov	r2, r9
 8003e98:	0030      	movs	r0, r6
 8003e9a:	6013      	str	r3, [r2, #0]
 8003e9c:	f7fc fdce 	bl	8000a3c <HAL_COMP_Start_IT>
 8003ea0:	2800      	cmp	r0, #0
 8003ea2:	d0b1      	beq.n	8003e08 <startMotor+0x24>
 8003ea4:	e7fe      	b.n	8003ea4 <startMotor+0xc0>
 8003ea6:	6823      	ldr	r3, [r4, #0]
 8003ea8:	1e58      	subs	r0, r3, #1
 8003eaa:	6020      	str	r0, [r4, #0]
 8003eac:	2800      	cmp	r0, #0
 8003eae:	dd35      	ble.n	8003f1c <startMotor+0x138>
 8003eb0:	2302      	movs	r3, #2
 8003eb2:	0002      	movs	r2, r0
 8003eb4:	439a      	bics	r2, r3
 8003eb6:	2a01      	cmp	r2, #1
 8003eb8:	d028      	beq.n	8003f0c <startMotor+0x128>
 8003eba:	2805      	cmp	r0, #5
 8003ebc:	d026      	beq.n	8003f0c <startMotor+0x128>
 8003ebe:	2304      	movs	r3, #4
 8003ec0:	0002      	movs	r2, r0
 8003ec2:	439a      	bics	r2, r3
 8003ec4:	0013      	movs	r3, r2
 8003ec6:	4d29      	ldr	r5, [pc, #164]	; (8003f6c <startMotor+0x188>)
 8003ec8:	2b02      	cmp	r3, #2
 8003eca:	d001      	beq.n	8003ed0 <startMotor+0xec>
 8003ecc:	2804      	cmp	r0, #4
 8003ece:	d1b9      	bne.n	8003e44 <startMotor+0x60>
 8003ed0:	2301      	movs	r3, #1
 8003ed2:	602b      	str	r3, [r5, #0]
 8003ed4:	e7b6      	b.n	8003e44 <startMotor+0x60>
 8003ed6:	6823      	ldr	r3, [r4, #0]
 8003ed8:	3301      	adds	r3, #1
 8003eda:	6023      	str	r3, [r4, #0]
 8003edc:	2b06      	cmp	r3, #6
 8003ede:	dd25      	ble.n	8003f2c <startMotor+0x148>
 8003ee0:	2301      	movs	r3, #1
 8003ee2:	6022      	str	r2, [r4, #0]
 8003ee4:	2101      	movs	r1, #1
 8003ee6:	4d21      	ldr	r5, [pc, #132]	; (8003f6c <startMotor+0x188>)
 8003ee8:	6029      	str	r1, [r5, #0]
 8003eea:	2a02      	cmp	r2, #2
 8003eec:	d01b      	beq.n	8003f26 <startMotor+0x142>
 8003eee:	2b04      	cmp	r3, #4
 8003ef0:	d019      	beq.n	8003f26 <startMotor+0x142>
 8003ef2:	6820      	ldr	r0, [r4, #0]
 8003ef4:	e7a6      	b.n	8003e44 <startMotor+0x60>
 8003ef6:	2360      	movs	r3, #96	; 0x60
 8003ef8:	6073      	str	r3, [r6, #4]
 8003efa:	2802      	cmp	r0, #2
 8003efc:	d1af      	bne.n	8003e5e <startMotor+0x7a>
 8003efe:	2350      	movs	r3, #80	; 0x50
 8003f00:	6073      	str	r3, [r6, #4]
 8003f02:	2803      	cmp	r0, #3
 8003f04:	d1af      	bne.n	8003e66 <startMotor+0x82>
 8003f06:	2340      	movs	r3, #64	; 0x40
 8003f08:	6073      	str	r3, [r6, #4]
 8003f0a:	e7ae      	b.n	8003e6a <startMotor+0x86>
 8003f0c:	2300      	movs	r3, #0
 8003f0e:	0002      	movs	r2, r0
 8003f10:	4d16      	ldr	r5, [pc, #88]	; (8003f6c <startMotor+0x188>)
 8003f12:	602b      	str	r3, [r5, #0]
 8003f14:	3304      	adds	r3, #4
 8003f16:	439a      	bics	r2, r3
 8003f18:	0013      	movs	r3, r2
 8003f1a:	e7d5      	b.n	8003ec8 <startMotor+0xe4>
 8003f1c:	2306      	movs	r3, #6
 8003f1e:	2006      	movs	r0, #6
 8003f20:	6023      	str	r3, [r4, #0]
 8003f22:	4d12      	ldr	r5, [pc, #72]	; (8003f6c <startMotor+0x188>)
 8003f24:	e7d4      	b.n	8003ed0 <startMotor+0xec>
 8003f26:	2300      	movs	r3, #0
 8003f28:	602b      	str	r3, [r5, #0]
 8003f2a:	e7e2      	b.n	8003ef2 <startMotor+0x10e>
 8003f2c:	2102      	movs	r1, #2
 8003f2e:	0018      	movs	r0, r3
 8003f30:	4388      	bics	r0, r1
 8003f32:	2801      	cmp	r0, #1
 8003f34:	d007      	beq.n	8003f46 <startMotor+0x162>
 8003f36:	2b05      	cmp	r3, #5
 8003f38:	d0d4      	beq.n	8003ee4 <startMotor+0x100>
 8003f3a:	2204      	movs	r2, #4
 8003f3c:	0019      	movs	r1, r3
 8003f3e:	4391      	bics	r1, r2
 8003f40:	000a      	movs	r2, r1
 8003f42:	4d0a      	ldr	r5, [pc, #40]	; (8003f6c <startMotor+0x188>)
 8003f44:	e7d1      	b.n	8003eea <startMotor+0x106>
 8003f46:	001a      	movs	r2, r3
 8003f48:	e7cc      	b.n	8003ee4 <startMotor+0x100>
 8003f4a:	46c0      	nop			; (mov r8, r8)
 8003f4c:	20000040 	.word	0x20000040
 8003f50:	2000014c 	.word	0x2000014c
 8003f54:	20000148 	.word	0x20000148
 8003f58:	20000160 	.word	0x20000160
 8003f5c:	20000280 	.word	0x20000280
 8003f60:	20000210 	.word	0x20000210
 8003f64:	20000020 	.word	0x20000020
 8003f68:	2000004c 	.word	0x2000004c
 8003f6c:	20000038 	.word	0x20000038
 8003f70:	2000011c 	.word	0x2000011c
 8003f74:	00007530 	.word	0x00007530
 8003f78:	200000b4 	.word	0x200000b4
 8003f7c:	40000400 	.word	0x40000400
 8003f80:	0000ea60 	.word	0x0000ea60

08003f84 <HAL_COMP_TriggerCallback>:
 8003f84:	b5f0      	push	{r4, r5, r6, r7, lr}
 8003f86:	46de      	mov	lr, fp
 8003f88:	4657      	mov	r7, sl
 8003f8a:	464e      	mov	r6, r9
 8003f8c:	4645      	mov	r5, r8
 8003f8e:	b5e0      	push	{r5, r6, r7, lr}
 8003f90:	4b94      	ldr	r3, [pc, #592]	; (80041e4 <HAL_COMP_TriggerCallback+0x260>)
 8003f92:	b083      	sub	sp, #12
 8003f94:	469b      	mov	fp, r3
 8003f96:	681b      	ldr	r3, [r3, #0]
 8003f98:	2b64      	cmp	r3, #100	; 0x64
 8003f9a:	dd05      	ble.n	8003fa8 <HAL_COMP_TriggerCallback+0x24>
 8003f9c:	232c      	movs	r3, #44	; 0x2c
 8003f9e:	4f92      	ldr	r7, [pc, #584]	; (80041e8 <HAL_COMP_TriggerCallback+0x264>)
 8003fa0:	33ff      	adds	r3, #255	; 0xff
 8003fa2:	683a      	ldr	r2, [r7, #0]
 8003fa4:	429a      	cmp	r2, r3
 8003fa6:	dd40      	ble.n	800402a <HAL_COMP_TriggerCallback+0xa6>
 8003fa8:	4a90      	ldr	r2, [pc, #576]	; (80041ec <HAL_COMP_TriggerCallback+0x268>)
 8003faa:	4b91      	ldr	r3, [pc, #580]	; (80041f0 <HAL_COMP_TriggerCallback+0x26c>)
 8003fac:	6a50      	ldr	r0, [r2, #36]	; 0x24
 8003fae:	4e91      	ldr	r6, [pc, #580]	; (80041f4 <HAL_COMP_TriggerCallback+0x270>)
 8003fb0:	781b      	ldrb	r3, [r3, #0]
 8003fb2:	0001      	movs	r1, r0
 8003fb4:	6030      	str	r0, [r6, #0]
 8003fb6:	2bc8      	cmp	r3, #200	; 0xc8
 8003fb8:	d900      	bls.n	8003fbc <HAL_COMP_TriggerCallback+0x38>
 8003fba:	e10b      	b.n	80041d4 <HAL_COMP_TriggerCallback+0x250>
 8003fbc:	4c8c      	ldr	r4, [pc, #560]	; (80041f0 <HAL_COMP_TriggerCallback+0x26c>)
 8003fbe:	3301      	adds	r3, #1
 8003fc0:	7023      	strb	r3, [r4, #0]
 8003fc2:	4b8d      	ldr	r3, [pc, #564]	; (80041f8 <HAL_COMP_TriggerCallback+0x274>)
 8003fc4:	681c      	ldr	r4, [r3, #0]
 8003fc6:	6a53      	ldr	r3, [r2, #36]	; 0x24
 8003fc8:	1a1b      	subs	r3, r3, r0
 8003fca:	429c      	cmp	r4, r3
 8003fcc:	d8fb      	bhi.n	8003fc6 <HAL_COMP_TriggerCallback+0x42>
 8003fce:	4b8b      	ldr	r3, [pc, #556]	; (80041fc <HAL_COMP_TriggerCallback+0x278>)
 8003fd0:	4d8b      	ldr	r5, [pc, #556]	; (8004200 <HAL_COMP_TriggerCallback+0x27c>)
 8003fd2:	681f      	ldr	r7, [r3, #0]
 8003fd4:	782b      	ldrb	r3, [r5, #0]
 8003fd6:	2f00      	cmp	r7, #0
 8003fd8:	d019      	beq.n	800400e <HAL_COMP_TriggerCallback+0x8a>
 8003fda:	2b00      	cmp	r3, #0
 8003fdc:	d100      	bne.n	8003fe0 <HAL_COMP_TriggerCallback+0x5c>
 8003fde:	e0fe      	b.n	80041de <HAL_COMP_TriggerCallback+0x25a>
 8003fe0:	2380      	movs	r3, #128	; 0x80
 8003fe2:	01db      	lsls	r3, r3, #7
 8003fe4:	2700      	movs	r7, #0
 8003fe6:	4c87      	ldr	r4, [pc, #540]	; (8004204 <HAL_COMP_TriggerCallback+0x280>)
 8003fe8:	4698      	mov	r8, r3
 8003fea:	e004      	b.n	8003ff6 <HAL_COMP_TriggerCallback+0x72>
 8003fec:	782b      	ldrb	r3, [r5, #0]
 8003fee:	3701      	adds	r7, #1
 8003ff0:	42bb      	cmp	r3, r7
 8003ff2:	dc00      	bgt.n	8003ff6 <HAL_COMP_TriggerCallback+0x72>
 8003ff4:	e076      	b.n	80040e4 <HAL_COMP_TriggerCallback+0x160>
 8003ff6:	0020      	movs	r0, r4
 8003ff8:	f7fc fda4 	bl	8000b44 <HAL_COMP_GetOutputLevel>
 8003ffc:	4540      	cmp	r0, r8
 8003ffe:	d1f5      	bne.n	8003fec <HAL_COMP_TriggerCallback+0x68>
 8004000:	b003      	add	sp, #12
 8004002:	bc3c      	pop	{r2, r3, r4, r5}
 8004004:	4690      	mov	r8, r2
 8004006:	4699      	mov	r9, r3
 8004008:	46a2      	mov	sl, r4
 800400a:	46ab      	mov	fp, r5
 800400c:	bdf0      	pop	{r4, r5, r6, r7, pc}
 800400e:	4c7d      	ldr	r4, [pc, #500]	; (8004204 <HAL_COMP_TriggerCallback+0x280>)
 8004010:	2b00      	cmp	r3, #0
 8004012:	d104      	bne.n	800401e <HAL_COMP_TriggerCallback+0x9a>
 8004014:	e067      	b.n	80040e6 <HAL_COMP_TriggerCallback+0x162>
 8004016:	782b      	ldrb	r3, [r5, #0]
 8004018:	3701      	adds	r7, #1
 800401a:	42bb      	cmp	r3, r7
 800401c:	dd62      	ble.n	80040e4 <HAL_COMP_TriggerCallback+0x160>
 800401e:	0020      	movs	r0, r4
 8004020:	f7fc fd90 	bl	8000b44 <HAL_COMP_GetOutputLevel>
 8004024:	2800      	cmp	r0, #0
 8004026:	d1f6      	bne.n	8004016 <HAL_COMP_TriggerCallback+0x92>
 8004028:	e7ea      	b.n	8004000 <HAL_COMP_TriggerCallback+0x7c>
 800402a:	4d70      	ldr	r5, [pc, #448]	; (80041ec <HAL_COMP_TriggerCallback+0x268>)
 800402c:	4b72      	ldr	r3, [pc, #456]	; (80041f8 <HAL_COMP_TriggerCallback+0x274>)
 800402e:	6a6a      	ldr	r2, [r5, #36]	; 0x24
 8004030:	4e75      	ldr	r6, [pc, #468]	; (8004208 <HAL_COMP_TriggerCallback+0x284>)
 8004032:	6819      	ldr	r1, [r3, #0]
 8004034:	6032      	str	r2, [r6, #0]
 8004036:	6a6b      	ldr	r3, [r5, #36]	; 0x24
 8004038:	1a9b      	subs	r3, r3, r2
 800403a:	428b      	cmp	r3, r1
 800403c:	d3fb      	bcc.n	8004036 <HAL_COMP_TriggerCallback+0xb2>
 800403e:	4c71      	ldr	r4, [pc, #452]	; (8004204 <HAL_COMP_TriggerCallback+0x280>)
 8004040:	0020      	movs	r0, r4
 8004042:	f7fc fd7f 	bl	8000b44 <HAL_COMP_GetOutputLevel>
 8004046:	4b6d      	ldr	r3, [pc, #436]	; (80041fc <HAL_COMP_TriggerCallback+0x278>)
 8004048:	681b      	ldr	r3, [r3, #0]
 800404a:	4298      	cmp	r0, r3
 800404c:	d0d8      	beq.n	8004000 <HAL_COMP_TriggerCallback+0x7c>
 800404e:	2300      	movs	r3, #0
 8004050:	4698      	mov	r8, r3
 8004052:	626b      	str	r3, [r5, #36]	; 0x24
 8004054:	0020      	movs	r0, r4
 8004056:	f7fc fd45 	bl	8000ae4 <HAL_COMP_Stop_IT>
 800405a:	4642      	mov	r2, r8
 800405c:	4b6b      	ldr	r3, [pc, #428]	; (800420c <HAL_COMP_TriggerCallback+0x288>)
 800405e:	2103      	movs	r1, #3
 8004060:	601a      	str	r2, [r3, #0]
 8004062:	683b      	ldr	r3, [r7, #0]
 8004064:	005d      	lsls	r5, r3, #1
 8004066:	6833      	ldr	r3, [r6, #0]
 8004068:	18ed      	adds	r5, r5, r3
 800406a:	0028      	movs	r0, r5
 800406c:	f7fc f8d6 	bl	800021c <__divsi3>
 8004070:	4642      	mov	r2, r8
 8004072:	4b67      	ldr	r3, [pc, #412]	; (8004210 <HAL_COMP_TriggerCallback+0x28c>)
 8004074:	6038      	str	r0, [r7, #0]
 8004076:	701a      	strb	r2, [r3, #0]
 8004078:	4b66      	ldr	r3, [pc, #408]	; (8004214 <HAL_COMP_TriggerCallback+0x290>)
 800407a:	7819      	ldrb	r1, [r3, #0]
 800407c:	f7fc f8ce 	bl	800021c <__divsi3>
 8004080:	4b65      	ldr	r3, [pc, #404]	; (8004218 <HAL_COMP_TriggerCallback+0x294>)
 8004082:	0006      	movs	r6, r0
 8004084:	6018      	str	r0, [r3, #0]
 8004086:	2106      	movs	r1, #6
 8004088:	0028      	movs	r0, r5
 800408a:	f7fc f8c7 	bl	800021c <__divsi3>
 800408e:	4b63      	ldr	r3, [pc, #396]	; (800421c <HAL_COMP_TriggerCallback+0x298>)
 8004090:	1b86      	subs	r6, r0, r6
 8004092:	601e      	str	r6, [r3, #0]
 8004094:	4698      	mov	r8, r3
 8004096:	4b62      	ldr	r3, [pc, #392]	; (8004220 <HAL_COMP_TriggerCallback+0x29c>)
 8004098:	210c      	movs	r1, #12
 800409a:	4699      	mov	r9, r3
 800409c:	0028      	movs	r0, r5
 800409e:	f7fc f8bd 	bl	800021c <__divsi3>
 80040a2:	464b      	mov	r3, r9
 80040a4:	6018      	str	r0, [r3, #0]
 80040a6:	4b51      	ldr	r3, [pc, #324]	; (80041ec <HAL_COMP_TriggerCallback+0x268>)
 80040a8:	6a5a      	ldr	r2, [r3, #36]	; 0x24
 80040aa:	42b2      	cmp	r2, r6
 80040ac:	d3fc      	bcc.n	80040a8 <HAL_COMP_TriggerCallback+0x124>
 80040ae:	4b5d      	ldr	r3, [pc, #372]	; (8004224 <HAL_COMP_TriggerCallback+0x2a0>)
 80040b0:	681a      	ldr	r2, [r3, #0]
 80040b2:	4b5d      	ldr	r3, [pc, #372]	; (8004228 <HAL_COMP_TriggerCallback+0x2a4>)
 80040b4:	625a      	str	r2, [r3, #36]	; 0x24
 80040b6:	2300      	movs	r3, #0
 80040b8:	4a5c      	ldr	r2, [pc, #368]	; (800422c <HAL_COMP_TriggerCallback+0x2a8>)
 80040ba:	6013      	str	r3, [r2, #0]
 80040bc:	4a4c      	ldr	r2, [pc, #304]	; (80041f0 <HAL_COMP_TriggerCallback+0x26c>)
 80040be:	7013      	strb	r3, [r2, #0]
 80040c0:	f7ff fddc 	bl	8003c7c <commutate>
 80040c4:	4643      	mov	r3, r8
 80040c6:	464a      	mov	r2, r9
 80040c8:	681b      	ldr	r3, [r3, #0]
 80040ca:	6812      	ldr	r2, [r2, #0]
 80040cc:	189b      	adds	r3, r3, r2
 80040ce:	4a47      	ldr	r2, [pc, #284]	; (80041ec <HAL_COMP_TriggerCallback+0x268>)
 80040d0:	6a51      	ldr	r1, [r2, #36]	; 0x24
 80040d2:	4299      	cmp	r1, r3
 80040d4:	d3fc      	bcc.n	80040d0 <HAL_COMP_TriggerCallback+0x14c>
 80040d6:	0020      	movs	r0, r4
 80040d8:	f7fc fcb0 	bl	8000a3c <HAL_COMP_Start_IT>
 80040dc:	2800      	cmp	r0, #0
 80040de:	d100      	bne.n	80040e2 <HAL_COMP_TriggerCallback+0x15e>
 80040e0:	e78e      	b.n	8004000 <HAL_COMP_TriggerCallback+0x7c>
 80040e2:	e7fe      	b.n	80040e2 <HAL_COMP_TriggerCallback+0x15e>
 80040e4:	6831      	ldr	r1, [r6, #0]
 80040e6:	4f41      	ldr	r7, [pc, #260]	; (80041ec <HAL_COMP_TriggerCallback+0x268>)
 80040e8:	4e47      	ldr	r6, [pc, #284]	; (8004208 <HAL_COMP_TriggerCallback+0x284>)
 80040ea:	6a7b      	ldr	r3, [r7, #36]	; 0x24
 80040ec:	6031      	str	r1, [r6, #0]
 80040ee:	1a59      	subs	r1, r3, r1
 80040f0:	6279      	str	r1, [r7, #36]	; 0x24
 80040f2:	0020      	movs	r0, r4
 80040f4:	f7fc fcf6 	bl	8000ae4 <HAL_COMP_Stop_IT>
 80040f8:	2300      	movs	r3, #0
 80040fa:	4699      	mov	r9, r3
 80040fc:	464a      	mov	r2, r9
 80040fe:	4b43      	ldr	r3, [pc, #268]	; (800420c <HAL_COMP_TriggerCallback+0x288>)
 8004100:	2105      	movs	r1, #5
 8004102:	601a      	str	r2, [r3, #0]
 8004104:	6833      	ldr	r3, [r6, #0]
 8004106:	4a38      	ldr	r2, [pc, #224]	; (80041e8 <HAL_COMP_TriggerCallback+0x264>)
 8004108:	469c      	mov	ip, r3
 800410a:	4690      	mov	r8, r2
 800410c:	6812      	ldr	r2, [r2, #0]
 800410e:	9301      	str	r3, [sp, #4]
 8004110:	0095      	lsls	r5, r2, #2
 8004112:	4465      	add	r5, ip
 8004114:	0028      	movs	r0, r5
 8004116:	f7fc f881 	bl	800021c <__divsi3>
 800411a:	4643      	mov	r3, r8
 800411c:	464a      	mov	r2, r9
 800411e:	6018      	str	r0, [r3, #0]
 8004120:	4b3b      	ldr	r3, [pc, #236]	; (8004210 <HAL_COMP_TriggerCallback+0x28c>)
 8004122:	701a      	strb	r2, [r3, #0]
 8004124:	4b3b      	ldr	r3, [pc, #236]	; (8004214 <HAL_COMP_TriggerCallback+0x290>)
 8004126:	7819      	ldrb	r1, [r3, #0]
 8004128:	f7fc f878 	bl	800021c <__divsi3>
 800412c:	4682      	mov	sl, r0
 800412e:	4b3a      	ldr	r3, [pc, #232]	; (8004218 <HAL_COMP_TriggerCallback+0x294>)
 8004130:	210a      	movs	r1, #10
 8004132:	6018      	str	r0, [r3, #0]
 8004134:	0028      	movs	r0, r5
 8004136:	f7fc f871 	bl	800021c <__divsi3>
 800413a:	4653      	mov	r3, sl
 800413c:	1ac3      	subs	r3, r0, r3
 800413e:	469a      	mov	sl, r3
 8004140:	4652      	mov	r2, sl
 8004142:	4b36      	ldr	r3, [pc, #216]	; (800421c <HAL_COMP_TriggerCallback+0x298>)
 8004144:	2114      	movs	r1, #20
 8004146:	601a      	str	r2, [r3, #0]
 8004148:	4698      	mov	r8, r3
 800414a:	4b35      	ldr	r3, [pc, #212]	; (8004220 <HAL_COMP_TriggerCallback+0x29c>)
 800414c:	0028      	movs	r0, r5
 800414e:	4699      	mov	r9, r3
 8004150:	f7fc f864 	bl	800021c <__divsi3>
 8004154:	464b      	mov	r3, r9
 8004156:	6018      	str	r0, [r3, #0]
 8004158:	4b35      	ldr	r3, [pc, #212]	; (8004230 <HAL_COMP_TriggerCallback+0x2ac>)
 800415a:	681b      	ldr	r3, [r3, #0]
 800415c:	2b00      	cmp	r3, #0
 800415e:	d13a      	bne.n	80041d6 <HAL_COMP_TriggerCallback+0x252>
 8004160:	4b34      	ldr	r3, [pc, #208]	; (8004234 <HAL_COMP_TriggerCallback+0x2b0>)
 8004162:	681b      	ldr	r3, [r3, #0]
 8004164:	2b00      	cmp	r3, #0
 8004166:	d025      	beq.n	80041b4 <HAL_COMP_TriggerCallback+0x230>
 8004168:	6a7b      	ldr	r3, [r7, #36]	; 0x24
 800416a:	459a      	cmp	sl, r3
 800416c:	d907      	bls.n	800417e <HAL_COMP_TriggerCallback+0x1fa>
 800416e:	2290      	movs	r2, #144	; 0x90
 8004170:	2380      	movs	r3, #128	; 0x80
 8004172:	05d2      	lsls	r2, r2, #23
 8004174:	021b      	lsls	r3, r3, #8
 8004176:	6193      	str	r3, [r2, #24]
 8004178:	6a79      	ldr	r1, [r7, #36]	; 0x24
 800417a:	4551      	cmp	r1, sl
 800417c:	d3fb      	bcc.n	8004176 <HAL_COMP_TriggerCallback+0x1f2>
 800417e:	4b29      	ldr	r3, [pc, #164]	; (8004224 <HAL_COMP_TriggerCallback+0x2a0>)
 8004180:	681a      	ldr	r2, [r3, #0]
 8004182:	4b29      	ldr	r3, [pc, #164]	; (8004228 <HAL_COMP_TriggerCallback+0x2a4>)
 8004184:	625a      	str	r2, [r3, #36]	; 0x24
 8004186:	2280      	movs	r2, #128	; 0x80
 8004188:	2390      	movs	r3, #144	; 0x90
 800418a:	0212      	lsls	r2, r2, #8
 800418c:	05db      	lsls	r3, r3, #23
 800418e:	629a      	str	r2, [r3, #40]	; 0x28
 8004190:	2300      	movs	r3, #0
 8004192:	4a26      	ldr	r2, [pc, #152]	; (800422c <HAL_COMP_TriggerCallback+0x2a8>)
 8004194:	6013      	str	r3, [r2, #0]
 8004196:	4a16      	ldr	r2, [pc, #88]	; (80041f0 <HAL_COMP_TriggerCallback+0x26c>)
 8004198:	7013      	strb	r3, [r2, #0]
 800419a:	f7ff fd6f 	bl	8003c7c <commutate>
 800419e:	4643      	mov	r3, r8
 80041a0:	464a      	mov	r2, r9
 80041a2:	681b      	ldr	r3, [r3, #0]
 80041a4:	6812      	ldr	r2, [r2, #0]
 80041a6:	189b      	adds	r3, r3, r2
 80041a8:	4a10      	ldr	r2, [pc, #64]	; (80041ec <HAL_COMP_TriggerCallback+0x268>)
 80041aa:	6a51      	ldr	r1, [r2, #36]	; 0x24
 80041ac:	4299      	cmp	r1, r3
 80041ae:	d3fc      	bcc.n	80041aa <HAL_COMP_TriggerCallback+0x226>
 80041b0:	6833      	ldr	r3, [r6, #0]
 80041b2:	9301      	str	r3, [sp, #4]
 80041b4:	4b20      	ldr	r3, [pc, #128]	; (8004238 <HAL_COMP_TriggerCallback+0x2b4>)
 80041b6:	9a01      	ldr	r2, [sp, #4]
 80041b8:	601a      	str	r2, [r3, #0]
 80041ba:	465b      	mov	r3, fp
 80041bc:	681b      	ldr	r3, [r3, #0]
 80041be:	2bc7      	cmp	r3, #199	; 0xc7
 80041c0:	dc89      	bgt.n	80040d6 <HAL_COMP_TriggerCallback+0x152>
 80041c2:	465a      	mov	r2, fp
 80041c4:	3301      	adds	r3, #1
 80041c6:	0020      	movs	r0, r4
 80041c8:	6013      	str	r3, [r2, #0]
 80041ca:	f7fc fc37 	bl	8000a3c <HAL_COMP_Start_IT>
 80041ce:	2800      	cmp	r0, #0
 80041d0:	d187      	bne.n	80040e2 <HAL_COMP_TriggerCallback+0x15e>
 80041d2:	e715      	b.n	8004000 <HAL_COMP_TriggerCallback+0x7c>
 80041d4:	4c0b      	ldr	r4, [pc, #44]	; (8004204 <HAL_COMP_TriggerCallback+0x280>)
 80041d6:	0020      	movs	r0, r4
 80041d8:	f7fc fc84 	bl	8000ae4 <HAL_COMP_Stop_IT>
 80041dc:	e710      	b.n	8004000 <HAL_COMP_TriggerCallback+0x7c>
 80041de:	4c09      	ldr	r4, [pc, #36]	; (8004204 <HAL_COMP_TriggerCallback+0x280>)
 80041e0:	e781      	b.n	80040e6 <HAL_COMP_TriggerCallback+0x162>
 80041e2:	46c0      	nop			; (mov r8, r8)
 80041e4:	20000280 	.word	0x20000280
 80041e8:	200000b4 	.word	0x200000b4
 80041ec:	40000400 	.word	0x40000400
 80041f0:	200000b8 	.word	0x200000b8
 80041f4:	200001ac 	.word	0x200001ac
 80041f8:	20000014 	.word	0x20000014
 80041fc:	20000038 	.word	0x20000038
 8004200:	20000018 	.word	0x20000018
 8004204:	20000210 	.word	0x20000210
 8004208:	2000016c 	.word	0x2000016c
 800420c:	2000017c 	.word	0x2000017c
 8004210:	200000a8 	.word	0x200000a8
 8004214:	2000000a 	.word	0x2000000a
 8004218:	2000009c 	.word	0x2000009c
 800421c:	20000178 	.word	0x20000178
 8004220:	20000384 	.word	0x20000384
 8004224:	20000010 	.word	0x20000010
 8004228:	40012c00 	.word	0x40012c00
 800422c:	20000118 	.word	0x20000118
 8004230:	20000164 	.word	0x20000164
 8004234:	2000014c 	.word	0x2000014c
 8004238:	20000124 	.word	0x20000124

0800423c <playStartupTune>:
 800423c:	b5f8      	push	{r3, r4, r5, r6, r7, lr}
 800423e:	46de      	mov	lr, fp
 8004240:	4657      	mov	r7, sl
 8004242:	464e      	mov	r6, r9
 8004244:	234b      	movs	r3, #75	; 0x4b
 8004246:	4645      	mov	r5, r8
 8004248:	4c93      	ldr	r4, [pc, #588]	; (8004498 <playStartupTune+0x25c>)
 800424a:	b5e0      	push	{r5, r6, r7, lr}
 800424c:	62a3      	str	r3, [r4, #40]	; 0x28
 800424e:	3b46      	subs	r3, #70	; 0x46
 8004250:	6363      	str	r3, [r4, #52]	; 0x34
 8004252:	63a3      	str	r3, [r4, #56]	; 0x38
 8004254:	63e3      	str	r3, [r4, #60]	; 0x3c
 8004256:	4b91      	ldr	r3, [pc, #580]	; (800449c <playStartupTune+0x260>)
 8004258:	6818      	ldr	r0, [r3, #0]
 800425a:	f7ff f903 	bl	8003464 <phaseA>
 800425e:	4e90      	ldr	r6, [pc, #576]	; (80044a0 <playStartupTune+0x264>)
 8004260:	6830      	ldr	r0, [r6, #0]
 8004262:	f7ff f82b 	bl	80032bc <phaseB>
 8004266:	4f8f      	ldr	r7, [pc, #572]	; (80044a4 <playStartupTune+0x268>)
 8004268:	6838      	ldr	r0, [r7, #0]
 800426a:	f7ff f88d 	bl	8003388 <phaseC>
 800426e:	2064      	movs	r0, #100	; 0x64
 8004270:	f7fc f8f0 	bl	8000454 <HAL_Delay>
 8004274:	2332      	movs	r3, #50	; 0x32
 8004276:	2064      	movs	r0, #100	; 0x64
 8004278:	62a3      	str	r3, [r4, #40]	; 0x28
 800427a:	f7fc f8eb 	bl	8000454 <HAL_Delay>
 800427e:	2319      	movs	r3, #25
 8004280:	2064      	movs	r0, #100	; 0x64
 8004282:	62a3      	str	r3, [r4, #40]	; 0x28
 8004284:	f7fc f8e6 	bl	8000454 <HAL_Delay>
 8004288:	4b84      	ldr	r3, [pc, #528]	; (800449c <playStartupTune+0x260>)
 800428a:	683c      	ldr	r4, [r7, #0]
 800428c:	681b      	ldr	r3, [r3, #0]
 800428e:	42a3      	cmp	r3, r4
 8004290:	d100      	bne.n	8004294 <playStartupTune+0x58>
 8004292:	e0c5      	b.n	8004420 <playStartupTune+0x1e4>
 8004294:	210c      	movs	r1, #12
 8004296:	4884      	ldr	r0, [pc, #528]	; (80044a8 <playStartupTune+0x26c>)
 8004298:	468a      	mov	sl, r1
 800429a:	6802      	ldr	r2, [r0, #0]
 800429c:	4f83      	ldr	r7, [pc, #524]	; (80044ac <playStartupTune+0x270>)
 800429e:	438a      	bics	r2, r1
 80042a0:	3908      	subs	r1, #8
 80042a2:	430a      	orrs	r2, r1
 80042a4:	6002      	str	r2, [r0, #0]
 80042a6:	4689      	mov	r9, r1
 80042a8:	2202      	movs	r2, #2
 80042aa:	2190      	movs	r1, #144	; 0x90
 80042ac:	6282      	str	r2, [r0, #40]	; 0x28
 80042ae:	05c9      	lsls	r1, r1, #23
 80042b0:	4690      	mov	r8, r2
 80042b2:	680a      	ldr	r2, [r1, #0]
 80042b4:	46bc      	mov	ip, r7
 80042b6:	403a      	ands	r2, r7
 80042b8:	2780      	movs	r7, #128	; 0x80
 80042ba:	037f      	lsls	r7, r7, #13
 80042bc:	433a      	orrs	r2, r7
 80042be:	600a      	str	r2, [r1, #0]
 80042c0:	2280      	movs	r2, #128	; 0x80
 80042c2:	6836      	ldr	r6, [r6, #0]
 80042c4:	00d2      	lsls	r2, r2, #3
 80042c6:	628a      	str	r2, [r1, #40]	; 0x28
 80042c8:	42b3      	cmp	r3, r6
 80042ca:	d111      	bne.n	80042f0 <playStartupTune+0xb4>
 80042cc:	4652      	mov	r2, sl
 80042ce:	6805      	ldr	r5, [r0, #0]
 80042d0:	4395      	bics	r5, r2
 80042d2:	46ab      	mov	fp, r5
 80042d4:	464d      	mov	r5, r9
 80042d6:	465a      	mov	r2, fp
 80042d8:	4315      	orrs	r5, r2
 80042da:	4642      	mov	r2, r8
 80042dc:	6005      	str	r5, [r0, #0]
 80042de:	6182      	str	r2, [r0, #24]
 80042e0:	4662      	mov	r2, ip
 80042e2:	6808      	ldr	r0, [r1, #0]
 80042e4:	4010      	ands	r0, r2
 80042e6:	2280      	movs	r2, #128	; 0x80
 80042e8:	4307      	orrs	r7, r0
 80042ea:	00d2      	lsls	r2, r2, #3
 80042ec:	600f      	str	r7, [r1, #0]
 80042ee:	628a      	str	r2, [r1, #40]	; 0x28
 80042f0:	0018      	movs	r0, r3
 80042f2:	42a3      	cmp	r3, r4
 80042f4:	d100      	bne.n	80042f8 <playStartupTune+0xbc>
 80042f6:	e07b      	b.n	80043f0 <playStartupTune+0x1b4>
 80042f8:	2703      	movs	r7, #3
 80042fa:	496b      	ldr	r1, [pc, #428]	; (80044a8 <playStartupTune+0x26c>)
 80042fc:	46b8      	mov	r8, r7
 80042fe:	680a      	ldr	r2, [r1, #0]
 8004300:	4d6b      	ldr	r5, [pc, #428]	; (80044b0 <playStartupTune+0x274>)
 8004302:	43ba      	bics	r2, r7
 8004304:	3f02      	subs	r7, #2
 8004306:	433a      	orrs	r2, r7
 8004308:	600a      	str	r2, [r1, #0]
 800430a:	46bc      	mov	ip, r7
 800430c:	628f      	str	r7, [r1, #40]	; 0x28
 800430e:	2790      	movs	r7, #144	; 0x90
 8004310:	05ff      	lsls	r7, r7, #23
 8004312:	683a      	ldr	r2, [r7, #0]
 8004314:	46a9      	mov	r9, r5
 8004316:	402a      	ands	r2, r5
 8004318:	2580      	movs	r5, #128	; 0x80
 800431a:	02ed      	lsls	r5, r5, #11
 800431c:	432a      	orrs	r2, r5
 800431e:	603a      	str	r2, [r7, #0]
 8004320:	2280      	movs	r2, #128	; 0x80
 8004322:	0092      	lsls	r2, r2, #2
 8004324:	46aa      	mov	sl, r5
 8004326:	62ba      	str	r2, [r7, #40]	; 0x28
 8004328:	42b3      	cmp	r3, r6
 800432a:	d10d      	bne.n	8004348 <playStartupTune+0x10c>
 800432c:	4645      	mov	r5, r8
 800432e:	680b      	ldr	r3, [r1, #0]
 8004330:	43ab      	bics	r3, r5
 8004332:	4665      	mov	r5, ip
 8004334:	432b      	orrs	r3, r5
 8004336:	600b      	str	r3, [r1, #0]
 8004338:	618d      	str	r5, [r1, #24]
 800433a:	4649      	mov	r1, r9
 800433c:	683b      	ldr	r3, [r7, #0]
 800433e:	400b      	ands	r3, r1
 8004340:	4651      	mov	r1, sl
 8004342:	4319      	orrs	r1, r3
 8004344:	6039      	str	r1, [r7, #0]
 8004346:	62ba      	str	r2, [r7, #40]	; 0x28
 8004348:	42a0      	cmp	r0, r4
 800434a:	d034      	beq.n	80043b6 <playStartupTune+0x17a>
 800434c:	2390      	movs	r3, #144	; 0x90
 800434e:	05db      	lsls	r3, r3, #23
 8004350:	681a      	ldr	r2, [r3, #0]
 8004352:	4958      	ldr	r1, [pc, #352]	; (80044b4 <playStartupTune+0x278>)
 8004354:	4011      	ands	r1, r2
 8004356:	2280      	movs	r2, #128	; 0x80
 8004358:	01d2      	lsls	r2, r2, #7
 800435a:	430a      	orrs	r2, r1
 800435c:	601a      	str	r2, [r3, #0]
 800435e:	2280      	movs	r2, #128	; 0x80
 8004360:	629a      	str	r2, [r3, #40]	; 0x28
 8004362:	681a      	ldr	r2, [r3, #0]
 8004364:	4954      	ldr	r1, [pc, #336]	; (80044b8 <playStartupTune+0x27c>)
 8004366:	4011      	ands	r1, r2
 8004368:	2280      	movs	r2, #128	; 0x80
 800436a:	0252      	lsls	r2, r2, #9
 800436c:	430a      	orrs	r2, r1
 800436e:	601a      	str	r2, [r3, #0]
 8004370:	2280      	movs	r2, #128	; 0x80
 8004372:	0052      	lsls	r2, r2, #1
 8004374:	629a      	str	r2, [r3, #40]	; 0x28
 8004376:	42b0      	cmp	r0, r6
 8004378:	d114      	bne.n	80043a4 <playStartupTune+0x168>
 800437a:	2390      	movs	r3, #144	; 0x90
 800437c:	05db      	lsls	r3, r3, #23
 800437e:	681a      	ldr	r2, [r3, #0]
 8004380:	494c      	ldr	r1, [pc, #304]	; (80044b4 <playStartupTune+0x278>)
 8004382:	4011      	ands	r1, r2
 8004384:	2280      	movs	r2, #128	; 0x80
 8004386:	01d2      	lsls	r2, r2, #7
 8004388:	430a      	orrs	r2, r1
 800438a:	601a      	str	r2, [r3, #0]
 800438c:	2280      	movs	r2, #128	; 0x80
 800438e:	619a      	str	r2, [r3, #24]
 8004390:	681a      	ldr	r2, [r3, #0]
 8004392:	4949      	ldr	r1, [pc, #292]	; (80044b8 <playStartupTune+0x27c>)
 8004394:	4011      	ands	r1, r2
 8004396:	2280      	movs	r2, #128	; 0x80
 8004398:	0252      	lsls	r2, r2, #9
 800439a:	430a      	orrs	r2, r1
 800439c:	601a      	str	r2, [r3, #0]
 800439e:	2280      	movs	r2, #128	; 0x80
 80043a0:	0052      	lsls	r2, r2, #1
 80043a2:	629a      	str	r2, [r3, #40]	; 0x28
 80043a4:	2200      	movs	r2, #0
 80043a6:	4b3c      	ldr	r3, [pc, #240]	; (8004498 <playStartupTune+0x25c>)
 80043a8:	629a      	str	r2, [r3, #40]	; 0x28
 80043aa:	bc3c      	pop	{r2, r3, r4, r5}
 80043ac:	4690      	mov	r8, r2
 80043ae:	4699      	mov	r9, r3
 80043b0:	46a2      	mov	sl, r4
 80043b2:	46ab      	mov	fp, r5
 80043b4:	bdf8      	pop	{r3, r4, r5, r6, r7, pc}
 80043b6:	4b41      	ldr	r3, [pc, #260]	; (80044bc <playStartupTune+0x280>)
 80043b8:	781b      	ldrb	r3, [r3, #0]
 80043ba:	2b00      	cmp	r3, #0
 80043bc:	d15d      	bne.n	800447a <playStartupTune+0x23e>
 80043be:	2390      	movs	r3, #144	; 0x90
 80043c0:	05db      	lsls	r3, r3, #23
 80043c2:	681a      	ldr	r2, [r3, #0]
 80043c4:	493b      	ldr	r1, [pc, #236]	; (80044b4 <playStartupTune+0x278>)
 80043c6:	4011      	ands	r1, r2
 80043c8:	2280      	movs	r2, #128	; 0x80
 80043ca:	01d2      	lsls	r2, r2, #7
 80043cc:	430a      	orrs	r2, r1
 80043ce:	601a      	str	r2, [r3, #0]
 80043d0:	2280      	movs	r2, #128	; 0x80
 80043d2:	629a      	str	r2, [r3, #40]	; 0x28
 80043d4:	2190      	movs	r1, #144	; 0x90
 80043d6:	05c9      	lsls	r1, r1, #23
 80043d8:	680b      	ldr	r3, [r1, #0]
 80043da:	4a37      	ldr	r2, [pc, #220]	; (80044b8 <playStartupTune+0x27c>)
 80043dc:	401a      	ands	r2, r3
 80043de:	2380      	movs	r3, #128	; 0x80
 80043e0:	029b      	lsls	r3, r3, #10
 80043e2:	4313      	orrs	r3, r2
 80043e4:	600b      	str	r3, [r1, #0]
 80043e6:	4b2d      	ldr	r3, [pc, #180]	; (800449c <playStartupTune+0x260>)
 80043e8:	681b      	ldr	r3, [r3, #0]
 80043ea:	4298      	cmp	r0, r3
 80043ec:	d1c3      	bne.n	8004376 <playStartupTune+0x13a>
 80043ee:	e7ad      	b.n	800434c <playStartupTune+0x110>
 80043f0:	4a32      	ldr	r2, [pc, #200]	; (80044bc <playStartupTune+0x280>)
 80043f2:	492d      	ldr	r1, [pc, #180]	; (80044a8 <playStartupTune+0x26c>)
 80043f4:	7812      	ldrb	r2, [r2, #0]
 80043f6:	2a00      	cmp	r2, #0
 80043f8:	d134      	bne.n	8004464 <playStartupTune+0x228>
 80043fa:	2003      	movs	r0, #3
 80043fc:	680a      	ldr	r2, [r1, #0]
 80043fe:	4382      	bics	r2, r0
 8004400:	3802      	subs	r0, #2
 8004402:	4302      	orrs	r2, r0
 8004404:	600a      	str	r2, [r1, #0]
 8004406:	6288      	str	r0, [r1, #40]	; 0x28
 8004408:	2090      	movs	r0, #144	; 0x90
 800440a:	05c0      	lsls	r0, r0, #23
 800440c:	6802      	ldr	r2, [r0, #0]
 800440e:	4928      	ldr	r1, [pc, #160]	; (80044b0 <playStartupTune+0x274>)
 8004410:	4011      	ands	r1, r2
 8004412:	2280      	movs	r2, #128	; 0x80
 8004414:	0312      	lsls	r2, r2, #12
 8004416:	430a      	orrs	r2, r1
 8004418:	6002      	str	r2, [r0, #0]
 800441a:	0020      	movs	r0, r4
 800441c:	001c      	movs	r4, r3
 800441e:	e76b      	b.n	80042f8 <playStartupTune+0xbc>
 8004420:	4a26      	ldr	r2, [pc, #152]	; (80044bc <playStartupTune+0x280>)
 8004422:	4921      	ldr	r1, [pc, #132]	; (80044a8 <playStartupTune+0x26c>)
 8004424:	7812      	ldrb	r2, [r2, #0]
 8004426:	2a00      	cmp	r2, #0
 8004428:	d111      	bne.n	800444e <playStartupTune+0x212>
 800442a:	200c      	movs	r0, #12
 800442c:	680a      	ldr	r2, [r1, #0]
 800442e:	4382      	bics	r2, r0
 8004430:	3808      	subs	r0, #8
 8004432:	4302      	orrs	r2, r0
 8004434:	600a      	str	r2, [r1, #0]
 8004436:	2202      	movs	r2, #2
 8004438:	628a      	str	r2, [r1, #40]	; 0x28
 800443a:	2090      	movs	r0, #144	; 0x90
 800443c:	05c0      	lsls	r0, r0, #23
 800443e:	6802      	ldr	r2, [r0, #0]
 8004440:	491a      	ldr	r1, [pc, #104]	; (80044ac <playStartupTune+0x270>)
 8004442:	4011      	ands	r1, r2
 8004444:	2280      	movs	r2, #128	; 0x80
 8004446:	0392      	lsls	r2, r2, #14
 8004448:	430a      	orrs	r2, r1
 800444a:	6002      	str	r2, [r0, #0]
 800444c:	e722      	b.n	8004294 <playStartupTune+0x58>
 800444e:	4a1c      	ldr	r2, [pc, #112]	; (80044c0 <playStartupTune+0x284>)
 8004450:	7812      	ldrb	r2, [r2, #0]
 8004452:	2a00      	cmp	r2, #0
 8004454:	d1e9      	bne.n	800442a <playStartupTune+0x1ee>
 8004456:	200c      	movs	r0, #12
 8004458:	680a      	ldr	r2, [r1, #0]
 800445a:	4382      	bics	r2, r0
 800445c:	3804      	subs	r0, #4
 800445e:	4302      	orrs	r2, r0
 8004460:	600a      	str	r2, [r1, #0]
 8004462:	e7ea      	b.n	800443a <playStartupTune+0x1fe>
 8004464:	4a16      	ldr	r2, [pc, #88]	; (80044c0 <playStartupTune+0x284>)
 8004466:	7812      	ldrb	r2, [r2, #0]
 8004468:	2a00      	cmp	r2, #0
 800446a:	d1c6      	bne.n	80043fa <playStartupTune+0x1be>
 800446c:	2003      	movs	r0, #3
 800446e:	680a      	ldr	r2, [r1, #0]
 8004470:	4382      	bics	r2, r0
 8004472:	3801      	subs	r0, #1
 8004474:	4302      	orrs	r2, r0
 8004476:	600a      	str	r2, [r1, #0]
 8004478:	e7c6      	b.n	8004408 <playStartupTune+0x1cc>
 800447a:	4b11      	ldr	r3, [pc, #68]	; (80044c0 <playStartupTune+0x284>)
 800447c:	781b      	ldrb	r3, [r3, #0]
 800447e:	2b00      	cmp	r3, #0
 8004480:	d19d      	bne.n	80043be <playStartupTune+0x182>
 8004482:	2190      	movs	r1, #144	; 0x90
 8004484:	05c9      	lsls	r1, r1, #23
 8004486:	680b      	ldr	r3, [r1, #0]
 8004488:	4a0a      	ldr	r2, [pc, #40]	; (80044b4 <playStartupTune+0x278>)
 800448a:	401a      	ands	r2, r3
 800448c:	2380      	movs	r3, #128	; 0x80
 800448e:	021b      	lsls	r3, r3, #8
 8004490:	4313      	orrs	r3, r2
 8004492:	600b      	str	r3, [r1, #0]
 8004494:	e79e      	b.n	80043d4 <playStartupTune+0x198>
 8004496:	46c0      	nop			; (mov r8, r8)
 8004498:	40012c00 	.word	0x40012c00
 800449c:	2000001c 	.word	0x2000001c
 80044a0:	20000028 	.word	0x20000028
 80044a4:	20000034 	.word	0x20000034
 80044a8:	48000400 	.word	0x48000400
 80044ac:	ffcfffff 	.word	0xffcfffff
 80044b0:	fff3ffff 	.word	0xfff3ffff
 80044b4:	ffff3fff 	.word	0xffff3fff
 80044b8:	fffcffff 	.word	0xfffcffff
 80044bc:	20000040 	.word	0x20000040
 80044c0:	20000133 	.word	0x20000133

080044c4 <playInputTune>:
 80044c4:	b5f8      	push	{r3, r4, r5, r6, r7, lr}
 80044c6:	46de      	mov	lr, fp
 80044c8:	4657      	mov	r7, sl
 80044ca:	464e      	mov	r6, r9
 80044cc:	4645      	mov	r5, r8
 80044ce:	2364      	movs	r3, #100	; 0x64
 80044d0:	b5e0      	push	{r5, r6, r7, lr}
 80044d2:	4d90      	ldr	r5, [pc, #576]	; (8004714 <playInputTune+0x250>)
 80044d4:	62ab      	str	r3, [r5, #40]	; 0x28
 80044d6:	3b5f      	subs	r3, #95	; 0x5f
 80044d8:	636b      	str	r3, [r5, #52]	; 0x34
 80044da:	63ab      	str	r3, [r5, #56]	; 0x38
 80044dc:	63eb      	str	r3, [r5, #60]	; 0x3c
 80044de:	4b8e      	ldr	r3, [pc, #568]	; (8004718 <playInputTune+0x254>)
 80044e0:	6818      	ldr	r0, [r3, #0]
 80044e2:	f7fe ffbf 	bl	8003464 <phaseA>
 80044e6:	4e8d      	ldr	r6, [pc, #564]	; (800471c <playInputTune+0x258>)
 80044e8:	6830      	ldr	r0, [r6, #0]
 80044ea:	f7fe fee7 	bl	80032bc <phaseB>
 80044ee:	4f8c      	ldr	r7, [pc, #560]	; (8004720 <playInputTune+0x25c>)
 80044f0:	6838      	ldr	r0, [r7, #0]
 80044f2:	f7fe ff49 	bl	8003388 <phaseC>
 80044f6:	2064      	movs	r0, #100	; 0x64
 80044f8:	f7fb ffac 	bl	8000454 <HAL_Delay>
 80044fc:	2332      	movs	r3, #50	; 0x32
 80044fe:	2064      	movs	r0, #100	; 0x64
 8004500:	62ab      	str	r3, [r5, #40]	; 0x28
 8004502:	f7fb ffa7 	bl	8000454 <HAL_Delay>
 8004506:	4b84      	ldr	r3, [pc, #528]	; (8004718 <playInputTune+0x254>)
 8004508:	683d      	ldr	r5, [r7, #0]
 800450a:	681b      	ldr	r3, [r3, #0]
 800450c:	42ab      	cmp	r3, r5
 800450e:	d100      	bne.n	8004512 <playInputTune+0x4e>
 8004510:	e0c5      	b.n	800469e <playInputTune+0x1da>
 8004512:	210c      	movs	r1, #12
 8004514:	4883      	ldr	r0, [pc, #524]	; (8004724 <playInputTune+0x260>)
 8004516:	468a      	mov	sl, r1
 8004518:	6802      	ldr	r2, [r0, #0]
 800451a:	4f83      	ldr	r7, [pc, #524]	; (8004728 <playInputTune+0x264>)
 800451c:	438a      	bics	r2, r1
 800451e:	3908      	subs	r1, #8
 8004520:	430a      	orrs	r2, r1
 8004522:	6002      	str	r2, [r0, #0]
 8004524:	4689      	mov	r9, r1
 8004526:	2202      	movs	r2, #2
 8004528:	2190      	movs	r1, #144	; 0x90
 800452a:	6282      	str	r2, [r0, #40]	; 0x28
 800452c:	05c9      	lsls	r1, r1, #23
 800452e:	4690      	mov	r8, r2
 8004530:	680a      	ldr	r2, [r1, #0]
 8004532:	46bc      	mov	ip, r7
 8004534:	403a      	ands	r2, r7
 8004536:	2780      	movs	r7, #128	; 0x80
 8004538:	037f      	lsls	r7, r7, #13
 800453a:	433a      	orrs	r2, r7
 800453c:	600a      	str	r2, [r1, #0]
 800453e:	2280      	movs	r2, #128	; 0x80
 8004540:	6836      	ldr	r6, [r6, #0]
 8004542:	00d2      	lsls	r2, r2, #3
 8004544:	628a      	str	r2, [r1, #40]	; 0x28
 8004546:	42b3      	cmp	r3, r6
 8004548:	d111      	bne.n	800456e <playInputTune+0xaa>
 800454a:	4652      	mov	r2, sl
 800454c:	6804      	ldr	r4, [r0, #0]
 800454e:	4394      	bics	r4, r2
 8004550:	46a3      	mov	fp, r4
 8004552:	464c      	mov	r4, r9
 8004554:	465a      	mov	r2, fp
 8004556:	4314      	orrs	r4, r2
 8004558:	4642      	mov	r2, r8
 800455a:	6004      	str	r4, [r0, #0]
 800455c:	6182      	str	r2, [r0, #24]
 800455e:	4662      	mov	r2, ip
 8004560:	6808      	ldr	r0, [r1, #0]
 8004562:	4010      	ands	r0, r2
 8004564:	2280      	movs	r2, #128	; 0x80
 8004566:	4307      	orrs	r7, r0
 8004568:	00d2      	lsls	r2, r2, #3
 800456a:	600f      	str	r7, [r1, #0]
 800456c:	628a      	str	r2, [r1, #40]	; 0x28
 800456e:	0018      	movs	r0, r3
 8004570:	42ab      	cmp	r3, r5
 8004572:	d100      	bne.n	8004576 <playInputTune+0xb2>
 8004574:	e07b      	b.n	800466e <playInputTune+0x1aa>
 8004576:	2703      	movs	r7, #3
 8004578:	496a      	ldr	r1, [pc, #424]	; (8004724 <playInputTune+0x260>)
 800457a:	46b8      	mov	r8, r7
 800457c:	680a      	ldr	r2, [r1, #0]
 800457e:	4c6b      	ldr	r4, [pc, #428]	; (800472c <playInputTune+0x268>)
 8004580:	43ba      	bics	r2, r7
 8004582:	3f02      	subs	r7, #2
 8004584:	433a      	orrs	r2, r7
 8004586:	600a      	str	r2, [r1, #0]
 8004588:	46bc      	mov	ip, r7
 800458a:	628f      	str	r7, [r1, #40]	; 0x28
 800458c:	2790      	movs	r7, #144	; 0x90
 800458e:	05ff      	lsls	r7, r7, #23
 8004590:	683a      	ldr	r2, [r7, #0]
 8004592:	46a1      	mov	r9, r4
 8004594:	4022      	ands	r2, r4
 8004596:	2480      	movs	r4, #128	; 0x80
 8004598:	02e4      	lsls	r4, r4, #11
 800459a:	4322      	orrs	r2, r4
 800459c:	603a      	str	r2, [r7, #0]
 800459e:	2280      	movs	r2, #128	; 0x80
 80045a0:	0092      	lsls	r2, r2, #2
 80045a2:	46a2      	mov	sl, r4
 80045a4:	62ba      	str	r2, [r7, #40]	; 0x28
 80045a6:	42b3      	cmp	r3, r6
 80045a8:	d10d      	bne.n	80045c6 <playInputTune+0x102>
 80045aa:	4644      	mov	r4, r8
 80045ac:	680b      	ldr	r3, [r1, #0]
 80045ae:	43a3      	bics	r3, r4
 80045b0:	4664      	mov	r4, ip
 80045b2:	4323      	orrs	r3, r4
 80045b4:	600b      	str	r3, [r1, #0]
 80045b6:	618c      	str	r4, [r1, #24]
 80045b8:	4649      	mov	r1, r9
 80045ba:	683b      	ldr	r3, [r7, #0]
 80045bc:	400b      	ands	r3, r1
 80045be:	4651      	mov	r1, sl
 80045c0:	4319      	orrs	r1, r3
 80045c2:	6039      	str	r1, [r7, #0]
 80045c4:	62ba      	str	r2, [r7, #40]	; 0x28
 80045c6:	42a8      	cmp	r0, r5
 80045c8:	d034      	beq.n	8004634 <playInputTune+0x170>
 80045ca:	2390      	movs	r3, #144	; 0x90
 80045cc:	05db      	lsls	r3, r3, #23
 80045ce:	681a      	ldr	r2, [r3, #0]
 80045d0:	4957      	ldr	r1, [pc, #348]	; (8004730 <playInputTune+0x26c>)
 80045d2:	4011      	ands	r1, r2
 80045d4:	2280      	movs	r2, #128	; 0x80
 80045d6:	01d2      	lsls	r2, r2, #7
 80045d8:	430a      	orrs	r2, r1
 80045da:	601a      	str	r2, [r3, #0]
 80045dc:	2280      	movs	r2, #128	; 0x80
 80045de:	629a      	str	r2, [r3, #40]	; 0x28
 80045e0:	681a      	ldr	r2, [r3, #0]
 80045e2:	4954      	ldr	r1, [pc, #336]	; (8004734 <playInputTune+0x270>)
 80045e4:	4011      	ands	r1, r2
 80045e6:	2280      	movs	r2, #128	; 0x80
 80045e8:	0252      	lsls	r2, r2, #9
 80045ea:	430a      	orrs	r2, r1
 80045ec:	601a      	str	r2, [r3, #0]
 80045ee:	2280      	movs	r2, #128	; 0x80
 80045f0:	0052      	lsls	r2, r2, #1
 80045f2:	629a      	str	r2, [r3, #40]	; 0x28
 80045f4:	42b0      	cmp	r0, r6
 80045f6:	d114      	bne.n	8004622 <playInputTune+0x15e>
 80045f8:	2390      	movs	r3, #144	; 0x90
 80045fa:	05db      	lsls	r3, r3, #23
 80045fc:	681a      	ldr	r2, [r3, #0]
 80045fe:	494c      	ldr	r1, [pc, #304]	; (8004730 <playInputTune+0x26c>)
 8004600:	4011      	ands	r1, r2
 8004602:	2280      	movs	r2, #128	; 0x80
 8004604:	01d2      	lsls	r2, r2, #7
 8004606:	430a      	orrs	r2, r1
 8004608:	601a      	str	r2, [r3, #0]
 800460a:	2280      	movs	r2, #128	; 0x80
 800460c:	619a      	str	r2, [r3, #24]
 800460e:	681a      	ldr	r2, [r3, #0]
 8004610:	4948      	ldr	r1, [pc, #288]	; (8004734 <playInputTune+0x270>)
 8004612:	4011      	ands	r1, r2
 8004614:	2280      	movs	r2, #128	; 0x80
 8004616:	0252      	lsls	r2, r2, #9
 8004618:	430a      	orrs	r2, r1
 800461a:	601a      	str	r2, [r3, #0]
 800461c:	2280      	movs	r2, #128	; 0x80
 800461e:	0052      	lsls	r2, r2, #1
 8004620:	629a      	str	r2, [r3, #40]	; 0x28
 8004622:	2200      	movs	r2, #0
 8004624:	4b3b      	ldr	r3, [pc, #236]	; (8004714 <playInputTune+0x250>)
 8004626:	629a      	str	r2, [r3, #40]	; 0x28
 8004628:	bc3c      	pop	{r2, r3, r4, r5}
 800462a:	4690      	mov	r8, r2
 800462c:	4699      	mov	r9, r3
 800462e:	46a2      	mov	sl, r4
 8004630:	46ab      	mov	fp, r5
 8004632:	bdf8      	pop	{r3, r4, r5, r6, r7, pc}
 8004634:	4b40      	ldr	r3, [pc, #256]	; (8004738 <playInputTune+0x274>)
 8004636:	781b      	ldrb	r3, [r3, #0]
 8004638:	2b00      	cmp	r3, #0
 800463a:	d15d      	bne.n	80046f8 <playInputTune+0x234>
 800463c:	2390      	movs	r3, #144	; 0x90
 800463e:	05db      	lsls	r3, r3, #23
 8004640:	681a      	ldr	r2, [r3, #0]
 8004642:	493b      	ldr	r1, [pc, #236]	; (8004730 <playInputTune+0x26c>)
 8004644:	4011      	ands	r1, r2
 8004646:	2280      	movs	r2, #128	; 0x80
 8004648:	01d2      	lsls	r2, r2, #7
 800464a:	430a      	orrs	r2, r1
 800464c:	601a      	str	r2, [r3, #0]
 800464e:	2280      	movs	r2, #128	; 0x80
 8004650:	629a      	str	r2, [r3, #40]	; 0x28
 8004652:	2190      	movs	r1, #144	; 0x90
 8004654:	05c9      	lsls	r1, r1, #23
 8004656:	680b      	ldr	r3, [r1, #0]
 8004658:	4a36      	ldr	r2, [pc, #216]	; (8004734 <playInputTune+0x270>)
 800465a:	401a      	ands	r2, r3
 800465c:	2380      	movs	r3, #128	; 0x80
 800465e:	029b      	lsls	r3, r3, #10
 8004660:	4313      	orrs	r3, r2
 8004662:	600b      	str	r3, [r1, #0]
 8004664:	4b2c      	ldr	r3, [pc, #176]	; (8004718 <playInputTune+0x254>)
 8004666:	681b      	ldr	r3, [r3, #0]
 8004668:	4298      	cmp	r0, r3
 800466a:	d1c3      	bne.n	80045f4 <playInputTune+0x130>
 800466c:	e7ad      	b.n	80045ca <playInputTune+0x106>
 800466e:	4a32      	ldr	r2, [pc, #200]	; (8004738 <playInputTune+0x274>)
 8004670:	492c      	ldr	r1, [pc, #176]	; (8004724 <playInputTune+0x260>)
 8004672:	7812      	ldrb	r2, [r2, #0]
 8004674:	2a00      	cmp	r2, #0
 8004676:	d134      	bne.n	80046e2 <playInputTune+0x21e>
 8004678:	2003      	movs	r0, #3
 800467a:	680a      	ldr	r2, [r1, #0]
 800467c:	4382      	bics	r2, r0
 800467e:	3802      	subs	r0, #2
 8004680:	4302      	orrs	r2, r0
 8004682:	600a      	str	r2, [r1, #0]
 8004684:	6288      	str	r0, [r1, #40]	; 0x28
 8004686:	2090      	movs	r0, #144	; 0x90
 8004688:	05c0      	lsls	r0, r0, #23
 800468a:	6802      	ldr	r2, [r0, #0]
 800468c:	4927      	ldr	r1, [pc, #156]	; (800472c <playInputTune+0x268>)
 800468e:	4011      	ands	r1, r2
 8004690:	2280      	movs	r2, #128	; 0x80
 8004692:	0312      	lsls	r2, r2, #12
 8004694:	430a      	orrs	r2, r1
 8004696:	6002      	str	r2, [r0, #0]
 8004698:	0028      	movs	r0, r5
 800469a:	001d      	movs	r5, r3
 800469c:	e76b      	b.n	8004576 <playInputTune+0xb2>
 800469e:	4a26      	ldr	r2, [pc, #152]	; (8004738 <playInputTune+0x274>)
 80046a0:	4920      	ldr	r1, [pc, #128]	; (8004724 <playInputTune+0x260>)
 80046a2:	7812      	ldrb	r2, [r2, #0]
 80046a4:	2a00      	cmp	r2, #0
 80046a6:	d111      	bne.n	80046cc <playInputTune+0x208>
 80046a8:	200c      	movs	r0, #12
 80046aa:	680a      	ldr	r2, [r1, #0]
 80046ac:	4382      	bics	r2, r0
 80046ae:	3808      	subs	r0, #8
 80046b0:	4302      	orrs	r2, r0
 80046b2:	600a      	str	r2, [r1, #0]
 80046b4:	2202      	movs	r2, #2
 80046b6:	628a      	str	r2, [r1, #40]	; 0x28
 80046b8:	2090      	movs	r0, #144	; 0x90
 80046ba:	05c0      	lsls	r0, r0, #23
 80046bc:	6802      	ldr	r2, [r0, #0]
 80046be:	491a      	ldr	r1, [pc, #104]	; (8004728 <playInputTune+0x264>)
 80046c0:	4011      	ands	r1, r2
 80046c2:	2280      	movs	r2, #128	; 0x80
 80046c4:	0392      	lsls	r2, r2, #14
 80046c6:	430a      	orrs	r2, r1
 80046c8:	6002      	str	r2, [r0, #0]
 80046ca:	e722      	b.n	8004512 <playInputTune+0x4e>
 80046cc:	4a1b      	ldr	r2, [pc, #108]	; (800473c <playInputTune+0x278>)
 80046ce:	7812      	ldrb	r2, [r2, #0]
 80046d0:	2a00      	cmp	r2, #0
 80046d2:	d1e9      	bne.n	80046a8 <playInputTune+0x1e4>
 80046d4:	200c      	movs	r0, #12
 80046d6:	680a      	ldr	r2, [r1, #0]
 80046d8:	4382      	bics	r2, r0
 80046da:	3804      	subs	r0, #4
 80046dc:	4302      	orrs	r2, r0
 80046de:	600a      	str	r2, [r1, #0]
 80046e0:	e7ea      	b.n	80046b8 <playInputTune+0x1f4>
 80046e2:	4a16      	ldr	r2, [pc, #88]	; (800473c <playInputTune+0x278>)
 80046e4:	7812      	ldrb	r2, [r2, #0]
 80046e6:	2a00      	cmp	r2, #0
 80046e8:	d1c6      	bne.n	8004678 <playInputTune+0x1b4>
 80046ea:	2003      	movs	r0, #3
 80046ec:	680a      	ldr	r2, [r1, #0]
 80046ee:	4382      	bics	r2, r0
 80046f0:	3801      	subs	r0, #1
 80046f2:	4302      	orrs	r2, r0
 80046f4:	600a      	str	r2, [r1, #0]
 80046f6:	e7c6      	b.n	8004686 <playInputTune+0x1c2>
 80046f8:	4b10      	ldr	r3, [pc, #64]	; (800473c <playInputTune+0x278>)
 80046fa:	781b      	ldrb	r3, [r3, #0]
 80046fc:	2b00      	cmp	r3, #0
 80046fe:	d19d      	bne.n	800463c <playInputTune+0x178>
 8004700:	2190      	movs	r1, #144	; 0x90
 8004702:	05c9      	lsls	r1, r1, #23
 8004704:	680b      	ldr	r3, [r1, #0]
 8004706:	4a0a      	ldr	r2, [pc, #40]	; (8004730 <playInputTune+0x26c>)
 8004708:	401a      	ands	r2, r3
 800470a:	2380      	movs	r3, #128	; 0x80
 800470c:	021b      	lsls	r3, r3, #8
 800470e:	4313      	orrs	r3, r2
 8004710:	600b      	str	r3, [r1, #0]
 8004712:	e79e      	b.n	8004652 <playInputTune+0x18e>
 8004714:	40012c00 	.word	0x40012c00
 8004718:	2000001c 	.word	0x2000001c
 800471c:	20000028 	.word	0x20000028
 8004720:	20000034 	.word	0x20000034
 8004724:	48000400 	.word	0x48000400
 8004728:	ffcfffff 	.word	0xffcfffff
 800472c:	fff3ffff 	.word	0xfff3ffff
 8004730:	ffff3fff 	.word	0xffff3fff
 8004734:	fffcffff 	.word	0xfffcffff
 8004738:	20000040 	.word	0x20000040
 800473c:	20000133 	.word	0x20000133

08004740 <HAL_ADC_ConvCpltCallback>:
 8004740:	4b05      	ldr	r3, [pc, #20]	; (8004758 <HAL_ADC_ConvCpltCallback+0x18>)
 8004742:	4a06      	ldr	r2, [pc, #24]	; (800475c <HAL_ADC_ConvCpltCallback+0x1c>)
 8004744:	6819      	ldr	r1, [r3, #0]
 8004746:	6011      	str	r1, [r2, #0]
 8004748:	4a05      	ldr	r2, [pc, #20]	; (8004760 <HAL_ADC_ConvCpltCallback+0x20>)
 800474a:	6859      	ldr	r1, [r3, #4]
 800474c:	6011      	str	r1, [r2, #0]
 800474e:	689a      	ldr	r2, [r3, #8]
 8004750:	4b04      	ldr	r3, [pc, #16]	; (8004764 <HAL_ADC_ConvCpltCallback+0x24>)
 8004752:	601a      	str	r2, [r3, #0]
 8004754:	4770      	bx	lr
 8004756:	46c0      	nop			; (mov r8, r8)
 8004758:	20000088 	.word	0x20000088
 800475c:	20000174 	.word	0x20000174
 8004760:	200000c0 	.word	0x200000c0
 8004764:	20000168 	.word	0x20000168

08004768 <detectInput>:
 8004768:	b5f8      	push	{r3, r4, r5, r6, r7, lr}
 800476a:	4645      	mov	r5, r8
 800476c:	46de      	mov	lr, fp
 800476e:	4657      	mov	r7, sl
 8004770:	464e      	mov	r6, r9
 8004772:	4b48      	ldr	r3, [pc, #288]	; (8004894 <detectInput+0x12c>)
 8004774:	b5e0      	push	{r5, r6, r7, lr}
 8004776:	4d48      	ldr	r5, [pc, #288]	; (8004898 <detectInput+0x130>)
 8004778:	469b      	mov	fp, r3
 800477a:	601d      	str	r5, [r3, #0]
 800477c:	4b47      	ldr	r3, [pc, #284]	; (800489c <detectInput+0x134>)
 800477e:	4698      	mov	r8, r3
 8004780:	2300      	movs	r3, #0
 8004782:	4642      	mov	r2, r8
 8004784:	7013      	strb	r3, [r2, #0]
 8004786:	4a46      	ldr	r2, [pc, #280]	; (80048a0 <detectInput+0x138>)
 8004788:	7013      	strb	r3, [r2, #0]
 800478a:	4691      	mov	r9, r2
 800478c:	4a45      	ldr	r2, [pc, #276]	; (80048a4 <detectInput+0x13c>)
 800478e:	7013      	strb	r3, [r2, #0]
 8004790:	4a45      	ldr	r2, [pc, #276]	; (80048a8 <detectInput+0x140>)
 8004792:	7013      	strb	r3, [r2, #0]
 8004794:	4a45      	ldr	r2, [pc, #276]	; (80048ac <detectInput+0x144>)
 8004796:	7013      	strb	r3, [r2, #0]
 8004798:	4a45      	ldr	r2, [pc, #276]	; (80048b0 <detectInput+0x148>)
 800479a:	7013      	strb	r3, [r2, #0]
 800479c:	4b45      	ldr	r3, [pc, #276]	; (80048b4 <detectInput+0x14c>)
 800479e:	4692      	mov	sl, r2
 80047a0:	681b      	ldr	r3, [r3, #0]
 80047a2:	2b01      	cmp	r3, #1
 80047a4:	dc00      	bgt.n	80047a8 <detectInput+0x40>
 80047a6:	e071      	b.n	800488c <detectInput+0x124>
 80047a8:	009b      	lsls	r3, r3, #2
 80047aa:	469c      	mov	ip, r3
 80047ac:	002f      	movs	r7, r5
 80047ae:	4942      	ldr	r1, [pc, #264]	; (80048b8 <detectInput+0x150>)
 80047b0:	1f0a      	subs	r2, r1, #4
 80047b2:	4494      	add	ip, r2
 80047b4:	680b      	ldr	r3, [r1, #0]
 80047b6:	003a      	movs	r2, r7
 80047b8:	001c      	movs	r4, r3
 80047ba:	42bb      	cmp	r3, r7
 80047bc:	d300      	bcc.n	80047c0 <detectInput+0x58>
 80047be:	003c      	movs	r4, r7
 80047c0:	0027      	movs	r7, r4
 80047c2:	001e      	movs	r6, r3
 80047c4:	4293      	cmp	r3, r2
 80047c6:	d900      	bls.n	80047ca <detectInput+0x62>
 80047c8:	0016      	movs	r6, r2
 80047ca:	0028      	movs	r0, r5
 80047cc:	4293      	cmp	r3, r2
 80047ce:	d200      	bcs.n	80047d2 <detectInput+0x6a>
 80047d0:	0018      	movs	r0, r3
 80047d2:	3104      	adds	r1, #4
 80047d4:	0005      	movs	r5, r0
 80047d6:	4561      	cmp	r1, ip
 80047d8:	d1ec      	bne.n	80047b4 <detectInput+0x4c>
 80047da:	465b      	mov	r3, fp
 80047dc:	6018      	str	r0, [r3, #0]
 80047de:	1f33      	subs	r3, r6, #4
 80047e0:	2b11      	cmp	r3, #17
 80047e2:	d828      	bhi.n	8004836 <detectInput+0xce>
 80047e4:	2301      	movs	r3, #1
 80047e6:	4642      	mov	r2, r8
 80047e8:	7013      	strb	r3, [r2, #0]
 80047ea:	22fa      	movs	r2, #250	; 0xfa
 80047ec:	4d33      	ldr	r5, [pc, #204]	; (80048bc <detectInput+0x154>)
 80047ee:	331f      	adds	r3, #31
 80047f0:	602b      	str	r3, [r5, #0]
 80047f2:	4b33      	ldr	r3, [pc, #204]	; (80048c0 <detectInput+0x158>)
 80047f4:	0152      	lsls	r2, r2, #5
 80047f6:	62da      	str	r2, [r3, #44]	; 0x2c
 80047f8:	0033      	movs	r3, r6
 80047fa:	3b29      	subs	r3, #41	; 0x29
 80047fc:	2b26      	cmp	r3, #38	; 0x26
 80047fe:	d82d      	bhi.n	800485c <detectInput+0xf4>
 8004800:	2301      	movs	r3, #1
 8004802:	464a      	mov	r2, r9
 8004804:	7013      	strb	r3, [r2, #0]
 8004806:	22fa      	movs	r2, #250	; 0xfa
 8004808:	3307      	adds	r3, #7
 800480a:	602b      	str	r3, [r5, #0]
 800480c:	4b2c      	ldr	r3, [pc, #176]	; (80048c0 <detectInput+0x158>)
 800480e:	0152      	lsls	r2, r2, #5
 8004810:	62da      	str	r2, [r3, #44]	; 0x2c
 8004812:	465b      	mov	r3, fp
 8004814:	681b      	ldr	r3, [r3, #0]
 8004816:	2b00      	cmp	r3, #0
 8004818:	d131      	bne.n	800487e <detectInput+0x116>
 800481a:	4a2a      	ldr	r2, [pc, #168]	; (80048c4 <detectInput+0x15c>)
 800481c:	7013      	strb	r3, [r2, #0]
 800481e:	882b      	ldrh	r3, [r5, #0]
 8004820:	4a29      	ldr	r2, [pc, #164]	; (80048c8 <detectInput+0x160>)
 8004822:	2100      	movs	r1, #0
 8004824:	4829      	ldr	r0, [pc, #164]	; (80048cc <detectInput+0x164>)
 8004826:	f7fd fac5 	bl	8001db4 <HAL_TIM_IC_Start_DMA>
 800482a:	bc3c      	pop	{r2, r3, r4, r5}
 800482c:	4690      	mov	r8, r2
 800482e:	4699      	mov	r9, r3
 8004830:	46a2      	mov	sl, r4
 8004832:	46ab      	mov	fp, r5
 8004834:	bdf8      	pop	{r3, r4, r5, r6, r7, pc}
 8004836:	3e17      	subs	r6, #23
 8004838:	3b25      	subs	r3, #37	; 0x25
 800483a:	2e06      	cmp	r6, #6
 800483c:	d828      	bhi.n	8004890 <detectInput+0x128>
 800483e:	2201      	movs	r2, #1
 8004840:	4641      	mov	r1, r8
 8004842:	700a      	strb	r2, [r1, #0]
 8004844:	4922      	ldr	r1, [pc, #136]	; (80048d0 <detectInput+0x168>)
 8004846:	4d1d      	ldr	r5, [pc, #116]	; (80048bc <detectInput+0x154>)
 8004848:	628a      	str	r2, [r1, #40]	; 0x28
 800484a:	491d      	ldr	r1, [pc, #116]	; (80048c0 <detectInput+0x158>)
 800484c:	628a      	str	r2, [r1, #40]	; 0x28
 800484e:	22fa      	movs	r2, #250	; 0xfa
 8004850:	0152      	lsls	r2, r2, #5
 8004852:	62ca      	str	r2, [r1, #44]	; 0x2c
 8004854:	2220      	movs	r2, #32
 8004856:	602a      	str	r2, [r5, #0]
 8004858:	2b26      	cmp	r3, #38	; 0x26
 800485a:	d9d1      	bls.n	8004800 <detectInput+0x98>
 800485c:	2c64      	cmp	r4, #100	; 0x64
 800485e:	ddd8      	ble.n	8004812 <detectInput+0xaa>
 8004860:	2301      	movs	r3, #1
 8004862:	4652      	mov	r2, sl
 8004864:	7013      	strb	r3, [r2, #0]
 8004866:	222f      	movs	r2, #47	; 0x2f
 8004868:	4b19      	ldr	r3, [pc, #100]	; (80048d0 <detectInput+0x168>)
 800486a:	481a      	ldr	r0, [pc, #104]	; (80048d4 <detectInput+0x16c>)
 800486c:	629a      	str	r2, [r3, #40]	; 0x28
 800486e:	f7fd f91b 	bl	8001aa8 <HAL_TIM_Base_Stop>
 8004872:	2306      	movs	r3, #6
 8004874:	602b      	str	r3, [r5, #0]
 8004876:	465b      	mov	r3, fp
 8004878:	681b      	ldr	r3, [r3, #0]
 800487a:	2b00      	cmp	r3, #0
 800487c:	d0cd      	beq.n	800481a <detectInput+0xb2>
 800487e:	2201      	movs	r2, #1
 8004880:	4b10      	ldr	r3, [pc, #64]	; (80048c4 <detectInput+0x15c>)
 8004882:	2032      	movs	r0, #50	; 0x32
 8004884:	701a      	strb	r2, [r3, #0]
 8004886:	f7fb fde5 	bl	8000454 <HAL_Delay>
 800488a:	e7c8      	b.n	800481e <detectInput+0xb6>
 800488c:	4d0b      	ldr	r5, [pc, #44]	; (80048bc <detectInput+0x154>)
 800488e:	e7e7      	b.n	8004860 <detectInput+0xf8>
 8004890:	4d0a      	ldr	r5, [pc, #40]	; (80048bc <detectInput+0x154>)
 8004892:	e7b3      	b.n	80047fc <detectInput+0x94>
 8004894:	20000044 	.word	0x20000044
 8004898:	00004e20 	.word	0x00004e20
 800489c:	20000108 	.word	0x20000108
 80048a0:	20000144 	.word	0x20000144
 80048a4:	20000128 	.word	0x20000128
 80048a8:	20000131 	.word	0x20000131
 80048ac:	20000130 	.word	0x20000130
 80048b0:	20000150 	.word	0x20000150
 80048b4:	20000024 	.word	0x20000024
 80048b8:	20000288 	.word	0x20000288
 80048bc:	20000000 	.word	0x20000000
 80048c0:	40014400 	.word	0x40014400
 80048c4:	20000120 	.word	0x20000120
 80048c8:	20000284 	.word	0x20000284
 80048cc:	200001b0 	.word	0x200001b0
 80048d0:	40014000 	.word	0x40014000
 80048d4:	200004e4 	.word	0x200004e4

080048d8 <computeProshotDMA>:
 80048d8:	493c      	ldr	r1, [pc, #240]	; (80049cc <computeProshotDMA+0xf4>)
 80048da:	4a3d      	ldr	r2, [pc, #244]	; (80049d0 <computeProshotDMA+0xf8>)
 80048dc:	468c      	mov	ip, r1
 80048de:	6850      	ldr	r0, [r2, #4]
 80048e0:	6893      	ldr	r3, [r2, #8]
 80048e2:	6911      	ldr	r1, [r2, #16]
 80048e4:	18c3      	adds	r3, r0, r3
 80048e6:	4463      	add	r3, ip
 80048e8:	468c      	mov	ip, r1
 80048ea:	b5f0      	push	{r4, r5, r6, r7, lr}
 80048ec:	46c6      	mov	lr, r8
 80048ee:	68d6      	ldr	r6, [r2, #12]
 80048f0:	6955      	ldr	r5, [r2, #20]
 80048f2:	199b      	adds	r3, r3, r6
 80048f4:	69d4      	ldr	r4, [r2, #28]
 80048f6:	4463      	add	r3, ip
 80048f8:	6992      	ldr	r2, [r2, #24]
 80048fa:	195b      	adds	r3, r3, r5
 80048fc:	189b      	adds	r3, r3, r2
 80048fe:	191b      	adds	r3, r3, r4
 8004900:	b500      	push	{lr}
 8004902:	2bc6      	cmp	r3, #198	; 0xc6
 8004904:	d845      	bhi.n	8004992 <computeProshotDMA+0xba>
 8004906:	2106      	movs	r1, #6
 8004908:	382d      	subs	r0, #45	; 0x2d
 800490a:	f7fb fbfd 	bl	8000108 <__udivsi3>
 800490e:	4b31      	ldr	r3, [pc, #196]	; (80049d4 <computeProshotDMA+0xfc>)
 8004910:	0007      	movs	r7, r0
 8004912:	6018      	str	r0, [r3, #0]
 8004914:	0030      	movs	r0, r6
 8004916:	4698      	mov	r8, r3
 8004918:	2106      	movs	r1, #6
 800491a:	382d      	subs	r0, #45	; 0x2d
 800491c:	f7fb fbf4 	bl	8000108 <__udivsi3>
 8004920:	4643      	mov	r3, r8
 8004922:	0006      	movs	r6, r0
 8004924:	6058      	str	r0, [r3, #4]
 8004926:	0028      	movs	r0, r5
 8004928:	2106      	movs	r1, #6
 800492a:	382d      	subs	r0, #45	; 0x2d
 800492c:	f7fb fbec 	bl	8000108 <__udivsi3>
 8004930:	4643      	mov	r3, r8
 8004932:	0005      	movs	r5, r0
 8004934:	6098      	str	r0, [r3, #8]
 8004936:	0020      	movs	r0, r4
 8004938:	2106      	movs	r1, #6
 800493a:	382d      	subs	r0, #45	; 0x2d
 800493c:	f7fb fbe4 	bl	8000108 <__udivsi3>
 8004940:	4643      	mov	r3, r8
 8004942:	60d8      	str	r0, [r3, #12]
 8004944:	003b      	movs	r3, r7
 8004946:	4073      	eors	r3, r6
 8004948:	406b      	eors	r3, r5
 800494a:	0099      	lsls	r1, r3, #2
 800494c:	00da      	lsls	r2, r3, #3
 800494e:	430a      	orrs	r2, r1
 8004950:	431a      	orrs	r2, r3
 8004952:	005b      	lsls	r3, r3, #1
 8004954:	431a      	orrs	r2, r3
 8004956:	4b20      	ldr	r3, [pc, #128]	; (80049d8 <computeProshotDMA+0x100>)
 8004958:	b2d2      	uxtb	r2, r2
 800495a:	701a      	strb	r2, [r3, #0]
 800495c:	0081      	lsls	r1, r0, #2
 800495e:	00c3      	lsls	r3, r0, #3
 8004960:	430b      	orrs	r3, r1
 8004962:	4303      	orrs	r3, r0
 8004964:	0040      	lsls	r0, r0, #1
 8004966:	4318      	orrs	r0, r3
 8004968:	4b1c      	ldr	r3, [pc, #112]	; (80049dc <computeProshotDMA+0x104>)
 800496a:	b2c0      	uxtb	r0, r0
 800496c:	7018      	strb	r0, [r3, #0]
 800496e:	4282      	cmp	r2, r0
 8004970:	d023      	beq.n	80049ba <computeProshotDMA+0xe2>
 8004972:	4b1b      	ldr	r3, [pc, #108]	; (80049e0 <computeProshotDMA+0x108>)
 8004974:	681d      	ldr	r5, [r3, #0]
 8004976:	002b      	movs	r3, r5
 8004978:	4a1a      	ldr	r2, [pc, #104]	; (80049e4 <computeProshotDMA+0x10c>)
 800497a:	3b30      	subs	r3, #48	; 0x30
 800497c:	4293      	cmp	r3, r2
 800497e:	d916      	bls.n	80049ae <computeProshotDMA+0xd6>
 8004980:	1eab      	subs	r3, r5, #2
 8004982:	2b2d      	cmp	r3, #45	; 0x2d
 8004984:	d808      	bhi.n	8004998 <computeProshotDMA+0xc0>
 8004986:	4b18      	ldr	r3, [pc, #96]	; (80049e8 <computeProshotDMA+0x110>)
 8004988:	681b      	ldr	r3, [r3, #0]
 800498a:	2b00      	cmp	r3, #0
 800498c:	d104      	bne.n	8004998 <computeProshotDMA+0xc0>
 800498e:	4b17      	ldr	r3, [pc, #92]	; (80049ec <computeProshotDMA+0x114>)
 8004990:	601d      	str	r5, [r3, #0]
 8004992:	bc04      	pop	{r2}
 8004994:	4690      	mov	r8, r2
 8004996:	bdf0      	pop	{r4, r5, r6, r7, pc}
 8004998:	4a15      	ldr	r2, [pc, #84]	; (80049f0 <computeProshotDMA+0x118>)
 800499a:	6813      	ldr	r3, [r2, #0]
 800499c:	3301      	adds	r3, #1
 800499e:	6013      	str	r3, [r2, #0]
 80049a0:	2b01      	cmp	r3, #1
 80049a2:	ddf6      	ble.n	8004992 <computeProshotDMA+0xba>
 80049a4:	4b13      	ldr	r3, [pc, #76]	; (80049f4 <computeProshotDMA+0x11c>)
 80049a6:	601d      	str	r5, [r3, #0]
 80049a8:	2300      	movs	r3, #0
 80049aa:	6013      	str	r3, [r2, #0]
 80049ac:	e7f1      	b.n	8004992 <computeProshotDMA+0xba>
 80049ae:	2200      	movs	r2, #0
 80049b0:	4b10      	ldr	r3, [pc, #64]	; (80049f4 <computeProshotDMA+0x11c>)
 80049b2:	601d      	str	r5, [r3, #0]
 80049b4:	4b0e      	ldr	r3, [pc, #56]	; (80049f0 <computeProshotDMA+0x118>)
 80049b6:	601a      	str	r2, [r3, #0]
 80049b8:	e7eb      	b.n	8004992 <computeProshotDMA+0xba>
 80049ba:	01ff      	lsls	r7, r7, #7
 80049bc:	00f6      	lsls	r6, r6, #3
 80049be:	433e      	orrs	r6, r7
 80049c0:	106d      	asrs	r5, r5, #1
 80049c2:	4b07      	ldr	r3, [pc, #28]	; (80049e0 <computeProshotDMA+0x108>)
 80049c4:	4335      	orrs	r5, r6
 80049c6:	601d      	str	r5, [r3, #0]
 80049c8:	e7d5      	b.n	8004976 <computeProshotDMA+0x9e>
 80049ca:	46c0      	nop			; (mov r8, r8)
 80049cc:	fffffda7 	.word	0xfffffda7
 80049d0:	20000284 	.word	0x20000284
 80049d4:	20000134 	.word	0x20000134
 80049d8:	200001f0 	.word	0x200001f0
 80049dc:	20000204 	.word	0x20000204
 80049e0:	20000170 	.word	0x20000170
 80049e4:	000007cf 	.word	0x000007cf
 80049e8:	2000011c 	.word	0x2000011c
 80049ec:	2000010c 	.word	0x2000010c
 80049f0:	200000b0 	.word	0x200000b0
 80049f4:	2000012c 	.word	0x2000012c

080049f8 <computeServoInput>:
 80049f8:	4b27      	ldr	r3, [pc, #156]	; (8004a98 <computeServoInput+0xa0>)
 80049fa:	4a28      	ldr	r2, [pc, #160]	; (8004a9c <computeServoInput+0xa4>)
 80049fc:	6858      	ldr	r0, [r3, #4]
 80049fe:	b510      	push	{r4, lr}
 8004a00:	1881      	adds	r1, r0, r2
 8004a02:	4a27      	ldr	r2, [pc, #156]	; (8004aa0 <computeServoInput+0xa8>)
 8004a04:	689b      	ldr	r3, [r3, #8]
 8004a06:	4291      	cmp	r1, r2
 8004a08:	d813      	bhi.n	8004a32 <computeServoInput+0x3a>
 8004a0a:	4a26      	ldr	r2, [pc, #152]	; (8004aa4 <computeServoInput+0xac>)
 8004a0c:	4694      	mov	ip, r2
 8004a0e:	4a26      	ldr	r2, [pc, #152]	; (8004aa8 <computeServoInput+0xb0>)
 8004a10:	4463      	add	r3, ip
 8004a12:	4293      	cmp	r3, r2
 8004a14:	d821      	bhi.n	8004a5a <computeServoInput+0x62>
 8004a16:	4b25      	ldr	r3, [pc, #148]	; (8004aac <computeServoInput+0xb4>)
 8004a18:	4925      	ldr	r1, [pc, #148]	; (8004ab0 <computeServoInput+0xb8>)
 8004a1a:	4a26      	ldr	r2, [pc, #152]	; (8004ab4 <computeServoInput+0xbc>)
 8004a1c:	6818      	ldr	r0, [r3, #0]
 8004a1e:	6812      	ldr	r2, [r2, #0]
 8004a20:	680b      	ldr	r3, [r1, #0]
 8004a22:	1ac4      	subs	r4, r0, r3
 8004a24:	4294      	cmp	r4, r2
 8004a26:	dc2e      	bgt.n	8004a86 <computeServoInput+0x8e>
 8004a28:	1a1c      	subs	r4, r3, r0
 8004a2a:	42a2      	cmp	r2, r4
 8004a2c:	db2e      	blt.n	8004a8c <computeServoInput+0x94>
 8004a2e:	6008      	str	r0, [r1, #0]
 8004a30:	bd10      	pop	{r4, pc}
 8004a32:	491a      	ldr	r1, [pc, #104]	; (8004a9c <computeServoInput+0xa4>)
 8004a34:	1859      	adds	r1, r3, r1
 8004a36:	4291      	cmp	r1, r2
 8004a38:	d8ed      	bhi.n	8004a16 <computeServoInput+0x1e>
 8004a3a:	4a1a      	ldr	r2, [pc, #104]	; (8004aa4 <computeServoInput+0xac>)
 8004a3c:	4694      	mov	ip, r2
 8004a3e:	4a1a      	ldr	r2, [pc, #104]	; (8004aa8 <computeServoInput+0xb0>)
 8004a40:	4460      	add	r0, ip
 8004a42:	4290      	cmp	r0, r2
 8004a44:	d9e7      	bls.n	8004a16 <computeServoInput+0x1e>
 8004a46:	4a1c      	ldr	r2, [pc, #112]	; (8004ab8 <computeServoInput+0xc0>)
 8004a48:	4293      	cmp	r3, r2
 8004a4a:	d200      	bcs.n	8004a4e <computeServoInput+0x56>
 8004a4c:	0013      	movs	r3, r2
 8004a4e:	4a1b      	ldr	r2, [pc, #108]	; (8004abc <computeServoInput+0xc4>)
 8004a50:	20fa      	movs	r0, #250	; 0xfa
 8004a52:	4694      	mov	ip, r2
 8004a54:	00c0      	lsls	r0, r0, #3
 8004a56:	4463      	add	r3, ip
 8004a58:	e007      	b.n	8004a6a <computeServoInput+0x72>
 8004a5a:	4b17      	ldr	r3, [pc, #92]	; (8004ab8 <computeServoInput+0xc0>)
 8004a5c:	4298      	cmp	r0, r3
 8004a5e:	d318      	bcc.n	8004a92 <computeServoInput+0x9a>
 8004a60:	4b16      	ldr	r3, [pc, #88]	; (8004abc <computeServoInput+0xc4>)
 8004a62:	469c      	mov	ip, r3
 8004a64:	23fa      	movs	r3, #250	; 0xfa
 8004a66:	4460      	add	r0, ip
 8004a68:	00db      	lsls	r3, r3, #3
 8004a6a:	21e1      	movs	r1, #225	; 0xe1
 8004a6c:	4358      	muls	r0, r3
 8004a6e:	0089      	lsls	r1, r1, #2
 8004a70:	f7fb fbd4 	bl	800021c <__divsi3>
 8004a74:	4b0d      	ldr	r3, [pc, #52]	; (8004aac <computeServoInput+0xb4>)
 8004a76:	490e      	ldr	r1, [pc, #56]	; (8004ab0 <computeServoInput+0xb8>)
 8004a78:	4a0e      	ldr	r2, [pc, #56]	; (8004ab4 <computeServoInput+0xbc>)
 8004a7a:	6018      	str	r0, [r3, #0]
 8004a7c:	6812      	ldr	r2, [r2, #0]
 8004a7e:	680b      	ldr	r3, [r1, #0]
 8004a80:	1ac4      	subs	r4, r0, r3
 8004a82:	4294      	cmp	r4, r2
 8004a84:	ddd0      	ble.n	8004a28 <computeServoInput+0x30>
 8004a86:	189b      	adds	r3, r3, r2
 8004a88:	600b      	str	r3, [r1, #0]
 8004a8a:	e7d1      	b.n	8004a30 <computeServoInput+0x38>
 8004a8c:	1a9b      	subs	r3, r3, r2
 8004a8e:	600b      	str	r3, [r1, #0]
 8004a90:	e7ce      	b.n	8004a30 <computeServoInput+0x38>
 8004a92:	0018      	movs	r0, r3
 8004a94:	e7e4      	b.n	8004a60 <computeServoInput+0x68>
 8004a96:	46c0      	nop			; (mov r8, r8)
 8004a98:	20000284 	.word	0x20000284
 8004a9c:	fffffc17 	.word	0xfffffc17
 8004aa0:	000003e6 	.word	0x000003e6
 8004aa4:	fffffc18 	.word	0xfffffc18
 8004aa8:	000005dc 	.word	0x000005dc
 8004aac:	20000154 	.word	0x20000154
 8004ab0:	2000012c 	.word	0x2000012c
 8004ab4:	2000002c 	.word	0x2000002c
 8004ab8:	0000044c 	.word	0x0000044c
 8004abc:	fffffbb4 	.word	0xfffffbb4

08004ac0 <transferComplete>:
 8004ac0:	2200      	movs	r2, #0
 8004ac2:	b510      	push	{r4, lr}
 8004ac4:	4b50      	ldr	r3, [pc, #320]	; (8004c08 <transferComplete+0x148>)
 8004ac6:	601a      	str	r2, [r3, #0]
 8004ac8:	4b50      	ldr	r3, [pc, #320]	; (8004c0c <transferComplete+0x14c>)
 8004aca:	781b      	ldrb	r3, [r3, #0]
 8004acc:	2b01      	cmp	r3, #1
 8004ace:	d000      	beq.n	8004ad2 <transferComplete+0x12>
 8004ad0:	bd10      	pop	{r4, pc}
 8004ad2:	4b4f      	ldr	r3, [pc, #316]	; (8004c10 <transferComplete+0x150>)
 8004ad4:	781b      	ldrb	r3, [r3, #0]
 8004ad6:	2b01      	cmp	r3, #1
 8004ad8:	d043      	beq.n	8004b62 <transferComplete+0xa2>
 8004ada:	4b4e      	ldr	r3, [pc, #312]	; (8004c14 <transferComplete+0x154>)
 8004adc:	781b      	ldrb	r3, [r3, #0]
 8004ade:	2b01      	cmp	r3, #1
 8004ae0:	d053      	beq.n	8004b8a <transferComplete+0xca>
 8004ae2:	4b4d      	ldr	r3, [pc, #308]	; (8004c18 <transferComplete+0x158>)
 8004ae4:	781b      	ldrb	r3, [r3, #0]
 8004ae6:	2b01      	cmp	r3, #1
 8004ae8:	d043      	beq.n	8004b72 <transferComplete+0xb2>
 8004aea:	4b4c      	ldr	r3, [pc, #304]	; (8004c1c <transferComplete+0x15c>)
 8004aec:	781b      	ldrb	r3, [r3, #0]
 8004aee:	2b00      	cmp	r3, #0
 8004af0:	d127      	bne.n	8004b42 <transferComplete+0x82>
 8004af2:	4b4b      	ldr	r3, [pc, #300]	; (8004c20 <transferComplete+0x160>)
 8004af4:	781b      	ldrb	r3, [r3, #0]
 8004af6:	2b00      	cmp	r3, #0
 8004af8:	d113      	bne.n	8004b22 <transferComplete+0x62>
 8004afa:	4b4a      	ldr	r3, [pc, #296]	; (8004c24 <transferComplete+0x164>)
 8004afc:	781b      	ldrb	r3, [r3, #0]
 8004afe:	2b00      	cmp	r3, #0
 8004b00:	d0e6      	beq.n	8004ad0 <transferComplete+0x10>
 8004b02:	4c49      	ldr	r4, [pc, #292]	; (8004c28 <transferComplete+0x168>)
 8004b04:	4849      	ldr	r0, [pc, #292]	; (8004c2c <transferComplete+0x16c>)
 8004b06:	6823      	ldr	r3, [r4, #0]
 8004b08:	6862      	ldr	r2, [r4, #4]
 8004b0a:	1ad1      	subs	r1, r2, r3
 8004b0c:	4281      	cmp	r1, r0
 8004b0e:	d801      	bhi.n	8004b14 <transferComplete+0x54>
 8004b10:	429a      	cmp	r2, r3
 8004b12:	d13d      	bne.n	8004b90 <transferComplete+0xd0>
 8004b14:	2303      	movs	r3, #3
 8004b16:	0022      	movs	r2, r4
 8004b18:	2100      	movs	r1, #0
 8004b1a:	4845      	ldr	r0, [pc, #276]	; (8004c30 <transferComplete+0x170>)
 8004b1c:	f7fd f94a 	bl	8001db4 <HAL_TIM_IC_Start_DMA>
 8004b20:	e7d6      	b.n	8004ad0 <transferComplete+0x10>
 8004b22:	4c41      	ldr	r4, [pc, #260]	; (8004c28 <transferComplete+0x168>)
 8004b24:	4843      	ldr	r0, [pc, #268]	; (8004c34 <transferComplete+0x174>)
 8004b26:	6822      	ldr	r2, [r4, #0]
 8004b28:	6863      	ldr	r3, [r4, #4]
 8004b2a:	1a99      	subs	r1, r3, r2
 8004b2c:	4281      	cmp	r1, r0
 8004b2e:	d801      	bhi.n	8004b34 <transferComplete+0x74>
 8004b30:	429a      	cmp	r2, r3
 8004b32:	d154      	bne.n	8004bde <transferComplete+0x11e>
 8004b34:	2303      	movs	r3, #3
 8004b36:	0022      	movs	r2, r4
 8004b38:	2100      	movs	r1, #0
 8004b3a:	483d      	ldr	r0, [pc, #244]	; (8004c30 <transferComplete+0x170>)
 8004b3c:	f7fd f93a 	bl	8001db4 <HAL_TIM_IC_Start_DMA>
 8004b40:	e7db      	b.n	8004afa <transferComplete+0x3a>
 8004b42:	4c39      	ldr	r4, [pc, #228]	; (8004c28 <transferComplete+0x168>)
 8004b44:	483c      	ldr	r0, [pc, #240]	; (8004c38 <transferComplete+0x178>)
 8004b46:	6822      	ldr	r2, [r4, #0]
 8004b48:	6863      	ldr	r3, [r4, #4]
 8004b4a:	1a99      	subs	r1, r3, r2
 8004b4c:	4281      	cmp	r1, r0
 8004b4e:	d801      	bhi.n	8004b54 <transferComplete+0x94>
 8004b50:	429a      	cmp	r2, r3
 8004b52:	d132      	bne.n	8004bba <transferComplete+0xfa>
 8004b54:	2303      	movs	r3, #3
 8004b56:	0022      	movs	r2, r4
 8004b58:	2100      	movs	r1, #0
 8004b5a:	4835      	ldr	r0, [pc, #212]	; (8004c30 <transferComplete+0x170>)
 8004b5c:	f7fd f92a 	bl	8001db4 <HAL_TIM_IC_Start_DMA>
 8004b60:	e7c7      	b.n	8004af2 <transferComplete+0x32>
 8004b62:	4a31      	ldr	r2, [pc, #196]	; (8004c28 <transferComplete+0x168>)
 8004b64:	4b35      	ldr	r3, [pc, #212]	; (8004c3c <transferComplete+0x17c>)
 8004b66:	6812      	ldr	r2, [r2, #0]
 8004b68:	429a      	cmp	r2, r3
 8004b6a:	d9b6      	bls.n	8004ada <transferComplete+0x1a>
 8004b6c:	f7fe fa5a 	bl	8003024 <computeDshotDMA.part.1>
 8004b70:	e7b3      	b.n	8004ada <transferComplete+0x1a>
 8004b72:	f7ff ff41 	bl	80049f8 <computeServoInput>
 8004b76:	2200      	movs	r2, #0
 8004b78:	4b31      	ldr	r3, [pc, #196]	; (8004c40 <transferComplete+0x180>)
 8004b7a:	2100      	movs	r1, #0
 8004b7c:	625a      	str	r2, [r3, #36]	; 0x24
 8004b7e:	482c      	ldr	r0, [pc, #176]	; (8004c30 <transferComplete+0x170>)
 8004b80:	2303      	movs	r3, #3
 8004b82:	4a29      	ldr	r2, [pc, #164]	; (8004c28 <transferComplete+0x168>)
 8004b84:	f7fd f916 	bl	8001db4 <HAL_TIM_IC_Start_DMA>
 8004b88:	e7af      	b.n	8004aea <transferComplete+0x2a>
 8004b8a:	f7ff fea5 	bl	80048d8 <computeProshotDMA>
 8004b8e:	e7a8      	b.n	8004ae2 <transferComplete+0x22>
 8004b90:	4b2c      	ldr	r3, [pc, #176]	; (8004c44 <transferComplete+0x184>)
 8004b92:	2000      	movs	r0, #0
 8004b94:	4299      	cmp	r1, r3
 8004b96:	d90d      	bls.n	8004bb4 <transferComplete+0xf4>
 8004b98:	23fc      	movs	r3, #252	; 0xfc
 8004b9a:	011b      	lsls	r3, r3, #4
 8004b9c:	4299      	cmp	r1, r3
 8004b9e:	dd00      	ble.n	8004ba2 <transferComplete+0xe2>
 8004ba0:	0019      	movs	r1, r3
 8004ba2:	4b29      	ldr	r3, [pc, #164]	; (8004c48 <transferComplete+0x188>)
 8004ba4:	20fa      	movs	r0, #250	; 0xfa
 8004ba6:	469c      	mov	ip, r3
 8004ba8:	00c0      	lsls	r0, r0, #3
 8004baa:	4461      	add	r1, ip
 8004bac:	4348      	muls	r0, r1
 8004bae:	4927      	ldr	r1, [pc, #156]	; (8004c4c <transferComplete+0x18c>)
 8004bb0:	f7fb fb34 	bl	800021c <__divsi3>
 8004bb4:	4b26      	ldr	r3, [pc, #152]	; (8004c50 <transferComplete+0x190>)
 8004bb6:	6018      	str	r0, [r3, #0]
 8004bb8:	e7ac      	b.n	8004b14 <transferComplete+0x54>
 8004bba:	2000      	movs	r0, #0
 8004bbc:	29f2      	cmp	r1, #242	; 0xf2
 8004bbe:	d90b      	bls.n	8004bd8 <transferComplete+0x118>
 8004bc0:	2396      	movs	r3, #150	; 0x96
 8004bc2:	00db      	lsls	r3, r3, #3
 8004bc4:	4299      	cmp	r1, r3
 8004bc6:	dd00      	ble.n	8004bca <transferComplete+0x10a>
 8004bc8:	0019      	movs	r1, r3
 8004bca:	20fa      	movs	r0, #250	; 0xfa
 8004bcc:	39f3      	subs	r1, #243	; 0xf3
 8004bce:	00c0      	lsls	r0, r0, #3
 8004bd0:	4348      	muls	r0, r1
 8004bd2:	4920      	ldr	r1, [pc, #128]	; (8004c54 <transferComplete+0x194>)
 8004bd4:	f7fb fb22 	bl	800021c <__divsi3>
 8004bd8:	4b1d      	ldr	r3, [pc, #116]	; (8004c50 <transferComplete+0x190>)
 8004bda:	6018      	str	r0, [r3, #0]
 8004bdc:	e7ba      	b.n	8004b54 <transferComplete+0x94>
 8004bde:	4b1e      	ldr	r3, [pc, #120]	; (8004c58 <transferComplete+0x198>)
 8004be0:	2000      	movs	r0, #0
 8004be2:	4299      	cmp	r1, r3
 8004be4:	d90c      	bls.n	8004c00 <transferComplete+0x140>
 8004be6:	4b1d      	ldr	r3, [pc, #116]	; (8004c5c <transferComplete+0x19c>)
 8004be8:	4299      	cmp	r1, r3
 8004bea:	dd00      	ble.n	8004bee <transferComplete+0x12e>
 8004bec:	0019      	movs	r1, r3
 8004bee:	4b1c      	ldr	r3, [pc, #112]	; (8004c60 <transferComplete+0x1a0>)
 8004bf0:	20fa      	movs	r0, #250	; 0xfa
 8004bf2:	469c      	mov	ip, r3
 8004bf4:	00c0      	lsls	r0, r0, #3
 8004bf6:	4461      	add	r1, ip
 8004bf8:	4348      	muls	r0, r1
 8004bfa:	491a      	ldr	r1, [pc, #104]	; (8004c64 <transferComplete+0x1a4>)
 8004bfc:	f7fb fb0e 	bl	800021c <__divsi3>
 8004c00:	4b13      	ldr	r3, [pc, #76]	; (8004c50 <transferComplete+0x190>)
 8004c02:	6018      	str	r0, [r3, #0]
 8004c04:	e796      	b.n	8004b34 <transferComplete+0x74>
 8004c06:	46c0      	nop			; (mov r8, r8)
 8004c08:	20000158 	.word	0x20000158
 8004c0c:	20000120 	.word	0x20000120
 8004c10:	20000108 	.word	0x20000108
 8004c14:	20000144 	.word	0x20000144
 8004c18:	20000150 	.word	0x20000150
 8004c1c:	20000128 	.word	0x20000128
 8004c20:	20000130 	.word	0x20000130
 8004c24:	20000131 	.word	0x20000131
 8004c28:	20000284 	.word	0x20000284
 8004c2c:	00001193 	.word	0x00001193
 8004c30:	200001b0 	.word	0x200001b0
 8004c34:	0000300b 	.word	0x0000300b
 8004c38:	000005db 	.word	0x000005db
 8004c3c:	000003e7 	.word	0x000003e7
 8004c40:	40014000 	.word	0x40014000
 8004c44:	000007e3 	.word	0x000007e3
 8004c48:	fffff81c 	.word	0xfffff81c
 8004c4c:	000007dc 	.word	0x000007dc
 8004c50:	2000012c 	.word	0x2000012c
 8004c54:	000003bd 	.word	0x000003bd
 8004c58:	00001963 	.word	0x00001963
 8004c5c:	00002ee0 	.word	0x00002ee0
 8004c60:	ffffe69c 	.word	0xffffe69c
 8004c64:	0000157c 	.word	0x0000157c

08004c68 <SystemClock_Config>:
 8004c68:	2210      	movs	r2, #16
 8004c6a:	231a      	movs	r3, #26
 8004c6c:	b510      	push	{r4, lr}
 8004c6e:	b090      	sub	sp, #64	; 0x40
 8004c70:	9304      	str	r3, [sp, #16]
 8004c72:	9208      	str	r2, [sp, #32]
 8004c74:	3b19      	subs	r3, #25
 8004c76:	920a      	str	r2, [sp, #40]	; 0x28
 8004c78:	22a0      	movs	r2, #160	; 0xa0
 8004c7a:	9307      	str	r3, [sp, #28]
 8004c7c:	9309      	str	r3, [sp, #36]	; 0x24
 8004c7e:	930b      	str	r3, [sp, #44]	; 0x2c
 8004c80:	2402      	movs	r4, #2
 8004c82:	2300      	movs	r3, #0
 8004c84:	0392      	lsls	r2, r2, #14
 8004c86:	a804      	add	r0, sp, #16
 8004c88:	940c      	str	r4, [sp, #48]	; 0x30
 8004c8a:	930d      	str	r3, [sp, #52]	; 0x34
 8004c8c:	920e      	str	r2, [sp, #56]	; 0x38
 8004c8e:	930f      	str	r3, [sp, #60]	; 0x3c
 8004c90:	f7fc fb76 	bl	8001380 <HAL_RCC_OscConfig>
 8004c94:	2800      	cmp	r0, #0
 8004c96:	d000      	beq.n	8004c9a <SystemClock_Config+0x32>
 8004c98:	e7fe      	b.n	8004c98 <SystemClock_Config+0x30>
 8004c9a:	2307      	movs	r3, #7
 8004c9c:	9002      	str	r0, [sp, #8]
 8004c9e:	9003      	str	r0, [sp, #12]
 8004ca0:	2101      	movs	r1, #1
 8004ca2:	4668      	mov	r0, sp
 8004ca4:	9300      	str	r3, [sp, #0]
 8004ca6:	9401      	str	r4, [sp, #4]
 8004ca8:	f7fc fda2 	bl	80017f0 <HAL_RCC_ClockConfig>
 8004cac:	2800      	cmp	r0, #0
 8004cae:	d000      	beq.n	8004cb2 <SystemClock_Config+0x4a>
 8004cb0:	e7fe      	b.n	8004cb0 <SystemClock_Config+0x48>
 8004cb2:	f7fc fe6f 	bl	8001994 <HAL_RCC_GetHCLKFreq>
 8004cb6:	21fa      	movs	r1, #250	; 0xfa
 8004cb8:	0089      	lsls	r1, r1, #2
 8004cba:	f7fb fa25 	bl	8000108 <__udivsi3>
 8004cbe:	f7fb ffa9 	bl	8000c14 <HAL_SYSTICK_Config>
 8004cc2:	2004      	movs	r0, #4
 8004cc4:	f7fb ffc2 	bl	8000c4c <HAL_SYSTICK_CLKSourceConfig>
 8004cc8:	2001      	movs	r0, #1
 8004cca:	2200      	movs	r2, #0
 8004ccc:	2100      	movs	r1, #0
 8004cce:	4240      	negs	r0, r0
 8004cd0:	f7fb ff62 	bl	8000b98 <HAL_NVIC_SetPriority>
 8004cd4:	b010      	add	sp, #64	; 0x40
 8004cd6:	bd10      	pop	{r4, pc}

08004cd8 <main>:
 8004cd8:	b5f0      	push	{r4, r5, r6, r7, lr}
 8004cda:	46de      	mov	lr, fp
 8004cdc:	464e      	mov	r6, r9
 8004cde:	4645      	mov	r5, r8
 8004ce0:	4657      	mov	r7, sl
 8004ce2:	b5e0      	push	{r5, r6, r7, lr}
 8004ce4:	b09f      	sub	sp, #124	; 0x7c
 8004ce6:	f7fb fb97 	bl	8000418 <HAL_Init>
 8004cea:	f7ff ffbd 	bl	8004c68 <SystemClock_Config>
 8004cee:	f7fc f961 	bl	8000fb4 <HAL_FLASH_Unlock>
 8004cf2:	f7fd fe3d 	bl	8002970 <EE_Init>
 8004cf6:	2180      	movs	r1, #128	; 0x80
 8004cf8:	4dc3      	ldr	r5, [pc, #780]	; (8005008 <main+0x330>)
 8004cfa:	0289      	lsls	r1, r1, #10
 8004cfc:	696a      	ldr	r2, [r5, #20]
 8004cfe:	2090      	movs	r0, #144	; 0x90
 8004d00:	430a      	orrs	r2, r1
 8004d02:	616a      	str	r2, [r5, #20]
 8004d04:	696b      	ldr	r3, [r5, #20]
 8004d06:	2400      	movs	r4, #0
 8004d08:	400b      	ands	r3, r1
 8004d0a:	2180      	movs	r1, #128	; 0x80
 8004d0c:	9308      	str	r3, [sp, #32]
 8004d0e:	9b08      	ldr	r3, [sp, #32]
 8004d10:	696a      	ldr	r2, [r5, #20]
 8004d12:	02c9      	lsls	r1, r1, #11
 8004d14:	430a      	orrs	r2, r1
 8004d16:	616a      	str	r2, [r5, #20]
 8004d18:	696b      	ldr	r3, [r5, #20]
 8004d1a:	2601      	movs	r6, #1
 8004d1c:	400b      	ands	r3, r1
 8004d1e:	9309      	str	r3, [sp, #36]	; 0x24
 8004d20:	9b09      	ldr	r3, [sp, #36]	; 0x24
 8004d22:	2380      	movs	r3, #128	; 0x80
 8004d24:	05c0      	lsls	r0, r0, #23
 8004d26:	021b      	lsls	r3, r3, #8
 8004d28:	6283      	str	r3, [r0, #40]	; 0x28
 8004d2a:	a917      	add	r1, sp, #92	; 0x5c
 8004d2c:	9317      	str	r3, [sp, #92]	; 0x5c
 8004d2e:	9618      	str	r6, [sp, #96]	; 0x60
 8004d30:	9419      	str	r4, [sp, #100]	; 0x64
 8004d32:	941a      	str	r4, [sp, #104]	; 0x68
 8004d34:	941b      	str	r4, [sp, #108]	; 0x6c
 8004d36:	f7fd fd97 	bl	8002868 <LL_GPIO_Init>
 8004d3a:	696b      	ldr	r3, [r5, #20]
 8004d3c:	2200      	movs	r2, #0
 8004d3e:	4333      	orrs	r3, r6
 8004d40:	616b      	str	r3, [r5, #20]
 8004d42:	696b      	ldr	r3, [r5, #20]
 8004d44:	2102      	movs	r1, #2
 8004d46:	4033      	ands	r3, r6
 8004d48:	9307      	str	r3, [sp, #28]
 8004d4a:	2009      	movs	r0, #9
 8004d4c:	9b07      	ldr	r3, [sp, #28]
 8004d4e:	f7fb ff23 	bl	8000b98 <HAL_NVIC_SetPriority>
 8004d52:	2009      	movs	r0, #9
 8004d54:	f7fb ff54 	bl	8000c00 <HAL_NVIC_EnableIRQ>
 8004d58:	2200      	movs	r2, #0
 8004d5a:	2102      	movs	r1, #2
 8004d5c:	200b      	movs	r0, #11
 8004d5e:	f7fb ff1b 	bl	8000b98 <HAL_NVIC_SetPriority>
 8004d62:	200b      	movs	r0, #11
 8004d64:	f7fb ff4c 	bl	8000c00 <HAL_NVIC_EnableIRQ>
 8004d68:	4da8      	ldr	r5, [pc, #672]	; (800500c <main+0x334>)
 8004d6a:	4ba9      	ldr	r3, [pc, #676]	; (8005010 <main+0x338>)
 8004d6c:	0028      	movs	r0, r5
 8004d6e:	602b      	str	r3, [r5, #0]
 8004d70:	2308      	movs	r3, #8
 8004d72:	616b      	str	r3, [r5, #20]
 8004d74:	3338      	adds	r3, #56	; 0x38
 8004d76:	62ab      	str	r3, [r5, #40]	; 0x28
 8004d78:	2380      	movs	r3, #128	; 0x80
 8004d7a:	00db      	lsls	r3, r3, #3
 8004d7c:	606c      	str	r4, [r5, #4]
 8004d7e:	60ac      	str	r4, [r5, #8]
 8004d80:	60ec      	str	r4, [r5, #12]
 8004d82:	612e      	str	r6, [r5, #16]
 8004d84:	61ac      	str	r4, [r5, #24]
 8004d86:	61ec      	str	r4, [r5, #28]
 8004d88:	622c      	str	r4, [r5, #32]
 8004d8a:	626e      	str	r6, [r5, #36]	; 0x24
 8004d8c:	62eb      	str	r3, [r5, #44]	; 0x2c
 8004d8e:	632e      	str	r6, [r5, #48]	; 0x30
 8004d90:	636e      	str	r6, [r5, #52]	; 0x34
 8004d92:	f7fb fbc5 	bl	8000520 <HAL_ADC_Init>
 8004d96:	2800      	cmp	r0, #0
 8004d98:	d000      	beq.n	8004d9c <main+0xc4>
 8004d9a:	e7fe      	b.n	8004d9a <main+0xc2>
 8004d9c:	2680      	movs	r6, #128	; 0x80
 8004d9e:	2403      	movs	r4, #3
 8004da0:	2307      	movs	r3, #7
 8004da2:	0176      	lsls	r6, r6, #5
 8004da4:	a917      	add	r1, sp, #92	; 0x5c
 8004da6:	0028      	movs	r0, r5
 8004da8:	9417      	str	r4, [sp, #92]	; 0x5c
 8004daa:	9618      	str	r6, [sp, #96]	; 0x60
 8004dac:	9319      	str	r3, [sp, #100]	; 0x64
 8004dae:	f7fb fd6b 	bl	8000888 <HAL_ADC_ConfigChannel>
 8004db2:	2800      	cmp	r0, #0
 8004db4:	d000      	beq.n	8004db8 <main+0xe0>
 8004db6:	e7fe      	b.n	8004db6 <main+0xde>
 8004db8:	2306      	movs	r3, #6
 8004dba:	a917      	add	r1, sp, #92	; 0x5c
 8004dbc:	0028      	movs	r0, r5
 8004dbe:	9317      	str	r3, [sp, #92]	; 0x5c
 8004dc0:	f7fb fd62 	bl	8000888 <HAL_ADC_ConfigChannel>
 8004dc4:	2800      	cmp	r0, #0
 8004dc6:	d000      	beq.n	8004dca <main+0xf2>
 8004dc8:	e7fe      	b.n	8004dc8 <main+0xf0>
 8004dca:	2310      	movs	r3, #16
 8004dcc:	a917      	add	r1, sp, #92	; 0x5c
 8004dce:	0028      	movs	r0, r5
 8004dd0:	9317      	str	r3, [sp, #92]	; 0x5c
 8004dd2:	f7fb fd59 	bl	8000888 <HAL_ADC_ConfigChannel>
 8004dd6:	2800      	cmp	r0, #0
 8004dd8:	d000      	beq.n	8004ddc <main+0x104>
 8004dda:	e7fe      	b.n	8004dda <main+0x102>
 8004ddc:	4a8d      	ldr	r2, [pc, #564]	; (8005014 <main+0x33c>)
 8004dde:	4b8e      	ldr	r3, [pc, #568]	; (8005018 <main+0x340>)
 8004de0:	6090      	str	r0, [r2, #8]
 8004de2:	6013      	str	r3, [r2, #0]
 8004de4:	2350      	movs	r3, #80	; 0x50
 8004de6:	60d0      	str	r0, [r2, #12]
 8004de8:	6110      	str	r0, [r2, #16]
 8004dea:	6190      	str	r0, [r2, #24]
 8004dec:	61d0      	str	r0, [r2, #28]
 8004dee:	0010      	movs	r0, r2
 8004df0:	6053      	str	r3, [r2, #4]
 8004df2:	6156      	str	r6, [r2, #20]
 8004df4:	6214      	str	r4, [r2, #32]
 8004df6:	f7fb fdd1 	bl	800099c <HAL_COMP_Init>
 8004dfa:	2800      	cmp	r0, #0
 8004dfc:	d000      	beq.n	8004e00 <main+0x128>
 8004dfe:	e7fe      	b.n	8004dfe <main+0x126>
 8004e00:	4c86      	ldr	r4, [pc, #536]	; (800501c <main+0x344>)
 8004e02:	4b87      	ldr	r3, [pc, #540]	; (8005020 <main+0x348>)
 8004e04:	6060      	str	r0, [r4, #4]
 8004e06:	6023      	str	r3, [r4, #0]
 8004e08:	4b86      	ldr	r3, [pc, #536]	; (8005024 <main+0x34c>)
 8004e0a:	60a0      	str	r0, [r4, #8]
 8004e0c:	6120      	str	r0, [r4, #16]
 8004e0e:	6160      	str	r0, [r4, #20]
 8004e10:	61a0      	str	r0, [r4, #24]
 8004e12:	0020      	movs	r0, r4
 8004e14:	60e3      	str	r3, [r4, #12]
 8004e16:	f7fc fdc3 	bl	80019a0 <HAL_TIM_Base_Init>
 8004e1a:	2800      	cmp	r0, #0
 8004e1c:	d000      	beq.n	8004e20 <main+0x148>
 8004e1e:	e7fe      	b.n	8004e1e <main+0x146>
 8004e20:	a90c      	add	r1, sp, #48	; 0x30
 8004e22:	0020      	movs	r0, r4
 8004e24:	960c      	str	r6, [sp, #48]	; 0x30
 8004e26:	f7fd fa95 	bl	8002354 <HAL_TIM_ConfigClockSource>
 8004e2a:	2800      	cmp	r0, #0
 8004e2c:	d000      	beq.n	8004e30 <main+0x158>
 8004e2e:	e7fe      	b.n	8004e2e <main+0x156>
 8004e30:	0020      	movs	r0, r4
 8004e32:	f7fc fea3 	bl	8001b7c <HAL_TIM_PWM_Init>
 8004e36:	2800      	cmp	r0, #0
 8004e38:	d000      	beq.n	8004e3c <main+0x164>
 8004e3a:	e7fe      	b.n	8004e3a <main+0x162>
 8004e3c:	900a      	str	r0, [sp, #40]	; 0x28
 8004e3e:	900b      	str	r0, [sp, #44]	; 0x2c
 8004e40:	a90a      	add	r1, sp, #40	; 0x28
 8004e42:	0020      	movs	r0, r4
 8004e44:	f7fd fcb0 	bl	80027a8 <HAL_TIMEx_MasterConfigSynchronization>
 8004e48:	2800      	cmp	r0, #0
 8004e4a:	d000      	beq.n	8004e4e <main+0x176>
 8004e4c:	e7fe      	b.n	8004e4c <main+0x174>
 8004e4e:	2360      	movs	r3, #96	; 0x60
 8004e50:	9011      	str	r0, [sp, #68]	; 0x44
 8004e52:	9012      	str	r0, [sp, #72]	; 0x48
 8004e54:	9013      	str	r0, [sp, #76]	; 0x4c
 8004e56:	9014      	str	r0, [sp, #80]	; 0x50
 8004e58:	9015      	str	r0, [sp, #84]	; 0x54
 8004e5a:	9016      	str	r0, [sp, #88]	; 0x58
 8004e5c:	2200      	movs	r2, #0
 8004e5e:	a910      	add	r1, sp, #64	; 0x40
 8004e60:	0020      	movs	r0, r4
 8004e62:	9310      	str	r3, [sp, #64]	; 0x40
 8004e64:	f7fd f940 	bl	80020e8 <HAL_TIM_PWM_ConfigChannel>
 8004e68:	2800      	cmp	r0, #0
 8004e6a:	d000      	beq.n	8004e6e <main+0x196>
 8004e6c:	e7fe      	b.n	8004e6c <main+0x194>
 8004e6e:	2204      	movs	r2, #4
 8004e70:	a910      	add	r1, sp, #64	; 0x40
 8004e72:	0020      	movs	r0, r4
 8004e74:	f7fd f938 	bl	80020e8 <HAL_TIM_PWM_ConfigChannel>
 8004e78:	2800      	cmp	r0, #0
 8004e7a:	d000      	beq.n	8004e7e <main+0x1a6>
 8004e7c:	e7fe      	b.n	8004e7c <main+0x1a4>
 8004e7e:	2208      	movs	r2, #8
 8004e80:	a910      	add	r1, sp, #64	; 0x40
 8004e82:	0020      	movs	r0, r4
 8004e84:	f7fd f930 	bl	80020e8 <HAL_TIM_PWM_ConfigChannel>
 8004e88:	2800      	cmp	r0, #0
 8004e8a:	d000      	beq.n	8004e8e <main+0x1b6>
 8004e8c:	e7fe      	b.n	8004e8c <main+0x1b4>
 8004e8e:	220c      	movs	r2, #12
 8004e90:	a910      	add	r1, sp, #64	; 0x40
 8004e92:	0020      	movs	r0, r4
 8004e94:	f7fd f928 	bl	80020e8 <HAL_TIM_PWM_ConfigChannel>
 8004e98:	2800      	cmp	r0, #0
 8004e9a:	d000      	beq.n	8004e9e <main+0x1c6>
 8004e9c:	e7fe      	b.n	8004e9c <main+0x1c4>
 8004e9e:	233c      	movs	r3, #60	; 0x3c
 8004ea0:	931a      	str	r3, [sp, #104]	; 0x68
 8004ea2:	2380      	movs	r3, #128	; 0x80
 8004ea4:	9017      	str	r0, [sp, #92]	; 0x5c
 8004ea6:	9018      	str	r0, [sp, #96]	; 0x60
 8004ea8:	9019      	str	r0, [sp, #100]	; 0x64
 8004eaa:	901b      	str	r0, [sp, #108]	; 0x6c
 8004eac:	019b      	lsls	r3, r3, #6
 8004eae:	901d      	str	r0, [sp, #116]	; 0x74
 8004eb0:	a917      	add	r1, sp, #92	; 0x5c
 8004eb2:	0020      	movs	r0, r4
 8004eb4:	931c      	str	r3, [sp, #112]	; 0x70
 8004eb6:	f7fd fc97 	bl	80027e8 <HAL_TIMEx_ConfigBreakDeadTime>
 8004eba:	1e07      	subs	r7, r0, #0
 8004ebc:	d000      	beq.n	8004ec0 <main+0x1e8>
 8004ebe:	e7fe      	b.n	8004ebe <main+0x1e6>
 8004ec0:	0020      	movs	r0, r4
 8004ec2:	f000 fddd 	bl	8005a80 <HAL_TIM_MspPostInit>
 8004ec6:	2380      	movs	r3, #128	; 0x80
 8004ec8:	4e57      	ldr	r6, [pc, #348]	; (8005028 <main+0x350>)
 8004eca:	05db      	lsls	r3, r3, #23
 8004ecc:	6033      	str	r3, [r6, #0]
 8004ece:	2364      	movs	r3, #100	; 0x64
 8004ed0:	6073      	str	r3, [r6, #4]
 8004ed2:	4b56      	ldr	r3, [pc, #344]	; (800502c <main+0x354>)
 8004ed4:	0030      	movs	r0, r6
 8004ed6:	60b7      	str	r7, [r6, #8]
 8004ed8:	60f3      	str	r3, [r6, #12]
 8004eda:	6137      	str	r7, [r6, #16]
 8004edc:	61b7      	str	r7, [r6, #24]
 8004ede:	f7fc fd5f 	bl	80019a0 <HAL_TIM_Base_Init>
 8004ee2:	2800      	cmp	r0, #0
 8004ee4:	d000      	beq.n	8004ee8 <main+0x210>
 8004ee6:	e7fe      	b.n	8004ee6 <main+0x20e>
 8004ee8:	2780      	movs	r7, #128	; 0x80
 8004eea:	a917      	add	r1, sp, #92	; 0x5c
 8004eec:	017f      	lsls	r7, r7, #5
 8004eee:	0030      	movs	r0, r6
 8004ef0:	9717      	str	r7, [sp, #92]	; 0x5c
 8004ef2:	f7fd fa2f 	bl	8002354 <HAL_TIM_ConfigClockSource>
 8004ef6:	2800      	cmp	r0, #0
 8004ef8:	d000      	beq.n	8004efc <main+0x224>
 8004efa:	e7fe      	b.n	8004efa <main+0x222>
 8004efc:	9010      	str	r0, [sp, #64]	; 0x40
 8004efe:	9011      	str	r0, [sp, #68]	; 0x44
 8004f00:	a910      	add	r1, sp, #64	; 0x40
 8004f02:	0030      	movs	r0, r6
 8004f04:	f7fd fc50 	bl	80027a8 <HAL_TIMEx_MasterConfigSynchronization>
 8004f08:	2800      	cmp	r0, #0
 8004f0a:	d000      	beq.n	8004f0e <main+0x236>
 8004f0c:	e7fe      	b.n	8004f0c <main+0x234>
 8004f0e:	4e48      	ldr	r6, [pc, #288]	; (8005030 <main+0x358>)
 8004f10:	4b48      	ldr	r3, [pc, #288]	; (8005034 <main+0x35c>)
 8004f12:	60b0      	str	r0, [r6, #8]
 8004f14:	6033      	str	r3, [r6, #0]
 8004f16:	230a      	movs	r3, #10
 8004f18:	6073      	str	r3, [r6, #4]
 8004f1a:	4b47      	ldr	r3, [pc, #284]	; (8005038 <main+0x360>)
 8004f1c:	6130      	str	r0, [r6, #16]
 8004f1e:	61b0      	str	r0, [r6, #24]
 8004f20:	0030      	movs	r0, r6
 8004f22:	60f3      	str	r3, [r6, #12]
 8004f24:	f7fc fd3c 	bl	80019a0 <HAL_TIM_Base_Init>
 8004f28:	2800      	cmp	r0, #0
 8004f2a:	d000      	beq.n	8004f2e <main+0x256>
 8004f2c:	e7fe      	b.n	8004f2c <main+0x254>
 8004f2e:	a917      	add	r1, sp, #92	; 0x5c
 8004f30:	0030      	movs	r0, r6
 8004f32:	9717      	str	r7, [sp, #92]	; 0x5c
 8004f34:	f7fd fa0e 	bl	8002354 <HAL_TIM_ConfigClockSource>
 8004f38:	2800      	cmp	r0, #0
 8004f3a:	d000      	beq.n	8004f3e <main+0x266>
 8004f3c:	e7fe      	b.n	8004f3c <main+0x264>
 8004f3e:	9010      	str	r0, [sp, #64]	; 0x40
 8004f40:	9011      	str	r0, [sp, #68]	; 0x44
 8004f42:	a910      	add	r1, sp, #64	; 0x40
 8004f44:	0030      	movs	r0, r6
 8004f46:	f7fd fc2f 	bl	80027a8 <HAL_TIMEx_MasterConfigSynchronization>
 8004f4a:	2800      	cmp	r0, #0
 8004f4c:	d000      	beq.n	8004f50 <main+0x278>
 8004f4e:	e7fe      	b.n	8004f4e <main+0x276>
 8004f50:	4a3a      	ldr	r2, [pc, #232]	; (800503c <main+0x364>)
 8004f52:	4b3b      	ldr	r3, [pc, #236]	; (8005040 <main+0x368>)
 8004f54:	4939      	ldr	r1, [pc, #228]	; (800503c <main+0x364>)
 8004f56:	6013      	str	r3, [r2, #0]
 8004f58:	2300      	movs	r3, #0
 8004f5a:	6053      	str	r3, [r2, #4]
 8004f5c:	6093      	str	r3, [r2, #8]
 8004f5e:	4a36      	ldr	r2, [pc, #216]	; (8005038 <main+0x360>)
 8004f60:	0008      	movs	r0, r1
 8004f62:	60ca      	str	r2, [r1, #12]
 8004f64:	610b      	str	r3, [r1, #16]
 8004f66:	614b      	str	r3, [r1, #20]
 8004f68:	618b      	str	r3, [r1, #24]
 8004f6a:	f7fc fd19 	bl	80019a0 <HAL_TIM_Base_Init>
 8004f6e:	2800      	cmp	r0, #0
 8004f70:	d000      	beq.n	8004f74 <main+0x29c>
 8004f72:	e7fe      	b.n	8004f72 <main+0x29a>
 8004f74:	4831      	ldr	r0, [pc, #196]	; (800503c <main+0x364>)
 8004f76:	f7fc fea5 	bl	8001cc4 <HAL_TIM_IC_Init>
 8004f7a:	2800      	cmp	r0, #0
 8004f7c:	d000      	beq.n	8004f80 <main+0x2a8>
 8004f7e:	e7fe      	b.n	8004f7e <main+0x2a6>
 8004f80:	2304      	movs	r3, #4
 8004f82:	270a      	movs	r7, #10
 8004f84:	9317      	str	r3, [sp, #92]	; 0x5c
 8004f86:	901b      	str	r0, [sp, #108]	; 0x6c
 8004f88:	334c      	adds	r3, #76	; 0x4c
 8004f8a:	a917      	add	r1, sp, #92	; 0x5c
 8004f8c:	482b      	ldr	r0, [pc, #172]	; (800503c <main+0x364>)
 8004f8e:	9318      	str	r3, [sp, #96]	; 0x60
 8004f90:	9719      	str	r7, [sp, #100]	; 0x64
 8004f92:	f7fd faa3 	bl	80024dc <HAL_TIM_SlaveConfigSynchronization>
 8004f96:	2800      	cmp	r0, #0
 8004f98:	d000      	beq.n	8004f9c <main+0x2c4>
 8004f9a:	e7fe      	b.n	8004f9a <main+0x2c2>
 8004f9c:	900c      	str	r0, [sp, #48]	; 0x30
 8004f9e:	900d      	str	r0, [sp, #52]	; 0x34
 8004fa0:	a90c      	add	r1, sp, #48	; 0x30
 8004fa2:	4826      	ldr	r0, [pc, #152]	; (800503c <main+0x364>)
 8004fa4:	f7fd fc00 	bl	80027a8 <HAL_TIMEx_MasterConfigSynchronization>
 8004fa8:	2800      	cmp	r0, #0
 8004faa:	d000      	beq.n	8004fae <main+0x2d6>
 8004fac:	e7fe      	b.n	8004fac <main+0x2d4>
 8004fae:	2301      	movs	r3, #1
 8004fb0:	9012      	str	r0, [sp, #72]	; 0x48
 8004fb2:	9013      	str	r0, [sp, #76]	; 0x4c
 8004fb4:	2200      	movs	r2, #0
 8004fb6:	a910      	add	r1, sp, #64	; 0x40
 8004fb8:	4820      	ldr	r0, [pc, #128]	; (800503c <main+0x364>)
 8004fba:	9710      	str	r7, [sp, #64]	; 0x40
 8004fbc:	9311      	str	r3, [sp, #68]	; 0x44
 8004fbe:	f7fc ffb5 	bl	8001f2c <HAL_TIM_IC_ConfigChannel>
 8004fc2:	2800      	cmp	r0, #0
 8004fc4:	d000      	beq.n	8004fc8 <main+0x2f0>
 8004fc6:	e7fe      	b.n	8004fc6 <main+0x2ee>
 8004fc8:	4a1e      	ldr	r2, [pc, #120]	; (8005044 <main+0x36c>)
 8004fca:	4b1f      	ldr	r3, [pc, #124]	; (8005048 <main+0x370>)
 8004fcc:	0010      	movs	r0, r2
 8004fce:	6013      	str	r3, [r2, #0]
 8004fd0:	2302      	movs	r3, #2
 8004fd2:	6053      	str	r3, [r2, #4]
 8004fd4:	4b1d      	ldr	r3, [pc, #116]	; (800504c <main+0x374>)
 8004fd6:	60d3      	str	r3, [r2, #12]
 8004fd8:	23fa      	movs	r3, #250	; 0xfa
 8004fda:	00db      	lsls	r3, r3, #3
 8004fdc:	6093      	str	r3, [r2, #8]
 8004fde:	f7fc f999 	bl	8001314 <HAL_IWDG_Init>
 8004fe2:	2800      	cmp	r0, #0
 8004fe4:	d000      	beq.n	8004fe8 <main+0x310>
 8004fe6:	e7fe      	b.n	8004fe6 <main+0x30e>
 8004fe8:	4a19      	ldr	r2, [pc, #100]	; (8005050 <main+0x378>)
 8004fea:	4b1a      	ldr	r3, [pc, #104]	; (8005054 <main+0x37c>)
 8004fec:	6050      	str	r0, [r2, #4]
 8004fee:	6013      	str	r3, [r2, #0]
 8004ff0:	4b19      	ldr	r3, [pc, #100]	; (8005058 <main+0x380>)
 8004ff2:	6090      	str	r0, [r2, #8]
 8004ff4:	6110      	str	r0, [r2, #16]
 8004ff6:	6150      	str	r0, [r2, #20]
 8004ff8:	6190      	str	r0, [r2, #24]
 8004ffa:	0010      	movs	r0, r2
 8004ffc:	60d3      	str	r3, [r2, #12]
 8004ffe:	f7fc fccf 	bl	80019a0 <HAL_TIM_Base_Init>
 8005002:	2800      	cmp	r0, #0
 8005004:	d02a      	beq.n	800505c <main+0x384>
 8005006:	e7fe      	b.n	8005006 <main+0x32e>
 8005008:	40021000 	.word	0x40021000
 800500c:	20000498 	.word	0x20000498
 8005010:	40012400 	.word	0x40012400
 8005014:	20000210 	.word	0x20000210
 8005018:	4001001c 	.word	0x4001001c
 800501c:	200003cc 	.word	0x200003cc
 8005020:	40012c00 	.word	0x40012c00
 8005024:	000007cf 	.word	0x000007cf
 8005028:	2000040c 	.word	0x2000040c
 800502c:	00001388 	.word	0x00001388
 8005030:	2000023c 	.word	0x2000023c
 8005034:	40000400 	.word	0x40000400
 8005038:	0000ffff 	.word	0x0000ffff
 800503c:	200001b0 	.word	0x200001b0
 8005040:	40014000 	.word	0x40014000
 8005044:	200001f4 	.word	0x200001f4
 8005048:	40003000 	.word	0x40003000
 800504c:	00000fff 	.word	0x00000fff
 8005050:	200004e4 	.word	0x200004e4
 8005054:	40014400 	.word	0x40014400
 8005058:	00002328 	.word	0x00002328
 800505c:	2100      	movs	r1, #0
 800505e:	0020      	movs	r0, r4
 8005060:	f7fc fe04 	bl	8001c6c <HAL_TIM_PWM_Start>
 8005064:	2100      	movs	r1, #0
 8005066:	0020      	movs	r0, r4
 8005068:	f7fd fb8a 	bl	8002780 <HAL_TIMEx_PWMN_Start>
 800506c:	2104      	movs	r1, #4
 800506e:	0020      	movs	r0, r4
 8005070:	f7fc fdfc 	bl	8001c6c <HAL_TIM_PWM_Start>
 8005074:	2104      	movs	r1, #4
 8005076:	0020      	movs	r0, r4
 8005078:	f7fd fb82 	bl	8002780 <HAL_TIMEx_PWMN_Start>
 800507c:	2108      	movs	r1, #8
 800507e:	0020      	movs	r0, r4
 8005080:	f7fc fdf4 	bl	8001c6c <HAL_TIM_PWM_Start>
 8005084:	2108      	movs	r1, #8
 8005086:	0020      	movs	r0, r4
 8005088:	f7fd fb7a 	bl	8002780 <HAL_TIMEx_PWMN_Start>
 800508c:	483d      	ldr	r0, [pc, #244]	; (8005184 <main+0x4ac>)
 800508e:	f7fc fd25 	bl	8001adc <HAL_TIM_Base_Start_IT>
 8005092:	0030      	movs	r0, r6
 8005094:	f7fc fcfc 	bl	8001a90 <HAL_TIM_Base_Start>
 8005098:	f7ff f8d0 	bl	800423c <playStartupTune>
 800509c:	4b3a      	ldr	r3, [pc, #232]	; (8005188 <main+0x4b0>)
 800509e:	781b      	ldrb	r3, [r3, #0]
 80050a0:	2b01      	cmp	r3, #1
 80050a2:	d103      	bne.n	80050ac <main+0x3d4>
 80050a4:	f7fe f8d4 	bl	8003250 <loadEEpromConfig>
 80050a8:	4b37      	ldr	r3, [pc, #220]	; (8005188 <main+0x4b0>)
 80050aa:	781b      	ldrb	r3, [r3, #0]
 80050ac:	2b02      	cmp	r3, #2
 80050ae:	d012      	beq.n	80050d6 <main+0x3fe>
 80050b0:	2b03      	cmp	r3, #3
 80050b2:	d045      	beq.n	8005140 <main+0x468>
 80050b4:	2b04      	cmp	r3, #4
 80050b6:	d02e      	beq.n	8005116 <main+0x43e>
 80050b8:	4b34      	ldr	r3, [pc, #208]	; (800518c <main+0x4b4>)
 80050ba:	4699      	mov	r9, r3
 80050bc:	4b34      	ldr	r3, [pc, #208]	; (8005190 <main+0x4b8>)
 80050be:	9300      	str	r3, [sp, #0]
 80050c0:	4b34      	ldr	r3, [pc, #208]	; (8005194 <main+0x4bc>)
 80050c2:	9302      	str	r3, [sp, #8]
 80050c4:	4b34      	ldr	r3, [pc, #208]	; (8005198 <main+0x4c0>)
 80050c6:	9303      	str	r3, [sp, #12]
 80050c8:	210c      	movs	r1, #12
 80050ca:	0020      	movs	r0, r4
 80050cc:	f7fc fd10 	bl	8001af0 <HAL_TIM_OC_Start_IT>
 80050d0:	2800      	cmp	r0, #0
 80050d2:	d012      	beq.n	80050fa <main+0x422>
 80050d4:	e7fe      	b.n	80050d4 <main+0x3fc>
 80050d6:	4b2d      	ldr	r3, [pc, #180]	; (800518c <main+0x4b4>)
 80050d8:	4699      	mov	r9, r3
 80050da:	2301      	movs	r3, #1
 80050dc:	464a      	mov	r2, r9
 80050de:	6013      	str	r3, [r2, #0]
 80050e0:	4a2e      	ldr	r2, [pc, #184]	; (800519c <main+0x4c4>)
 80050e2:	7013      	strb	r3, [r2, #0]
 80050e4:	4a2a      	ldr	r2, [pc, #168]	; (8005190 <main+0x4b8>)
 80050e6:	6013      	str	r3, [r2, #0]
 80050e8:	9200      	str	r2, [sp, #0]
 80050ea:	2296      	movs	r2, #150	; 0x96
 80050ec:	4b2c      	ldr	r3, [pc, #176]	; (80051a0 <main+0x4c8>)
 80050ee:	601a      	str	r2, [r3, #0]
 80050f0:	4b28      	ldr	r3, [pc, #160]	; (8005194 <main+0x4bc>)
 80050f2:	9302      	str	r3, [sp, #8]
 80050f4:	4b28      	ldr	r3, [pc, #160]	; (8005198 <main+0x4c0>)
 80050f6:	9303      	str	r3, [sp, #12]
 80050f8:	e7e6      	b.n	80050c8 <main+0x3f0>
 80050fa:	4a2a      	ldr	r2, [pc, #168]	; (80051a4 <main+0x4cc>)
 80050fc:	2100      	movs	r1, #0
 80050fe:	2340      	movs	r3, #64	; 0x40
 8005100:	4829      	ldr	r0, [pc, #164]	; (80051a8 <main+0x4d0>)
 8005102:	f7fc fe57 	bl	8001db4 <HAL_TIM_IC_Start_DMA>
 8005106:	2203      	movs	r2, #3
 8005108:	4928      	ldr	r1, [pc, #160]	; (80051ac <main+0x4d4>)
 800510a:	0028      	movs	r0, r5
 800510c:	f7fb fab0 	bl	8000670 <HAL_ADC_Start_DMA>
 8005110:	2800      	cmp	r0, #0
 8005112:	d02a      	beq.n	800516a <main+0x492>
 8005114:	e7fe      	b.n	8005114 <main+0x43c>
 8005116:	4b1d      	ldr	r3, [pc, #116]	; (800518c <main+0x4b4>)
 8005118:	4920      	ldr	r1, [pc, #128]	; (800519c <main+0x4c4>)
 800511a:	4699      	mov	r9, r3
 800511c:	2301      	movs	r3, #1
 800511e:	464a      	mov	r2, r9
 8005120:	6013      	str	r3, [r2, #0]
 8005122:	2200      	movs	r2, #0
 8005124:	700a      	strb	r2, [r1, #0]
 8005126:	491a      	ldr	r1, [pc, #104]	; (8005190 <main+0x4b8>)
 8005128:	600a      	str	r2, [r1, #0]
 800512a:	4a1a      	ldr	r2, [pc, #104]	; (8005194 <main+0x4bc>)
 800512c:	9100      	str	r1, [sp, #0]
 800512e:	7013      	strb	r3, [r2, #0]
 8005130:	4b19      	ldr	r3, [pc, #100]	; (8005198 <main+0x4c0>)
 8005132:	9202      	str	r2, [sp, #8]
 8005134:	9303      	str	r3, [sp, #12]
 8005136:	001a      	movs	r2, r3
 8005138:	23c8      	movs	r3, #200	; 0xc8
 800513a:	009b      	lsls	r3, r3, #2
 800513c:	6013      	str	r3, [r2, #0]
 800513e:	e7c3      	b.n	80050c8 <main+0x3f0>
 8005140:	4b12      	ldr	r3, [pc, #72]	; (800518c <main+0x4b4>)
 8005142:	4916      	ldr	r1, [pc, #88]	; (800519c <main+0x4c4>)
 8005144:	4699      	mov	r9, r3
 8005146:	2301      	movs	r3, #1
 8005148:	464a      	mov	r2, r9
 800514a:	6013      	str	r3, [r2, #0]
 800514c:	2200      	movs	r2, #0
 800514e:	700a      	strb	r2, [r1, #0]
 8005150:	490f      	ldr	r1, [pc, #60]	; (8005190 <main+0x4b8>)
 8005152:	600a      	str	r2, [r1, #0]
 8005154:	4a0f      	ldr	r2, [pc, #60]	; (8005194 <main+0x4bc>)
 8005156:	9100      	str	r1, [sp, #0]
 8005158:	7013      	strb	r3, [r2, #0]
 800515a:	4b0f      	ldr	r3, [pc, #60]	; (8005198 <main+0x4c0>)
 800515c:	9202      	str	r2, [sp, #8]
 800515e:	9303      	str	r3, [sp, #12]
 8005160:	001a      	movs	r2, r3
 8005162:	23e1      	movs	r3, #225	; 0xe1
 8005164:	009b      	lsls	r3, r3, #2
 8005166:	6013      	str	r3, [r2, #0]
 8005168:	e7ae      	b.n	80050c8 <main+0x3f0>
 800516a:	4811      	ldr	r0, [pc, #68]	; (80051b0 <main+0x4d8>)
 800516c:	f7fb fc66 	bl	8000a3c <HAL_COMP_Start_IT>
 8005170:	2800      	cmp	r0, #0
 8005172:	d000      	beq.n	8005176 <main+0x49e>
 8005174:	e7fe      	b.n	8005174 <main+0x49c>
 8005176:	480f      	ldr	r0, [pc, #60]	; (80051b4 <main+0x4dc>)
 8005178:	f7fc f8cc 	bl	8001314 <HAL_IWDG_Init>
 800517c:	2800      	cmp	r0, #0
 800517e:	d01b      	beq.n	80051b8 <main+0x4e0>
 8005180:	e7fe      	b.n	8005180 <main+0x4a8>
 8005182:	46c0      	nop			; (mov r8, r8)
 8005184:	200004e4 	.word	0x200004e4
 8005188:	20000058 	.word	0x20000058
 800518c:	200000ac 	.word	0x200000ac
 8005190:	2000000c 	.word	0x2000000c
 8005194:	20000132 	.word	0x20000132
 8005198:	20000030 	.word	0x20000030
 800519c:	20000040 	.word	0x20000040
 80051a0:	20000048 	.word	0x20000048
 80051a4:	20000284 	.word	0x20000284
 80051a8:	200001b0 	.word	0x200001b0
 80051ac:	20000088 	.word	0x20000088
 80051b0:	20000210 	.word	0x20000210
 80051b4:	200001f4 	.word	0x200001f4
 80051b8:	464b      	mov	r3, r9
 80051ba:	681b      	ldr	r3, [r3, #0]
 80051bc:	2b00      	cmp	r3, #0
 80051be:	d000      	beq.n	80051c2 <main+0x4ea>
 80051c0:	e291      	b.n	80056e6 <main+0xa0e>
 80051c2:	4bd6      	ldr	r3, [pc, #856]	; (800551c <main+0x844>)
 80051c4:	9301      	str	r3, [sp, #4]
 80051c6:	4bd6      	ldr	r3, [pc, #856]	; (8005520 <main+0x848>)
 80051c8:	2400      	movs	r4, #0
 80051ca:	4698      	mov	r8, r3
 80051cc:	4bd5      	ldr	r3, [pc, #852]	; (8005524 <main+0x84c>)
 80051ce:	4ed6      	ldr	r6, [pc, #856]	; (8005528 <main+0x850>)
 80051d0:	469a      	mov	sl, r3
 80051d2:	681b      	ldr	r3, [r3, #0]
 80051d4:	4fd5      	ldr	r7, [pc, #852]	; (800552c <main+0x854>)
 80051d6:	3b01      	subs	r3, #1
 80051d8:	1e5a      	subs	r2, r3, #1
 80051da:	4193      	sbcs	r3, r2
 80051dc:	4642      	mov	r2, r8
 80051de:	6013      	str	r3, [r2, #0]
 80051e0:	2201      	movs	r2, #1
 80051e2:	4bd3      	ldr	r3, [pc, #844]	; (8005530 <main+0x858>)
 80051e4:	4dd3      	ldr	r5, [pc, #844]	; (8005534 <main+0x85c>)
 80051e6:	635a      	str	r2, [r3, #52]	; 0x34
 80051e8:	639a      	str	r2, [r3, #56]	; 0x38
 80051ea:	63da      	str	r2, [r3, #60]	; 0x3c
 80051ec:	22c8      	movs	r2, #200	; 0xc8
 80051ee:	0092      	lsls	r2, r2, #2
 80051f0:	641a      	str	r2, [r3, #64]	; 0x40
 80051f2:	4bd1      	ldr	r3, [pc, #836]	; (8005538 <main+0x860>)
 80051f4:	469b      	mov	fp, r3
 80051f6:	4bd1      	ldr	r3, [pc, #836]	; (800553c <main+0x864>)
 80051f8:	4ad0      	ldr	r2, [pc, #832]	; (800553c <main+0x864>)
 80051fa:	681b      	ldr	r3, [r3, #0]
 80051fc:	9304      	str	r3, [sp, #16]
 80051fe:	3301      	adds	r3, #1
 8005200:	6013      	str	r3, [r2, #0]
 8005202:	4acf      	ldr	r2, [pc, #828]	; (8005540 <main+0x868>)
 8005204:	4293      	cmp	r3, r2
 8005206:	dd01      	ble.n	800520c <main+0x534>
 8005208:	4bcc      	ldr	r3, [pc, #816]	; (800553c <main+0x864>)
 800520a:	601c      	str	r4, [r3, #0]
 800520c:	4bcd      	ldr	r3, [pc, #820]	; (8005544 <main+0x86c>)
 800520e:	48ce      	ldr	r0, [pc, #824]	; (8005548 <main+0x870>)
 8005210:	701c      	strb	r4, [r3, #0]
 8005212:	f7fc f8ad 	bl	8001370 <HAL_IWDG_Refresh>
 8005216:	2800      	cmp	r0, #0
 8005218:	d000      	beq.n	800521c <main+0x544>
 800521a:	e263      	b.n	80056e4 <main+0xa0c>
 800521c:	4bcb      	ldr	r3, [pc, #812]	; (800554c <main+0x874>)
 800521e:	4acb      	ldr	r2, [pc, #812]	; (800554c <main+0x874>)
 8005220:	681b      	ldr	r3, [r3, #0]
 8005222:	9304      	str	r3, [sp, #16]
 8005224:	3301      	adds	r3, #1
 8005226:	6013      	str	r3, [r2, #0]
 8005228:	2b01      	cmp	r3, #1
 800522a:	dd72      	ble.n	8005312 <main+0x63a>
 800522c:	4bc8      	ldr	r3, [pc, #800]	; (8005550 <main+0x878>)
 800522e:	6010      	str	r0, [r2, #0]
 8005230:	681b      	ldr	r3, [r3, #0]
 8005232:	2b00      	cmp	r3, #0
 8005234:	dc00      	bgt.n	8005238 <main+0x560>
 8005236:	e23e      	b.n	80056b6 <main+0x9de>
 8005238:	2b02      	cmp	r3, #2
 800523a:	d103      	bne.n	8005244 <main+0x56c>
 800523c:	f7ff f942 	bl	80044c4 <playInputTune>
 8005240:	4bc3      	ldr	r3, [pc, #780]	; (8005550 <main+0x878>)
 8005242:	681b      	ldr	r3, [r3, #0]
 8005244:	2b15      	cmp	r3, #21
 8005246:	d100      	bne.n	800524a <main+0x572>
 8005248:	e238      	b.n	80056bc <main+0x9e4>
 800524a:	2b14      	cmp	r3, #20
 800524c:	d100      	bne.n	8005250 <main+0x578>
 800524e:	e22b      	b.n	80056a8 <main+0x9d0>
 8005250:	2b07      	cmp	r3, #7
 8005252:	d100      	bne.n	8005256 <main+0x57e>
 8005254:	e225      	b.n	80056a2 <main+0x9ca>
 8005256:	2b08      	cmp	r3, #8
 8005258:	d100      	bne.n	800525c <main+0x584>
 800525a:	e2bd      	b.n	80057d8 <main+0xb00>
 800525c:	2b09      	cmp	r3, #9
 800525e:	d100      	bne.n	8005262 <main+0x58a>
 8005260:	e231      	b.n	80056c6 <main+0x9ee>
 8005262:	2b0a      	cmp	r3, #10
 8005264:	d100      	bne.n	8005268 <main+0x590>
 8005266:	e247      	b.n	80056f8 <main+0xa20>
 8005268:	2b0c      	cmp	r3, #12
 800526a:	d100      	bne.n	800526e <main+0x596>
 800526c:	e241      	b.n	80056f2 <main+0xa1a>
 800526e:	464b      	mov	r3, r9
 8005270:	4ab7      	ldr	r2, [pc, #732]	; (8005550 <main+0x878>)
 8005272:	681b      	ldr	r3, [r3, #0]
 8005274:	6014      	str	r4, [r2, #0]
 8005276:	2b01      	cmp	r3, #1
 8005278:	d100      	bne.n	800527c <main+0x5a4>
 800527a:	e244      	b.n	8005706 <main+0xa2e>
 800527c:	4ab5      	ldr	r2, [pc, #724]	; (8005554 <main+0x87c>)
 800527e:	7812      	ldrb	r2, [r2, #0]
 8005280:	2a00      	cmp	r2, #0
 8005282:	d104      	bne.n	800528e <main+0x5b6>
 8005284:	4ab4      	ldr	r2, [pc, #720]	; (8005558 <main+0x880>)
 8005286:	7812      	ldrb	r2, [r2, #0]
 8005288:	2a00      	cmp	r2, #0
 800528a:	d100      	bne.n	800528e <main+0x5b6>
 800528c:	e226      	b.n	80056dc <main+0xa04>
 800528e:	2b00      	cmp	r3, #0
 8005290:	d100      	bne.n	8005294 <main+0x5bc>
 8005292:	e223      	b.n	80056dc <main+0xa04>
 8005294:	9b01      	ldr	r3, [sp, #4]
 8005296:	4ab1      	ldr	r2, [pc, #708]	; (800555c <main+0x884>)
 8005298:	681b      	ldr	r3, [r3, #0]
 800529a:	4293      	cmp	r3, r2
 800529c:	dd0f      	ble.n	80052be <main+0x5e6>
 800529e:	4642      	mov	r2, r8
 80052a0:	6811      	ldr	r1, [r2, #0]
 80052a2:	4652      	mov	r2, sl
 80052a4:	6812      	ldr	r2, [r2, #0]
 80052a6:	4291      	cmp	r1, r2
 80052a8:	d105      	bne.n	80052b6 <main+0x5de>
 80052aa:	2201      	movs	r2, #1
 80052ac:	1a52      	subs	r2, r2, r1
 80052ae:	4641      	mov	r1, r8
 80052b0:	600a      	str	r2, [r1, #0]
 80052b2:	4aab      	ldr	r2, [pc, #684]	; (8005560 <main+0x888>)
 80052b4:	6014      	str	r4, [r2, #0]
 80052b6:	4aab      	ldr	r2, [pc, #684]	; (8005564 <main+0x88c>)
 80052b8:	189a      	adds	r2, r3, r2
 80052ba:	0052      	lsls	r2, r2, #1
 80052bc:	6032      	str	r2, [r6, #0]
 80052be:	49aa      	ldr	r1, [pc, #680]	; (8005568 <main+0x890>)
 80052c0:	1e5a      	subs	r2, r3, #1
 80052c2:	428a      	cmp	r2, r1
 80052c4:	d80f      	bhi.n	80052e6 <main+0x60e>
 80052c6:	4652      	mov	r2, sl
 80052c8:	4640      	mov	r0, r8
 80052ca:	6811      	ldr	r1, [r2, #0]
 80052cc:	2201      	movs	r2, #1
 80052ce:	6800      	ldr	r0, [r0, #0]
 80052d0:	1a52      	subs	r2, r2, r1
 80052d2:	4282      	cmp	r2, r0
 80052d4:	d103      	bne.n	80052de <main+0x606>
 80052d6:	4aa2      	ldr	r2, [pc, #648]	; (8005560 <main+0x888>)
 80052d8:	6014      	str	r4, [r2, #0]
 80052da:	4642      	mov	r2, r8
 80052dc:	6011      	str	r1, [r2, #0]
 80052de:	001a      	movs	r2, r3
 80052e0:	3a5a      	subs	r2, #90	; 0x5a
 80052e2:	0052      	lsls	r2, r2, #1
 80052e4:	6032      	str	r2, [r6, #0]
 80052e6:	4aa1      	ldr	r2, [pc, #644]	; (800556c <main+0x894>)
 80052e8:	189a      	adds	r2, r3, r2
 80052ea:	2a31      	cmp	r2, #49	; 0x31
 80052ec:	d800      	bhi.n	80052f0 <main+0x618>
 80052ee:	e26a      	b.n	80057c6 <main+0xaee>
 80052f0:	2b78      	cmp	r3, #120	; 0x78
 80052f2:	dc00      	bgt.n	80052f6 <main+0x61e>
 80052f4:	e267      	b.n	80057c6 <main+0xaee>
 80052f6:	6833      	ldr	r3, [r6, #0]
 80052f8:	22fa      	movs	r2, #250	; 0xfa
 80052fa:	00d2      	lsls	r2, r2, #3
 80052fc:	4293      	cmp	r3, r2
 80052fe:	dd01      	ble.n	8005304 <main+0x62c>
 8005300:	0013      	movs	r3, r2
 8005302:	6032      	str	r2, [r6, #0]
 8005304:	683a      	ldr	r2, [r7, #0]
 8005306:	1a99      	subs	r1, r3, r2
 8005308:	2902      	cmp	r1, #2
 800530a:	dc00      	bgt.n	800530e <main+0x636>
 800530c:	e268      	b.n	80057e0 <main+0xb08>
 800530e:	3201      	adds	r2, #1
 8005310:	603a      	str	r2, [r7, #0]
 8005312:	22fa      	movs	r2, #250	; 0xfa
 8005314:	4b96      	ldr	r3, [pc, #600]	; (8005570 <main+0x898>)
 8005316:	00d2      	lsls	r2, r2, #3
 8005318:	681b      	ldr	r3, [r3, #0]
 800531a:	4293      	cmp	r3, r2
 800531c:	dc00      	bgt.n	8005320 <main+0x648>
 800531e:	e1bb      	b.n	8005698 <main+0x9c0>
 8005320:	0013      	movs	r3, r2
 8005322:	21e1      	movs	r1, #225	; 0xe1
 8005324:	3bc8      	subs	r3, #200	; 0xc8
 8005326:	00d8      	lsls	r0, r3, #3
 8005328:	18c0      	adds	r0, r0, r3
 800532a:	0040      	lsls	r0, r0, #1
 800532c:	00c9      	lsls	r1, r1, #3
 800532e:	f7fa ff75 	bl	800021c <__divsi3>
 8005332:	4b90      	ldr	r3, [pc, #576]	; (8005574 <main+0x89c>)
 8005334:	3002      	adds	r0, #2
 8005336:	7018      	strb	r0, [r3, #0]
 8005338:	4b8f      	ldr	r3, [pc, #572]	; (8005578 <main+0x8a0>)
 800533a:	781b      	ldrb	r3, [r3, #0]
 800533c:	2b00      	cmp	r3, #0
 800533e:	d104      	bne.n	800534a <main+0x672>
 8005340:	200a      	movs	r0, #10
 8005342:	f7fb f887 	bl	8000454 <HAL_Delay>
 8005346:	f7ff fa0f 	bl	8004768 <detectInput>
 800534a:	4b8c      	ldr	r3, [pc, #560]	; (800557c <main+0x8a4>)
 800534c:	781b      	ldrb	r3, [r3, #0]
 800534e:	2b00      	cmp	r3, #0
 8005350:	d100      	bne.n	8005354 <main+0x67c>
 8005352:	e0ba      	b.n	80054ca <main+0x7f2>
 8005354:	683b      	ldr	r3, [r7, #0]
 8005356:	2b2f      	cmp	r3, #47	; 0x2f
 8005358:	dd04      	ble.n	8005364 <main+0x68c>
 800535a:	4a88      	ldr	r2, [pc, #544]	; (800557c <main+0x8a4>)
 800535c:	7812      	ldrb	r2, [r2, #0]
 800535e:	2a01      	cmp	r2, #1
 8005360:	d100      	bne.n	8005364 <main+0x68c>
 8005362:	e0bf      	b.n	80054e4 <main+0x80c>
 8005364:	4b86      	ldr	r3, [pc, #536]	; (8005580 <main+0x8a8>)
 8005366:	4a86      	ldr	r2, [pc, #536]	; (8005580 <main+0x8a8>)
 8005368:	681b      	ldr	r3, [r3, #0]
 800536a:	3301      	adds	r3, #1
 800536c:	6013      	str	r3, [r2, #0]
 800536e:	4a85      	ldr	r2, [pc, #532]	; (8005584 <main+0x8ac>)
 8005370:	6812      	ldr	r2, [r2, #0]
 8005372:	9204      	str	r2, [sp, #16]
 8005374:	4293      	cmp	r3, r2
 8005376:	dd25      	ble.n	80053c4 <main+0x6ec>
 8005378:	4b80      	ldr	r3, [pc, #512]	; (800557c <main+0x8a4>)
 800537a:	4a83      	ldr	r2, [pc, #524]	; (8005588 <main+0x8b0>)
 800537c:	701c      	strb	r4, [r3, #0]
 800537e:	4b83      	ldr	r3, [pc, #524]	; (800558c <main+0x8b4>)
 8005380:	603c      	str	r4, [r7, #0]
 8005382:	601c      	str	r4, [r3, #0]
 8005384:	2301      	movs	r3, #1
 8005386:	6013      	str	r3, [r2, #0]
 8005388:	4b7b      	ldr	r3, [pc, #492]	; (8005578 <main+0x8a0>)
 800538a:	4881      	ldr	r0, [pc, #516]	; (8005590 <main+0x8b8>)
 800538c:	701c      	strb	r4, [r3, #0]
 800538e:	4b81      	ldr	r3, [pc, #516]	; (8005594 <main+0x8bc>)
 8005390:	629c      	str	r4, [r3, #40]	; 0x28
 8005392:	4b81      	ldr	r3, [pc, #516]	; (8005598 <main+0x8c0>)
 8005394:	629c      	str	r4, [r3, #40]	; 0x28
 8005396:	4b70      	ldr	r3, [pc, #448]	; (8005558 <main+0x880>)
 8005398:	701c      	strb	r4, [r3, #0]
 800539a:	4b6e      	ldr	r3, [pc, #440]	; (8005554 <main+0x87c>)
 800539c:	701c      	strb	r4, [r3, #0]
 800539e:	4b7f      	ldr	r3, [pc, #508]	; (800559c <main+0x8c4>)
 80053a0:	701c      	strb	r4, [r3, #0]
 80053a2:	f7fc fb9b 	bl	8001adc <HAL_TIM_Base_Start_IT>
 80053a6:	2340      	movs	r3, #64	; 0x40
 80053a8:	4a7d      	ldr	r2, [pc, #500]	; (80055a0 <main+0x8c8>)
 80053aa:	2100      	movs	r1, #0
 80053ac:	6013      	str	r3, [r2, #0]
 80053ae:	2280      	movs	r2, #128	; 0x80
 80053b0:	487c      	ldr	r0, [pc, #496]	; (80055a4 <main+0x8cc>)
 80053b2:	0052      	lsls	r2, r2, #1
 80053b4:	f000 fc40 	bl	8005c38 <memset>
 80053b8:	2340      	movs	r3, #64	; 0x40
 80053ba:	4a7a      	ldr	r2, [pc, #488]	; (80055a4 <main+0x8cc>)
 80053bc:	2100      	movs	r1, #0
 80053be:	487a      	ldr	r0, [pc, #488]	; (80055a8 <main+0x8d0>)
 80053c0:	f7fc fcf8 	bl	8001db4 <HAL_TIM_IC_Start_DMA>
 80053c4:	683b      	ldr	r3, [r7, #0]
 80053c6:	2b2f      	cmp	r3, #47	; 0x2f
 80053c8:	dc2d      	bgt.n	8005426 <main+0x74e>
 80053ca:	2301      	movs	r3, #1
 80053cc:	4a6e      	ldr	r2, [pc, #440]	; (8005588 <main+0x8b0>)
 80053ce:	6013      	str	r3, [r2, #0]
 80053d0:	4b76      	ldr	r3, [pc, #472]	; (80055ac <main+0x8d4>)
 80053d2:	601c      	str	r4, [r3, #0]
 80053d4:	4b76      	ldr	r3, [pc, #472]	; (80055b0 <main+0x8d8>)
 80053d6:	601c      	str	r4, [r3, #0]
 80053d8:	9b00      	ldr	r3, [sp, #0]
 80053da:	681b      	ldr	r3, [r3, #0]
 80053dc:	2b00      	cmp	r3, #0
 80053de:	d16b      	bne.n	80054b8 <main+0x7e0>
 80053e0:	4a74      	ldr	r2, [pc, #464]	; (80055b4 <main+0x8dc>)
 80053e2:	7812      	ldrb	r2, [r2, #0]
 80053e4:	9205      	str	r2, [sp, #20]
 80053e6:	2a00      	cmp	r2, #0
 80053e8:	d100      	bne.n	80053ec <main+0x714>
 80053ea:	e137      	b.n	800565c <main+0x984>
 80053ec:	602b      	str	r3, [r5, #0]
 80053ee:	4b72      	ldr	r3, [pc, #456]	; (80055b8 <main+0x8e0>)
 80053f0:	681b      	ldr	r3, [r3, #0]
 80053f2:	9304      	str	r3, [sp, #16]
 80053f4:	2b00      	cmp	r3, #0
 80053f6:	d002      	beq.n	80053fe <main+0x726>
 80053f8:	f7fe fa08 	bl	800380c <fullBrake>
 80053fc:	602c      	str	r4, [r5, #0]
 80053fe:	9b02      	ldr	r3, [sp, #8]
 8005400:	781a      	ldrb	r2, [r3, #0]
 8005402:	2300      	movs	r3, #0
 8005404:	2a00      	cmp	r2, #0
 8005406:	d00a      	beq.n	800541e <main+0x746>
 8005408:	4a6a      	ldr	r2, [pc, #424]	; (80055b4 <main+0x8dc>)
 800540a:	7812      	ldrb	r2, [r2, #0]
 800540c:	2a00      	cmp	r2, #0
 800540e:	d006      	beq.n	800541e <main+0x746>
 8005410:	9b03      	ldr	r3, [sp, #12]
 8005412:	681b      	ldr	r3, [r3, #0]
 8005414:	9304      	str	r3, [sp, #16]
 8005416:	602b      	str	r3, [r5, #0]
 8005418:	f7fe fb22 	bl	8003a60 <proBrake>
 800541c:	682b      	ldr	r3, [r5, #0]
 800541e:	4a44      	ldr	r2, [pc, #272]	; (8005530 <main+0x858>)
 8005420:	6353      	str	r3, [r2, #52]	; 0x34
 8005422:	6393      	str	r3, [r2, #56]	; 0x38
 8005424:	63d3      	str	r3, [r2, #60]	; 0x3c
 8005426:	4b4e      	ldr	r3, [pc, #312]	; (8005560 <main+0x888>)
 8005428:	681b      	ldr	r3, [r3, #0]
 800542a:	9304      	str	r3, [sp, #16]
 800542c:	2b63      	cmp	r3, #99	; 0x63
 800542e:	dc3b      	bgt.n	80054a8 <main+0x7d0>
 8005430:	210a      	movs	r1, #10
 8005432:	220f      	movs	r2, #15
 8005434:	4b4e      	ldr	r3, [pc, #312]	; (8005570 <main+0x898>)
 8005436:	681b      	ldr	r3, [r3, #0]
 8005438:	4860      	ldr	r0, [pc, #384]	; (80055bc <main+0x8e4>)
 800543a:	7001      	strb	r1, [r0, #0]
 800543c:	4960      	ldr	r1, [pc, #384]	; (80055c0 <main+0x8e8>)
 800543e:	600a      	str	r2, [r1, #0]
 8005440:	2bc7      	cmp	r3, #199	; 0xc7
 8005442:	dc08      	bgt.n	8005456 <main+0x77e>
 8005444:	23fa      	movs	r3, #250	; 0xfa
 8005446:	682a      	ldr	r2, [r5, #0]
 8005448:	005b      	lsls	r3, r3, #1
 800544a:	429a      	cmp	r2, r3
 800544c:	dd03      	ble.n	8005456 <main+0x77e>
 800544e:	3bf4      	subs	r3, #244	; 0xf4
 8005450:	3bff      	subs	r3, #255	; 0xff
 8005452:	600b      	str	r3, [r1, #0]
 8005454:	7004      	strb	r4, [r0, #0]
 8005456:	4b56      	ldr	r3, [pc, #344]	; (80055b0 <main+0x8d8>)
 8005458:	681b      	ldr	r3, [r3, #0]
 800545a:	9304      	str	r3, [sp, #16]
 800545c:	2b01      	cmp	r3, #1
 800545e:	d100      	bne.n	8005462 <main+0x78a>
 8005460:	e10b      	b.n	800567a <main+0x9a2>
 8005462:	232c      	movs	r3, #44	; 0x2c
 8005464:	682a      	ldr	r2, [r5, #0]
 8005466:	33ff      	adds	r3, #255	; 0xff
 8005468:	429a      	cmp	r2, r3
 800546a:	dd00      	ble.n	800546e <main+0x796>
 800546c:	e102      	b.n	8005674 <main+0x99c>
 800546e:	4a55      	ldr	r2, [pc, #340]	; (80055c4 <main+0x8ec>)
 8005470:	4b55      	ldr	r3, [pc, #340]	; (80055c8 <main+0x8f0>)
 8005472:	4956      	ldr	r1, [pc, #344]	; (80055cc <main+0x8f4>)
 8005474:	601a      	str	r2, [r3, #0]
 8005476:	4b55      	ldr	r3, [pc, #340]	; (80055cc <main+0x8f4>)
 8005478:	681b      	ldr	r3, [r3, #0]
 800547a:	9304      	str	r3, [sp, #16]
 800547c:	3301      	adds	r3, #1
 800547e:	600b      	str	r3, [r1, #0]
 8005480:	429a      	cmp	r2, r3
 8005482:	db00      	blt.n	8005486 <main+0x7ae>
 8005484:	e6b7      	b.n	80051f6 <main+0x51e>
 8005486:	4b52      	ldr	r3, [pc, #328]	; (80055d0 <main+0x8f8>)
 8005488:	4852      	ldr	r0, [pc, #328]	; (80055d4 <main+0x8fc>)
 800548a:	701c      	strb	r4, [r3, #0]
 800548c:	4b52      	ldr	r3, [pc, #328]	; (80055d8 <main+0x900>)
 800548e:	601c      	str	r4, [r3, #0]
 8005490:	f7fb fb28 	bl	8000ae4 <HAL_COMP_Stop_IT>
 8005494:	465b      	mov	r3, fp
 8005496:	601c      	str	r4, [r3, #0]
 8005498:	4b4b      	ldr	r3, [pc, #300]	; (80055c8 <main+0x8f0>)
 800549a:	4a4c      	ldr	r2, [pc, #304]	; (80055cc <main+0x8f4>)
 800549c:	681b      	ldr	r3, [r3, #0]
 800549e:	602c      	str	r4, [r5, #0]
 80054a0:	9304      	str	r3, [sp, #16]
 80054a2:	3301      	adds	r3, #1
 80054a4:	6013      	str	r3, [r2, #0]
 80054a6:	e6a6      	b.n	80051f6 <main+0x51e>
 80054a8:	4b31      	ldr	r3, [pc, #196]	; (8005570 <main+0x898>)
 80054aa:	4a4c      	ldr	r2, [pc, #304]	; (80055dc <main+0x904>)
 80054ac:	681b      	ldr	r3, [r3, #0]
 80054ae:	4293      	cmp	r3, r2
 80054b0:	dc04      	bgt.n	80054bc <main+0x7e4>
 80054b2:	2103      	movs	r1, #3
 80054b4:	2203      	movs	r2, #3
 80054b6:	e7bf      	b.n	8005438 <main+0x760>
 80054b8:	602c      	str	r4, [r5, #0]
 80054ba:	e79d      	b.n	80053f8 <main+0x720>
 80054bc:	230a      	movs	r3, #10
 80054be:	4a3f      	ldr	r2, [pc, #252]	; (80055bc <main+0x8e4>)
 80054c0:	7013      	strb	r3, [r2, #0]
 80054c2:	4a3f      	ldr	r2, [pc, #252]	; (80055c0 <main+0x8e8>)
 80054c4:	3305      	adds	r3, #5
 80054c6:	6013      	str	r3, [r2, #0]
 80054c8:	e7c5      	b.n	8005456 <main+0x77e>
 80054ca:	4b2b      	ldr	r3, [pc, #172]	; (8005578 <main+0x8a0>)
 80054cc:	781b      	ldrb	r3, [r3, #0]
 80054ce:	9304      	str	r3, [sp, #16]
 80054d0:	2b01      	cmp	r3, #1
 80054d2:	d100      	bne.n	80054d6 <main+0x7fe>
 80054d4:	e084      	b.n	80055e0 <main+0x908>
 80054d6:	683b      	ldr	r3, [r7, #0]
 80054d8:	2b00      	cmp	r3, #0
 80054da:	dc00      	bgt.n	80054de <main+0x806>
 80054dc:	e742      	b.n	8005364 <main+0x68c>
 80054de:	4a2b      	ldr	r2, [pc, #172]	; (800558c <main+0x8b4>)
 80054e0:	6014      	str	r4, [r2, #0]
 80054e2:	e738      	b.n	8005356 <main+0x67e>
 80054e4:	4933      	ldr	r1, [pc, #204]	; (80055b4 <main+0x8dc>)
 80054e6:	3b14      	subs	r3, #20
 80054e8:	700c      	strb	r4, [r1, #0]
 80054ea:	4931      	ldr	r1, [pc, #196]	; (80055b0 <main+0x8d8>)
 80054ec:	602b      	str	r3, [r5, #0]
 80054ee:	600a      	str	r2, [r1, #0]
 80054f0:	4a1b      	ldr	r2, [pc, #108]	; (8005560 <main+0x888>)
 80054f2:	6812      	ldr	r2, [r2, #0]
 80054f4:	9204      	str	r2, [sp, #16]
 80054f6:	2a0e      	cmp	r2, #14
 80054f8:	dd00      	ble.n	80054fc <main+0x824>
 80054fa:	e099      	b.n	8005630 <main+0x958>
 80054fc:	2b36      	cmp	r3, #54	; 0x36
 80054fe:	dd00      	ble.n	8005502 <main+0x82a>
 8005500:	e08a      	b.n	8005618 <main+0x940>
 8005502:	2337      	movs	r3, #55	; 0x37
 8005504:	602b      	str	r3, [r5, #0]
 8005506:	465b      	mov	r3, fp
 8005508:	681b      	ldr	r3, [r3, #0]
 800550a:	2b00      	cmp	r3, #0
 800550c:	d100      	bne.n	8005510 <main+0x838>
 800550e:	e729      	b.n	8005364 <main+0x68c>
 8005510:	2337      	movs	r3, #55	; 0x37
 8005512:	4a07      	ldr	r2, [pc, #28]	; (8005530 <main+0x858>)
 8005514:	6353      	str	r3, [r2, #52]	; 0x34
 8005516:	6393      	str	r3, [r2, #56]	; 0x38
 8005518:	63d3      	str	r3, [r2, #60]	; 0x3c
 800551a:	e723      	b.n	8005364 <main+0x68c>
 800551c:	2000012c 	.word	0x2000012c
 8005520:	20000020 	.word	0x20000020
 8005524:	200000c4 	.word	0x200000c4
 8005528:	20000450 	.word	0x20000450
 800552c:	2000011c 	.word	0x2000011c
 8005530:	40012c00 	.word	0x40012c00
 8005534:	20000010 	.word	0x20000010
 8005538:	20000148 	.word	0x20000148
 800553c:	200000bc 	.word	0x200000bc
 8005540:	000186a0 	.word	0x000186a0
 8005544:	200000b8 	.word	0x200000b8
 8005548:	200001f4 	.word	0x200001f4
 800554c:	20000208 	.word	0x20000208
 8005550:	2000010c 	.word	0x2000010c
 8005554:	20000144 	.word	0x20000144
 8005558:	20000108 	.word	0x20000108
 800555c:	00000449 	.word	0x00000449
 8005560:	20000280 	.word	0x20000280
 8005564:	fffffbe6 	.word	0xfffffbe6
 8005568:	00000416 	.word	0x00000416
 800556c:	fffffbe8 	.word	0xfffffbe8
 8005570:	200000b4 	.word	0x200000b4
 8005574:	2000000a 	.word	0x2000000a
 8005578:	20000120 	.word	0x20000120
 800557c:	200000a0 	.word	0x200000a0
 8005580:	20000158 	.word	0x20000158
 8005584:	2000003c 	.word	0x2000003c
 8005588:	20000110 	.word	0x20000110
 800558c:	200000a4 	.word	0x200000a4
 8005590:	200004e4 	.word	0x200004e4
 8005594:	40014000 	.word	0x40014000
 8005598:	40014400 	.word	0x40014400
 800559c:	20000150 	.word	0x20000150
 80055a0:	20000000 	.word	0x20000000
 80055a4:	20000284 	.word	0x20000284
 80055a8:	200001b0 	.word	0x200001b0
 80055ac:	20000114 	.word	0x20000114
 80055b0:	2000015c 	.word	0x2000015c
 80055b4:	20000133 	.word	0x20000133
 80055b8:	20000164 	.word	0x20000164
 80055bc:	20000018 	.word	0x20000018
 80055c0:	20000014 	.word	0x20000014
 80055c4:	00000dac 	.word	0x00000dac
 80055c8:	2000005c 	.word	0x2000005c
 80055cc:	2000017c 	.word	0x2000017c
 80055d0:	200000a8 	.word	0x200000a8
 80055d4:	20000210 	.word	0x20000210
 80055d8:	2000014c 	.word	0x2000014c
 80055dc:	00003a98 	.word	0x00003a98
 80055e0:	683b      	ldr	r3, [r7, #0]
 80055e2:	2b00      	cmp	r3, #0
 80055e4:	d000      	beq.n	80055e8 <main+0x910>
 80055e6:	e777      	b.n	80054d8 <main+0x800>
 80055e8:	4b81      	ldr	r3, [pc, #516]	; (80057f0 <main+0xb18>)
 80055ea:	4a81      	ldr	r2, [pc, #516]	; (80057f0 <main+0xb18>)
 80055ec:	681b      	ldr	r3, [r3, #0]
 80055ee:	2001      	movs	r0, #1
 80055f0:	9305      	str	r3, [sp, #20]
 80055f2:	3301      	adds	r3, #1
 80055f4:	6013      	str	r3, [r2, #0]
 80055f6:	f7fa ff2d 	bl	8000454 <HAL_Delay>
 80055fa:	23fa      	movs	r3, #250	; 0xfa
 80055fc:	4a7c      	ldr	r2, [pc, #496]	; (80057f0 <main+0xb18>)
 80055fe:	00db      	lsls	r3, r3, #3
 8005600:	6812      	ldr	r2, [r2, #0]
 8005602:	9205      	str	r2, [sp, #20]
 8005604:	429a      	cmp	r2, r3
 8005606:	dc00      	bgt.n	800560a <main+0x932>
 8005608:	e765      	b.n	80054d6 <main+0x7fe>
 800560a:	466a      	mov	r2, sp
 800560c:	4b79      	ldr	r3, [pc, #484]	; (80057f4 <main+0xb1c>)
 800560e:	7c12      	ldrb	r2, [r2, #16]
 8005610:	701a      	strb	r2, [r3, #0]
 8005612:	f7fe ff57 	bl	80044c4 <playInputTune>
 8005616:	e75e      	b.n	80054d6 <main+0x7fe>
 8005618:	22c8      	movs	r2, #200	; 0xc8
 800561a:	0052      	lsls	r2, r2, #1
 800561c:	4293      	cmp	r3, r2
 800561e:	dd12      	ble.n	8005646 <main+0x96e>
 8005620:	465b      	mov	r3, fp
 8005622:	681b      	ldr	r3, [r3, #0]
 8005624:	602a      	str	r2, [r5, #0]
 8005626:	2b00      	cmp	r3, #0
 8005628:	d100      	bne.n	800562c <main+0x954>
 800562a:	e69b      	b.n	8005364 <main+0x68c>
 800562c:	0013      	movs	r3, r2
 800562e:	e770      	b.n	8005512 <main+0x83a>
 8005630:	465a      	mov	r2, fp
 8005632:	6812      	ldr	r2, [r2, #0]
 8005634:	2a00      	cmp	r2, #0
 8005636:	d100      	bne.n	800563a <main+0x962>
 8005638:	e694      	b.n	8005364 <main+0x68c>
 800563a:	4a6f      	ldr	r2, [pc, #444]	; (80057f8 <main+0xb20>)
 800563c:	4293      	cmp	r3, r2
 800563e:	dd07      	ble.n	8005650 <main+0x978>
 8005640:	4b6e      	ldr	r3, [pc, #440]	; (80057fc <main+0xb24>)
 8005642:	602b      	str	r3, [r5, #0]
 8005644:	e765      	b.n	8005512 <main+0x83a>
 8005646:	465a      	mov	r2, fp
 8005648:	6812      	ldr	r2, [r2, #0]
 800564a:	2a00      	cmp	r2, #0
 800564c:	d100      	bne.n	8005650 <main+0x978>
 800564e:	e689      	b.n	8005364 <main+0x68c>
 8005650:	2b2c      	cmp	r3, #44	; 0x2c
 8005652:	dd00      	ble.n	8005656 <main+0x97e>
 8005654:	e75d      	b.n	8005512 <main+0x83a>
 8005656:	232d      	movs	r3, #45	; 0x2d
 8005658:	602b      	str	r3, [r5, #0]
 800565a:	e75a      	b.n	8005512 <main+0x83a>
 800565c:	f7fd ffb8 	bl	80035d0 <allOff>
 8005660:	9b00      	ldr	r3, [sp, #0]
 8005662:	681b      	ldr	r3, [r3, #0]
 8005664:	9304      	str	r3, [sp, #16]
 8005666:	9b05      	ldr	r3, [sp, #20]
 8005668:	602b      	str	r3, [r5, #0]
 800566a:	9b04      	ldr	r3, [sp, #16]
 800566c:	2b00      	cmp	r3, #0
 800566e:	d100      	bne.n	8005672 <main+0x99a>
 8005670:	e6bd      	b.n	80053ee <main+0x716>
 8005672:	e6c1      	b.n	80053f8 <main+0x720>
 8005674:	22fa      	movs	r2, #250	; 0xfa
 8005676:	00d2      	lsls	r2, r2, #3
 8005678:	e6fa      	b.n	8005470 <main+0x798>
 800567a:	465b      	mov	r3, fp
 800567c:	681b      	ldr	r3, [r3, #0]
 800567e:	2b00      	cmp	r3, #0
 8005680:	d000      	beq.n	8005684 <main+0x9ac>
 8005682:	e6ee      	b.n	8005462 <main+0x78a>
 8005684:	2202      	movs	r2, #2
 8005686:	495e      	ldr	r1, [pc, #376]	; (8005800 <main+0xb28>)
 8005688:	600a      	str	r2, [r1, #0]
 800568a:	495e      	ldr	r1, [pc, #376]	; (8005804 <main+0xb2c>)
 800568c:	600a      	str	r2, [r1, #0]
 800568e:	4a5e      	ldr	r2, [pc, #376]	; (8005808 <main+0xb30>)
 8005690:	6013      	str	r3, [r2, #0]
 8005692:	f7fe fba7 	bl	8003de4 <startMotor>
 8005696:	e6e4      	b.n	8005462 <main+0x78a>
 8005698:	2bc8      	cmp	r3, #200	; 0xc8
 800569a:	db00      	blt.n	800569e <main+0x9c6>
 800569c:	e641      	b.n	8005322 <main+0x64a>
 800569e:	23c8      	movs	r3, #200	; 0xc8
 80056a0:	e63f      	b.n	8005322 <main+0x64a>
 80056a2:	4653      	mov	r3, sl
 80056a4:	601c      	str	r4, [r3, #0]
 80056a6:	e5e2      	b.n	800526e <main+0x596>
 80056a8:	4652      	mov	r2, sl
 80056aa:	6812      	ldr	r2, [r2, #0]
 80056ac:	3b13      	subs	r3, #19
 80056ae:	1a9b      	subs	r3, r3, r2
 80056b0:	4642      	mov	r2, r8
 80056b2:	6013      	str	r3, [r2, #0]
 80056b4:	e5db      	b.n	800526e <main+0x596>
 80056b6:	464b      	mov	r3, r9
 80056b8:	681b      	ldr	r3, [r3, #0]
 80056ba:	e5dc      	b.n	8005276 <main+0x59e>
 80056bc:	4652      	mov	r2, sl
 80056be:	4643      	mov	r3, r8
 80056c0:	6812      	ldr	r2, [r2, #0]
 80056c2:	601a      	str	r2, [r3, #0]
 80056c4:	e5d3      	b.n	800526e <main+0x596>
 80056c6:	464b      	mov	r3, r9
 80056c8:	601c      	str	r4, [r3, #0]
 80056ca:	4b4a      	ldr	r3, [pc, #296]	; (80057f4 <main+0xb1c>)
 80056cc:	701c      	strb	r4, [r3, #0]
 80056ce:	4b4f      	ldr	r3, [pc, #316]	; (800580c <main+0xb34>)
 80056d0:	601c      	str	r4, [r3, #0]
 80056d2:	4b4f      	ldr	r3, [pc, #316]	; (8005810 <main+0xb38>)
 80056d4:	781b      	ldrb	r3, [r3, #0]
 80056d6:	2b00      	cmp	r3, #0
 80056d8:	d100      	bne.n	80056dc <main+0xa04>
 80056da:	e5d3      	b.n	8005284 <main+0x5ac>
 80056dc:	9b01      	ldr	r3, [sp, #4]
 80056de:	681b      	ldr	r3, [r3, #0]
 80056e0:	6033      	str	r3, [r6, #0]
 80056e2:	e609      	b.n	80052f8 <main+0x620>
 80056e4:	e7fe      	b.n	80056e4 <main+0xa0c>
 80056e6:	4b4b      	ldr	r3, [pc, #300]	; (8005814 <main+0xb3c>)
 80056e8:	001a      	movs	r2, r3
 80056ea:	9301      	str	r3, [sp, #4]
 80056ec:	4b4a      	ldr	r3, [pc, #296]	; (8005818 <main+0xb40>)
 80056ee:	6013      	str	r3, [r2, #0]
 80056f0:	e569      	b.n	80051c6 <main+0x4ee>
 80056f2:	f7fd fd93 	bl	800321c <storeEEpromConfig>
 80056f6:	e7fe      	b.n	80056f6 <main+0xa1e>
 80056f8:	464a      	mov	r2, r9
 80056fa:	3b09      	subs	r3, #9
 80056fc:	6013      	str	r3, [r2, #0]
 80056fe:	4b3d      	ldr	r3, [pc, #244]	; (80057f4 <main+0xb1c>)
 8005700:	701c      	strb	r4, [r3, #0]
 8005702:	4b42      	ldr	r3, [pc, #264]	; (800580c <main+0xb34>)
 8005704:	601c      	str	r4, [r3, #0]
 8005706:	4b42      	ldr	r3, [pc, #264]	; (8005810 <main+0xb38>)
 8005708:	781b      	ldrb	r3, [r3, #0]
 800570a:	2b00      	cmp	r3, #0
 800570c:	d000      	beq.n	8005710 <main+0xa38>
 800570e:	e5c1      	b.n	8005294 <main+0x5bc>
 8005710:	4b42      	ldr	r3, [pc, #264]	; (800581c <main+0xb44>)
 8005712:	781b      	ldrb	r3, [r3, #0]
 8005714:	9304      	str	r3, [sp, #16]
 8005716:	2b00      	cmp	r3, #0
 8005718:	d000      	beq.n	800571c <main+0xa44>
 800571a:	e5bb      	b.n	8005294 <main+0x5bc>
 800571c:	9b01      	ldr	r3, [sp, #4]
 800571e:	4a40      	ldr	r2, [pc, #256]	; (8005820 <main+0xb48>)
 8005720:	681b      	ldr	r3, [r3, #0]
 8005722:	4293      	cmp	r3, r2
 8005724:	dd38      	ble.n	8005798 <main+0xac0>
 8005726:	4642      	mov	r2, r8
 8005728:	6810      	ldr	r0, [r2, #0]
 800572a:	4652      	mov	r2, sl
 800572c:	6812      	ldr	r2, [r2, #0]
 800572e:	4290      	cmp	r0, r2
 8005730:	d029      	beq.n	8005786 <main+0xaae>
 8005732:	4a3c      	ldr	r2, [pc, #240]	; (8005824 <main+0xb4c>)
 8005734:	7812      	ldrb	r2, [r2, #0]
 8005736:	2a00      	cmp	r2, #0
 8005738:	d104      	bne.n	8005744 <main+0xa6c>
 800573a:	4a3b      	ldr	r2, [pc, #236]	; (8005828 <main+0xb50>)
 800573c:	1899      	adds	r1, r3, r2
 800573e:	004a      	lsls	r2, r1, #1
 8005740:	1852      	adds	r2, r2, r1
 8005742:	6032      	str	r2, [r6, #0]
 8005744:	4a30      	ldr	r2, [pc, #192]	; (8005808 <main+0xb30>)
 8005746:	6812      	ldr	r2, [r2, #0]
 8005748:	9204      	str	r2, [sp, #16]
 800574a:	4a38      	ldr	r2, [pc, #224]	; (800582c <main+0xb54>)
 800574c:	6812      	ldr	r2, [r2, #0]
 800574e:	9205      	str	r2, [sp, #20]
 8005750:	9905      	ldr	r1, [sp, #20]
 8005752:	9a04      	ldr	r2, [sp, #16]
 8005754:	428a      	cmp	r2, r1
 8005756:	db09      	blt.n	800576c <main+0xa94>
 8005758:	4a35      	ldr	r2, [pc, #212]	; (8005830 <main+0xb58>)
 800575a:	7812      	ldrb	r2, [r2, #0]
 800575c:	2a03      	cmp	r2, #3
 800575e:	d001      	beq.n	8005764 <main+0xa8c>
 8005760:	4a30      	ldr	r2, [pc, #192]	; (8005824 <main+0xb4c>)
 8005762:	7014      	strb	r4, [r2, #0]
 8005764:	4a33      	ldr	r2, [pc, #204]	; (8005834 <main+0xb5c>)
 8005766:	6014      	str	r4, [r2, #0]
 8005768:	4a33      	ldr	r2, [pc, #204]	; (8005838 <main+0xb60>)
 800576a:	6014      	str	r4, [r2, #0]
 800576c:	4a33      	ldr	r2, [pc, #204]	; (800583c <main+0xb64>)
 800576e:	4694      	mov	ip, r2
 8005770:	2295      	movs	r2, #149	; 0x95
 8005772:	4463      	add	r3, ip
 8005774:	0052      	lsls	r2, r2, #1
 8005776:	4293      	cmp	r3, r2
 8005778:	d900      	bls.n	800577c <main+0xaa4>
 800577a:	e5bc      	b.n	80052f6 <main+0x61e>
 800577c:	4b29      	ldr	r3, [pc, #164]	; (8005824 <main+0xb4c>)
 800577e:	6034      	str	r4, [r6, #0]
 8005780:	701c      	strb	r4, [r3, #0]
 8005782:	2300      	movs	r3, #0
 8005784:	e5be      	b.n	8005304 <main+0x62c>
 8005786:	9a04      	ldr	r2, [sp, #16]
 8005788:	4926      	ldr	r1, [pc, #152]	; (8005824 <main+0xb4c>)
 800578a:	6032      	str	r2, [r6, #0]
 800578c:	2201      	movs	r2, #1
 800578e:	700a      	strb	r2, [r1, #0]
 8005790:	4641      	mov	r1, r8
 8005792:	1a12      	subs	r2, r2, r0
 8005794:	600a      	str	r2, [r1, #0]
 8005796:	e7d5      	b.n	8005744 <main+0xa6c>
 8005798:	4a29      	ldr	r2, [pc, #164]	; (8005840 <main+0xb68>)
 800579a:	4293      	cmp	r3, r2
 800579c:	dcd2      	bgt.n	8005744 <main+0xa6c>
 800579e:	4652      	mov	r2, sl
 80057a0:	2001      	movs	r0, #1
 80057a2:	6812      	ldr	r2, [r2, #0]
 80057a4:	1a81      	subs	r1, r0, r2
 80057a6:	468c      	mov	ip, r1
 80057a8:	4641      	mov	r1, r8
 80057aa:	6809      	ldr	r1, [r1, #0]
 80057ac:	458c      	cmp	ip, r1
 80057ae:	d00c      	beq.n	80057ca <main+0xaf2>
 80057b0:	4a1c      	ldr	r2, [pc, #112]	; (8005824 <main+0xb4c>)
 80057b2:	7812      	ldrb	r2, [r2, #0]
 80057b4:	2a00      	cmp	r2, #0
 80057b6:	d1c5      	bne.n	8005744 <main+0xa6c>
 80057b8:	22c8      	movs	r2, #200	; 0xc8
 80057ba:	0092      	lsls	r2, r2, #2
 80057bc:	1ad2      	subs	r2, r2, r3
 80057be:	0051      	lsls	r1, r2, #1
 80057c0:	188a      	adds	r2, r1, r2
 80057c2:	6032      	str	r2, [r6, #0]
 80057c4:	e7be      	b.n	8005744 <main+0xa6c>
 80057c6:	6034      	str	r4, [r6, #0]
 80057c8:	e7db      	b.n	8005782 <main+0xaaa>
 80057ca:	4916      	ldr	r1, [pc, #88]	; (8005824 <main+0xb4c>)
 80057cc:	7008      	strb	r0, [r1, #0]
 80057ce:	9904      	ldr	r1, [sp, #16]
 80057d0:	6031      	str	r1, [r6, #0]
 80057d2:	4641      	mov	r1, r8
 80057d4:	600a      	str	r2, [r1, #0]
 80057d6:	e7b5      	b.n	8005744 <main+0xa6c>
 80057d8:	4652      	mov	r2, sl
 80057da:	3b07      	subs	r3, #7
 80057dc:	6013      	str	r3, [r2, #0]
 80057de:	e546      	b.n	800526e <main+0x596>
 80057e0:	1ad1      	subs	r1, r2, r3
 80057e2:	2902      	cmp	r1, #2
 80057e4:	dd02      	ble.n	80057ec <main+0xb14>
 80057e6:	3a01      	subs	r2, #1
 80057e8:	603a      	str	r2, [r7, #0]
 80057ea:	e592      	b.n	8005312 <main+0x63a>
 80057ec:	603b      	str	r3, [r7, #0]
 80057ee:	e590      	b.n	8005312 <main+0x63a>
 80057f0:	200000a4 	.word	0x200000a4
 80057f4:	200000a0 	.word	0x200000a0
 80057f8:	000007ce 	.word	0x000007ce
 80057fc:	000007cf 	.word	0x000007cf
 8005800:	20000054 	.word	0x20000054
 8005804:	20000050 	.word	0x20000050
 8005808:	2000017c 	.word	0x2000017c
 800580c:	2000010c 	.word	0x2000010c
 8005810:	20000144 	.word	0x20000144
 8005814:	2000012c 	.word	0x2000012c
 8005818:	000003e9 	.word	0x000003e9
 800581c:	20000108 	.word	0x20000108
 8005820:	0000044c 	.word	0x0000044c
 8005824:	20000133 	.word	0x20000133
 8005828:	fffffbe6 	.word	0xfffffbe6
 800582c:	2000005c 	.word	0x2000005c
 8005830:	20000058 	.word	0x20000058
 8005834:	20000160 	.word	0x20000160
 8005838:	20000280 	.word	0x20000280
 800583c:	fffffcdf 	.word	0xfffffcdf
 8005840:	0000031f 	.word	0x0000031f

08005844 <_Error_Handler>:
 8005844:	e7fe      	b.n	8005844 <_Error_Handler>
 8005846:	46c0      	nop			; (mov r8, r8)

08005848 <HAL_MspInit>:
 8005848:	2301      	movs	r3, #1
 800584a:	2005      	movs	r0, #5
 800584c:	4a0e      	ldr	r2, [pc, #56]	; (8005888 <HAL_MspInit+0x40>)
 800584e:	b500      	push	{lr}
 8005850:	6991      	ldr	r1, [r2, #24]
 8005852:	b083      	sub	sp, #12
 8005854:	4319      	orrs	r1, r3
 8005856:	6191      	str	r1, [r2, #24]
 8005858:	6992      	ldr	r2, [r2, #24]
 800585a:	2100      	movs	r1, #0
 800585c:	4013      	ands	r3, r2
 800585e:	9301      	str	r3, [sp, #4]
 8005860:	2200      	movs	r2, #0
 8005862:	4240      	negs	r0, r0
 8005864:	9b01      	ldr	r3, [sp, #4]
 8005866:	f7fb f997 	bl	8000b98 <HAL_NVIC_SetPriority>
 800586a:	2002      	movs	r0, #2
 800586c:	2200      	movs	r2, #0
 800586e:	2100      	movs	r1, #0
 8005870:	4240      	negs	r0, r0
 8005872:	f7fb f991 	bl	8000b98 <HAL_NVIC_SetPriority>
 8005876:	2001      	movs	r0, #1
 8005878:	2200      	movs	r2, #0
 800587a:	2100      	movs	r1, #0
 800587c:	4240      	negs	r0, r0
 800587e:	f7fb f98b 	bl	8000b98 <HAL_NVIC_SetPriority>
 8005882:	b003      	add	sp, #12
 8005884:	bd00      	pop	{pc}
 8005886:	46c0      	nop			; (mov r8, r8)
 8005888:	40021000 	.word	0x40021000

0800588c <HAL_ADC_MspInit>:
 800588c:	b5f0      	push	{r4, r5, r6, r7, lr}
 800588e:	4b20      	ldr	r3, [pc, #128]	; (8005910 <HAL_ADC_MspInit+0x84>)
 8005890:	6802      	ldr	r2, [r0, #0]
 8005892:	b087      	sub	sp, #28
 8005894:	0004      	movs	r4, r0
 8005896:	429a      	cmp	r2, r3
 8005898:	d001      	beq.n	800589e <HAL_ADC_MspInit+0x12>
 800589a:	b007      	add	sp, #28
 800589c:	bdf0      	pop	{r4, r5, r6, r7, pc}
 800589e:	2780      	movs	r7, #128	; 0x80
 80058a0:	4b1c      	ldr	r3, [pc, #112]	; (8005914 <HAL_ADC_MspInit+0x88>)
 80058a2:	00bf      	lsls	r7, r7, #2
 80058a4:	699a      	ldr	r2, [r3, #24]
 80058a6:	2090      	movs	r0, #144	; 0x90
 80058a8:	433a      	orrs	r2, r7
 80058aa:	619a      	str	r2, [r3, #24]
 80058ac:	699b      	ldr	r3, [r3, #24]
 80058ae:	2600      	movs	r6, #0
 80058b0:	403b      	ands	r3, r7
 80058b2:	9300      	str	r3, [sp, #0]
 80058b4:	9b00      	ldr	r3, [sp, #0]
 80058b6:	2348      	movs	r3, #72	; 0x48
 80058b8:	05c0      	lsls	r0, r0, #23
 80058ba:	9301      	str	r3, [sp, #4]
 80058bc:	a901      	add	r1, sp, #4
 80058be:	3b45      	subs	r3, #69	; 0x45
 80058c0:	9302      	str	r3, [sp, #8]
 80058c2:	9603      	str	r6, [sp, #12]
 80058c4:	f7fb fc3c 	bl	8001140 <HAL_GPIO_Init>
 80058c8:	4d13      	ldr	r5, [pc, #76]	; (8005918 <HAL_ADC_MspInit+0x8c>)
 80058ca:	4b14      	ldr	r3, [pc, #80]	; (800591c <HAL_ADC_MspInit+0x90>)
 80058cc:	0028      	movs	r0, r5
 80058ce:	602b      	str	r3, [r5, #0]
 80058d0:	2380      	movs	r3, #128	; 0x80
 80058d2:	60eb      	str	r3, [r5, #12]
 80058d4:	2380      	movs	r3, #128	; 0x80
 80058d6:	011b      	lsls	r3, r3, #4
 80058d8:	616b      	str	r3, [r5, #20]
 80058da:	2320      	movs	r3, #32
 80058dc:	606e      	str	r6, [r5, #4]
 80058de:	60ae      	str	r6, [r5, #8]
 80058e0:	612f      	str	r7, [r5, #16]
 80058e2:	61ab      	str	r3, [r5, #24]
 80058e4:	61ee      	str	r6, [r5, #28]
 80058e6:	f7fb f9c5 	bl	8000c74 <HAL_DMA_Init>
 80058ea:	2800      	cmp	r0, #0
 80058ec:	d10a      	bne.n	8005904 <HAL_ADC_MspInit+0x78>
 80058ee:	63e5      	str	r5, [r4, #60]	; 0x3c
 80058f0:	2200      	movs	r2, #0
 80058f2:	2100      	movs	r1, #0
 80058f4:	200c      	movs	r0, #12
 80058f6:	626c      	str	r4, [r5, #36]	; 0x24
 80058f8:	f7fb f94e 	bl	8000b98 <HAL_NVIC_SetPriority>
 80058fc:	200c      	movs	r0, #12
 80058fe:	f7fb f97f 	bl	8000c00 <HAL_NVIC_EnableIRQ>
 8005902:	e7ca      	b.n	800589a <HAL_ADC_MspInit+0xe>
 8005904:	216b      	movs	r1, #107	; 0x6b
 8005906:	4806      	ldr	r0, [pc, #24]	; (8005920 <HAL_ADC_MspInit+0x94>)
 8005908:	f7ff ff9c 	bl	8005844 <_Error_Handler>
 800590c:	e7ef      	b.n	80058ee <HAL_ADC_MspInit+0x62>
 800590e:	46c0      	nop			; (mov r8, r8)
 8005910:	40012400 	.word	0x40012400
 8005914:	40021000 	.word	0x40021000
 8005918:	20000454 	.word	0x20000454
 800591c:	40020008 	.word	0x40020008
 8005920:	08005c80 	.word	0x08005c80

08005924 <HAL_COMP_MspInit>:
 8005924:	b500      	push	{lr}
 8005926:	4b0d      	ldr	r3, [pc, #52]	; (800595c <HAL_COMP_MspInit+0x38>)
 8005928:	6802      	ldr	r2, [r0, #0]
 800592a:	b087      	sub	sp, #28
 800592c:	429a      	cmp	r2, r3
 800592e:	d001      	beq.n	8005934 <HAL_COMP_MspInit+0x10>
 8005930:	b007      	add	sp, #28
 8005932:	bd00      	pop	{pc}
 8005934:	2322      	movs	r3, #34	; 0x22
 8005936:	2090      	movs	r0, #144	; 0x90
 8005938:	9301      	str	r3, [sp, #4]
 800593a:	3b1f      	subs	r3, #31
 800593c:	9302      	str	r3, [sp, #8]
 800593e:	2300      	movs	r3, #0
 8005940:	a901      	add	r1, sp, #4
 8005942:	05c0      	lsls	r0, r0, #23
 8005944:	9303      	str	r3, [sp, #12]
 8005946:	f7fb fbfb 	bl	8001140 <HAL_GPIO_Init>
 800594a:	2200      	movs	r2, #0
 800594c:	2100      	movs	r1, #0
 800594e:	200c      	movs	r0, #12
 8005950:	f7fb f922 	bl	8000b98 <HAL_NVIC_SetPriority>
 8005954:	200c      	movs	r0, #12
 8005956:	f7fb f953 	bl	8000c00 <HAL_NVIC_EnableIRQ>
 800595a:	e7e9      	b.n	8005930 <HAL_COMP_MspInit+0xc>
 800595c:	4001001c 	.word	0x4001001c

08005960 <HAL_TIM_Base_MspInit>:
 8005960:	b570      	push	{r4, r5, r6, lr}
 8005962:	6803      	ldr	r3, [r0, #0]
 8005964:	4a3e      	ldr	r2, [pc, #248]	; (8005a60 <HAL_TIM_Base_MspInit+0x100>)
 8005966:	b08a      	sub	sp, #40	; 0x28
 8005968:	0004      	movs	r4, r0
 800596a:	4293      	cmp	r3, r2
 800596c:	d00e      	beq.n	800598c <HAL_TIM_Base_MspInit+0x2c>
 800596e:	2280      	movs	r2, #128	; 0x80
 8005970:	05d2      	lsls	r2, r2, #23
 8005972:	4293      	cmp	r3, r2
 8005974:	d015      	beq.n	80059a2 <HAL_TIM_Base_MspInit+0x42>
 8005976:	4a3b      	ldr	r2, [pc, #236]	; (8005a64 <HAL_TIM_Base_MspInit+0x104>)
 8005978:	4293      	cmp	r3, r2
 800597a:	d01c      	beq.n	80059b6 <HAL_TIM_Base_MspInit+0x56>
 800597c:	4a3a      	ldr	r2, [pc, #232]	; (8005a68 <HAL_TIM_Base_MspInit+0x108>)
 800597e:	4293      	cmp	r3, r2
 8005980:	d036      	beq.n	80059f0 <HAL_TIM_Base_MspInit+0x90>
 8005982:	4a3a      	ldr	r2, [pc, #232]	; (8005a6c <HAL_TIM_Base_MspInit+0x10c>)
 8005984:	4293      	cmp	r3, r2
 8005986:	d020      	beq.n	80059ca <HAL_TIM_Base_MspInit+0x6a>
 8005988:	b00a      	add	sp, #40	; 0x28
 800598a:	bd70      	pop	{r4, r5, r6, pc}
 800598c:	2080      	movs	r0, #128	; 0x80
 800598e:	4a38      	ldr	r2, [pc, #224]	; (8005a70 <HAL_TIM_Base_MspInit+0x110>)
 8005990:	0100      	lsls	r0, r0, #4
 8005992:	6991      	ldr	r1, [r2, #24]
 8005994:	4301      	orrs	r1, r0
 8005996:	6191      	str	r1, [r2, #24]
 8005998:	6993      	ldr	r3, [r2, #24]
 800599a:	4003      	ands	r3, r0
 800599c:	9301      	str	r3, [sp, #4]
 800599e:	9b01      	ldr	r3, [sp, #4]
 80059a0:	e7f2      	b.n	8005988 <HAL_TIM_Base_MspInit+0x28>
 80059a2:	2301      	movs	r3, #1
 80059a4:	4a32      	ldr	r2, [pc, #200]	; (8005a70 <HAL_TIM_Base_MspInit+0x110>)
 80059a6:	69d1      	ldr	r1, [r2, #28]
 80059a8:	4319      	orrs	r1, r3
 80059aa:	61d1      	str	r1, [r2, #28]
 80059ac:	69d2      	ldr	r2, [r2, #28]
 80059ae:	4013      	ands	r3, r2
 80059b0:	9302      	str	r3, [sp, #8]
 80059b2:	9b02      	ldr	r3, [sp, #8]
 80059b4:	e7e8      	b.n	8005988 <HAL_TIM_Base_MspInit+0x28>
 80059b6:	2302      	movs	r3, #2
 80059b8:	4a2d      	ldr	r2, [pc, #180]	; (8005a70 <HAL_TIM_Base_MspInit+0x110>)
 80059ba:	69d1      	ldr	r1, [r2, #28]
 80059bc:	4319      	orrs	r1, r3
 80059be:	61d1      	str	r1, [r2, #28]
 80059c0:	69d2      	ldr	r2, [r2, #28]
 80059c2:	4013      	ands	r3, r2
 80059c4:	9303      	str	r3, [sp, #12]
 80059c6:	9b03      	ldr	r3, [sp, #12]
 80059c8:	e7de      	b.n	8005988 <HAL_TIM_Base_MspInit+0x28>
 80059ca:	2080      	movs	r0, #128	; 0x80
 80059cc:	4a28      	ldr	r2, [pc, #160]	; (8005a70 <HAL_TIM_Base_MspInit+0x110>)
 80059ce:	0280      	lsls	r0, r0, #10
 80059d0:	6991      	ldr	r1, [r2, #24]
 80059d2:	4301      	orrs	r1, r0
 80059d4:	6191      	str	r1, [r2, #24]
 80059d6:	6993      	ldr	r3, [r2, #24]
 80059d8:	2101      	movs	r1, #1
 80059da:	4003      	ands	r3, r0
 80059dc:	9305      	str	r3, [sp, #20]
 80059de:	2200      	movs	r2, #0
 80059e0:	2015      	movs	r0, #21
 80059e2:	9b05      	ldr	r3, [sp, #20]
 80059e4:	f7fb f8d8 	bl	8000b98 <HAL_NVIC_SetPriority>
 80059e8:	2015      	movs	r0, #21
 80059ea:	f7fb f909 	bl	8000c00 <HAL_NVIC_EnableIRQ>
 80059ee:	e7cb      	b.n	8005988 <HAL_TIM_Base_MspInit+0x28>
 80059f0:	2080      	movs	r0, #128	; 0x80
 80059f2:	4a1f      	ldr	r2, [pc, #124]	; (8005a70 <HAL_TIM_Base_MspInit+0x110>)
 80059f4:	0240      	lsls	r0, r0, #9
 80059f6:	6991      	ldr	r1, [r2, #24]
 80059f8:	2600      	movs	r6, #0
 80059fa:	4301      	orrs	r1, r0
 80059fc:	6191      	str	r1, [r2, #24]
 80059fe:	6993      	ldr	r3, [r2, #24]
 8005a00:	a905      	add	r1, sp, #20
 8005a02:	4003      	ands	r3, r0
 8005a04:	9304      	str	r3, [sp, #16]
 8005a06:	9b04      	ldr	r3, [sp, #16]
 8005a08:	2090      	movs	r0, #144	; 0x90
 8005a0a:	2304      	movs	r3, #4
 8005a0c:	05c0      	lsls	r0, r0, #23
 8005a0e:	9305      	str	r3, [sp, #20]
 8005a10:	3b02      	subs	r3, #2
 8005a12:	9306      	str	r3, [sp, #24]
 8005a14:	9607      	str	r6, [sp, #28]
 8005a16:	9608      	str	r6, [sp, #32]
 8005a18:	9609      	str	r6, [sp, #36]	; 0x24
 8005a1a:	f7fb fb91 	bl	8001140 <HAL_GPIO_Init>
 8005a1e:	4d15      	ldr	r5, [pc, #84]	; (8005a74 <HAL_TIM_Base_MspInit+0x114>)
 8005a20:	4b15      	ldr	r3, [pc, #84]	; (8005a78 <HAL_TIM_Base_MspInit+0x118>)
 8005a22:	0028      	movs	r0, r5
 8005a24:	602b      	str	r3, [r5, #0]
 8005a26:	2380      	movs	r3, #128	; 0x80
 8005a28:	60eb      	str	r3, [r5, #12]
 8005a2a:	3380      	adds	r3, #128	; 0x80
 8005a2c:	612b      	str	r3, [r5, #16]
 8005a2e:	2380      	movs	r3, #128	; 0x80
 8005a30:	011b      	lsls	r3, r3, #4
 8005a32:	616b      	str	r3, [r5, #20]
 8005a34:	2380      	movs	r3, #128	; 0x80
 8005a36:	015b      	lsls	r3, r3, #5
 8005a38:	606e      	str	r6, [r5, #4]
 8005a3a:	60ae      	str	r6, [r5, #8]
 8005a3c:	61ae      	str	r6, [r5, #24]
 8005a3e:	61eb      	str	r3, [r5, #28]
 8005a40:	f7fb f918 	bl	8000c74 <HAL_DMA_Init>
 8005a44:	2800      	cmp	r0, #0
 8005a46:	d004      	beq.n	8005a52 <HAL_TIM_Base_MspInit+0xf2>
 8005a48:	211e      	movs	r1, #30
 8005a4a:	480c      	ldr	r0, [pc, #48]	; (8005a7c <HAL_TIM_Base_MspInit+0x11c>)
 8005a4c:	31ff      	adds	r1, #255	; 0xff
 8005a4e:	f7ff fef9 	bl	8005844 <_Error_Handler>
 8005a52:	6265      	str	r5, [r4, #36]	; 0x24
 8005a54:	6225      	str	r5, [r4, #32]
 8005a56:	63a5      	str	r5, [r4, #56]	; 0x38
 8005a58:	626c      	str	r4, [r5, #36]	; 0x24
 8005a5a:	6365      	str	r5, [r4, #52]	; 0x34
 8005a5c:	e794      	b.n	8005988 <HAL_TIM_Base_MspInit+0x28>
 8005a5e:	46c0      	nop			; (mov r8, r8)
 8005a60:	40012c00 	.word	0x40012c00
 8005a64:	40000400 	.word	0x40000400
 8005a68:	40014000 	.word	0x40014000
 8005a6c:	40014400 	.word	0x40014400
 8005a70:	40021000 	.word	0x40021000
 8005a74:	20000388 	.word	0x20000388
 8005a78:	40020058 	.word	0x40020058
 8005a7c:	08005c80 	.word	0x08005c80

08005a80 <HAL_TIM_MspPostInit>:
 8005a80:	b530      	push	{r4, r5, lr}
 8005a82:	4b10      	ldr	r3, [pc, #64]	; (8005ac4 <HAL_TIM_MspPostInit+0x44>)
 8005a84:	6802      	ldr	r2, [r0, #0]
 8005a86:	b087      	sub	sp, #28
 8005a88:	429a      	cmp	r2, r3
 8005a8a:	d001      	beq.n	8005a90 <HAL_TIM_MspPostInit+0x10>
 8005a8c:	b007      	add	sp, #28
 8005a8e:	bd30      	pop	{r4, r5, pc}
 8005a90:	23f8      	movs	r3, #248	; 0xf8
 8005a92:	2090      	movs	r0, #144	; 0x90
 8005a94:	2402      	movs	r4, #2
 8005a96:	2500      	movs	r5, #0
 8005a98:	011b      	lsls	r3, r3, #4
 8005a9a:	a901      	add	r1, sp, #4
 8005a9c:	05c0      	lsls	r0, r0, #23
 8005a9e:	9301      	str	r3, [sp, #4]
 8005aa0:	9402      	str	r4, [sp, #8]
 8005aa2:	9503      	str	r5, [sp, #12]
 8005aa4:	9504      	str	r5, [sp, #16]
 8005aa6:	9405      	str	r4, [sp, #20]
 8005aa8:	f7fb fb4a 	bl	8001140 <HAL_GPIO_Init>
 8005aac:	2303      	movs	r3, #3
 8005aae:	a901      	add	r1, sp, #4
 8005ab0:	4805      	ldr	r0, [pc, #20]	; (8005ac8 <HAL_TIM_MspPostInit+0x48>)
 8005ab2:	9301      	str	r3, [sp, #4]
 8005ab4:	9402      	str	r4, [sp, #8]
 8005ab6:	9503      	str	r5, [sp, #12]
 8005ab8:	9504      	str	r5, [sp, #16]
 8005aba:	9405      	str	r4, [sp, #20]
 8005abc:	f7fb fb40 	bl	8001140 <HAL_GPIO_Init>
 8005ac0:	e7e4      	b.n	8005a8c <HAL_TIM_MspPostInit+0xc>
 8005ac2:	46c0      	nop			; (mov r8, r8)
 8005ac4:	40012c00 	.word	0x40012c00
 8005ac8:	48000400 	.word	0x48000400

08005acc <NMI_Handler>:
 8005acc:	4770      	bx	lr
 8005ace:	46c0      	nop			; (mov r8, r8)

08005ad0 <HardFault_Handler>:
 8005ad0:	e7fe      	b.n	8005ad0 <HardFault_Handler>
 8005ad2:	46c0      	nop			; (mov r8, r8)

08005ad4 <SVC_Handler>:
 8005ad4:	4770      	bx	lr
 8005ad6:	46c0      	nop			; (mov r8, r8)

08005ad8 <PendSV_Handler>:
 8005ad8:	4770      	bx	lr
 8005ada:	46c0      	nop			; (mov r8, r8)

08005adc <SysTick_Handler>:
 8005adc:	b510      	push	{r4, lr}
 8005ade:	f7fa fcab 	bl	8000438 <HAL_IncTick>
 8005ae2:	f7fb f8c3 	bl	8000c6c <HAL_SYSTICK_IRQHandler>
 8005ae6:	bd10      	pop	{r4, pc}

08005ae8 <DMA1_Channel1_IRQHandler>:
 8005ae8:	b510      	push	{r4, lr}
 8005aea:	4802      	ldr	r0, [pc, #8]	; (8005af4 <DMA1_Channel1_IRQHandler+0xc>)
 8005aec:	f7fb f936 	bl	8000d5c <HAL_DMA_IRQHandler>
 8005af0:	bd10      	pop	{r4, pc}
 8005af2:	46c0      	nop			; (mov r8, r8)
 8005af4:	20000454 	.word	0x20000454

08005af8 <DMA1_Channel4_5_IRQHandler>:
 8005af8:	b510      	push	{r4, lr}
 8005afa:	4804      	ldr	r0, [pc, #16]	; (8005b0c <DMA1_Channel4_5_IRQHandler+0x14>)
 8005afc:	f7fb f92e 	bl	8000d5c <HAL_DMA_IRQHandler>
 8005b00:	f7fe ffde 	bl	8004ac0 <transferComplete>
 8005b04:	2200      	movs	r2, #0
 8005b06:	4b02      	ldr	r3, [pc, #8]	; (8005b10 <DMA1_Channel4_5_IRQHandler+0x18>)
 8005b08:	625a      	str	r2, [r3, #36]	; 0x24
 8005b0a:	bd10      	pop	{r4, pc}
 8005b0c:	20000388 	.word	0x20000388
 8005b10:	40014400 	.word	0x40014400

08005b14 <ADC1_COMP_IRQHandler>:
 8005b14:	b510      	push	{r4, lr}
 8005b16:	4803      	ldr	r0, [pc, #12]	; (8005b24 <ADC1_COMP_IRQHandler+0x10>)
 8005b18:	f7fa fe46 	bl	80007a8 <HAL_ADC_IRQHandler>
 8005b1c:	4802      	ldr	r0, [pc, #8]	; (8005b28 <ADC1_COMP_IRQHandler+0x14>)
 8005b1e:	f7fb f825 	bl	8000b6c <HAL_COMP_IRQHandler>
 8005b22:	bd10      	pop	{r4, pc}
 8005b24:	20000498 	.word	0x20000498
 8005b28:	20000210 	.word	0x20000210

08005b2c <TIM16_IRQHandler>:
 8005b2c:	b510      	push	{r4, lr}
 8005b2e:	4802      	ldr	r0, [pc, #8]	; (8005b38 <TIM16_IRQHandler+0xc>)
 8005b30:	f7fc fd70 	bl	8002614 <HAL_TIM_IRQHandler>
 8005b34:	bd10      	pop	{r4, pc}
 8005b36:	46c0      	nop			; (mov r8, r8)
 8005b38:	200004e4 	.word	0x200004e4

08005b3c <SystemInit>:
 8005b3c:	2101      	movs	r1, #1
 8005b3e:	4b11      	ldr	r3, [pc, #68]	; (8005b84 <SystemInit+0x48>)
 8005b40:	4811      	ldr	r0, [pc, #68]	; (8005b88 <SystemInit+0x4c>)
 8005b42:	681a      	ldr	r2, [r3, #0]
 8005b44:	430a      	orrs	r2, r1
 8005b46:	601a      	str	r2, [r3, #0]
 8005b48:	685a      	ldr	r2, [r3, #4]
 8005b4a:	4002      	ands	r2, r0
 8005b4c:	605a      	str	r2, [r3, #4]
 8005b4e:	681a      	ldr	r2, [r3, #0]
 8005b50:	480e      	ldr	r0, [pc, #56]	; (8005b8c <SystemInit+0x50>)
 8005b52:	4002      	ands	r2, r0
 8005b54:	601a      	str	r2, [r3, #0]
 8005b56:	681a      	ldr	r2, [r3, #0]
 8005b58:	480d      	ldr	r0, [pc, #52]	; (8005b90 <SystemInit+0x54>)
 8005b5a:	4002      	ands	r2, r0
 8005b5c:	601a      	str	r2, [r3, #0]
 8005b5e:	685a      	ldr	r2, [r3, #4]
 8005b60:	480c      	ldr	r0, [pc, #48]	; (8005b94 <SystemInit+0x58>)
 8005b62:	4002      	ands	r2, r0
 8005b64:	200f      	movs	r0, #15
 8005b66:	605a      	str	r2, [r3, #4]
 8005b68:	6ada      	ldr	r2, [r3, #44]	; 0x2c
 8005b6a:	4382      	bics	r2, r0
 8005b6c:	62da      	str	r2, [r3, #44]	; 0x2c
 8005b6e:	6b1a      	ldr	r2, [r3, #48]	; 0x30
 8005b70:	4809      	ldr	r0, [pc, #36]	; (8005b98 <SystemInit+0x5c>)
 8005b72:	4002      	ands	r2, r0
 8005b74:	631a      	str	r2, [r3, #48]	; 0x30
 8005b76:	6b5a      	ldr	r2, [r3, #52]	; 0x34
 8005b78:	438a      	bics	r2, r1
 8005b7a:	635a      	str	r2, [r3, #52]	; 0x34
 8005b7c:	2200      	movs	r2, #0
 8005b7e:	609a      	str	r2, [r3, #8]
 8005b80:	4770      	bx	lr
 8005b82:	46c0      	nop			; (mov r8, r8)
 8005b84:	40021000 	.word	0x40021000
 8005b88:	f8ffb80c 	.word	0xf8ffb80c
 8005b8c:	fef6ffff 	.word	0xfef6ffff
 8005b90:	fffbffff 	.word	0xfffbffff
 8005b94:	ffc0ffff 	.word	0xffc0ffff
 8005b98:	fffffeac 	.word	0xfffffeac

08005b9c <Reset_Handler>:
 8005b9c:	480d      	ldr	r0, [pc, #52]	; (8005bd4 <LoopForever+0x2>)
 8005b9e:	4685      	mov	sp, r0
 8005ba0:	480d      	ldr	r0, [pc, #52]	; (8005bd8 <LoopForever+0x6>)
 8005ba2:	490e      	ldr	r1, [pc, #56]	; (8005bdc <LoopForever+0xa>)
 8005ba4:	4a0e      	ldr	r2, [pc, #56]	; (8005be0 <LoopForever+0xe>)
 8005ba6:	2300      	movs	r3, #0
 8005ba8:	e002      	b.n	8005bb0 <LoopCopyDataInit>

08005baa <CopyDataInit>:
 8005baa:	58d4      	ldr	r4, [r2, r3]
 8005bac:	50c4      	str	r4, [r0, r3]
 8005bae:	3304      	adds	r3, #4

08005bb0 <LoopCopyDataInit>:
 8005bb0:	18c4      	adds	r4, r0, r3
 8005bb2:	428c      	cmp	r4, r1
 8005bb4:	d3f9      	bcc.n	8005baa <CopyDataInit>
 8005bb6:	4a0b      	ldr	r2, [pc, #44]	; (8005be4 <LoopForever+0x12>)
 8005bb8:	4c0b      	ldr	r4, [pc, #44]	; (8005be8 <LoopForever+0x16>)
 8005bba:	2300      	movs	r3, #0
 8005bbc:	e001      	b.n	8005bc2 <LoopFillZerobss>

08005bbe <FillZerobss>:
 8005bbe:	6013      	str	r3, [r2, #0]
 8005bc0:	3204      	adds	r2, #4

08005bc2 <LoopFillZerobss>:
 8005bc2:	42a2      	cmp	r2, r4
 8005bc4:	d3fb      	bcc.n	8005bbe <FillZerobss>
 8005bc6:	f7ff ffb9 	bl	8005b3c <SystemInit>
 8005bca:	f000 f811 	bl	8005bf0 <__libc_init_array>
 8005bce:	f7ff f883 	bl	8004cd8 <main>

08005bd2 <LoopForever>:
 8005bd2:	e7fe      	b.n	8005bd2 <LoopForever>
 8005bd4:	20002000 	.word	0x20002000
 8005bd8:	20000000 	.word	0x20000000
 8005bdc:	20000064 	.word	0x20000064
 8005be0:	08005cb4 	.word	0x08005cb4
 8005be4:	20000068 	.word	0x20000068
 8005be8:	20000524 	.word	0x20000524

08005bec <CEC_CAN_IRQHandler>:
 8005bec:	e7fe      	b.n	8005bec <CEC_CAN_IRQHandler>
	...

08005bf0 <__libc_init_array>:
 8005bf0:	b570      	push	{r4, r5, r6, lr}
 8005bf2:	2600      	movs	r6, #0
 8005bf4:	4d0c      	ldr	r5, [pc, #48]	; (8005c28 <__libc_init_array+0x38>)
 8005bf6:	4c0d      	ldr	r4, [pc, #52]	; (8005c2c <__libc_init_array+0x3c>)
 8005bf8:	1b64      	subs	r4, r4, r5
 8005bfa:	10a4      	asrs	r4, r4, #2
 8005bfc:	42a6      	cmp	r6, r4
 8005bfe:	d109      	bne.n	8005c14 <__libc_init_array+0x24>
 8005c00:	2600      	movs	r6, #0
 8005c02:	f000 f821 	bl	8005c48 <_init>
 8005c06:	4d0a      	ldr	r5, [pc, #40]	; (8005c30 <__libc_init_array+0x40>)
 8005c08:	4c0a      	ldr	r4, [pc, #40]	; (8005c34 <__libc_init_array+0x44>)
 8005c0a:	1b64      	subs	r4, r4, r5
 8005c0c:	10a4      	asrs	r4, r4, #2
 8005c0e:	42a6      	cmp	r6, r4
 8005c10:	d105      	bne.n	8005c1e <__libc_init_array+0x2e>
 8005c12:	bd70      	pop	{r4, r5, r6, pc}
 8005c14:	00b3      	lsls	r3, r6, #2
 8005c16:	58eb      	ldr	r3, [r5, r3]
 8005c18:	4798      	blx	r3
 8005c1a:	3601      	adds	r6, #1
 8005c1c:	e7ee      	b.n	8005bfc <__libc_init_array+0xc>
 8005c1e:	00b3      	lsls	r3, r6, #2
 8005c20:	58eb      	ldr	r3, [r5, r3]
 8005c22:	4798      	blx	r3
 8005c24:	3601      	adds	r6, #1
 8005c26:	e7f2      	b.n	8005c0e <__libc_init_array+0x1e>
 8005c28:	08005cac 	.word	0x08005cac
 8005c2c:	08005cac 	.word	0x08005cac
 8005c30:	08005cac 	.word	0x08005cac
 8005c34:	08005cb0 	.word	0x08005cb0

08005c38 <memset>:
 8005c38:	0003      	movs	r3, r0
 8005c3a:	1882      	adds	r2, r0, r2
 8005c3c:	4293      	cmp	r3, r2
 8005c3e:	d100      	bne.n	8005c42 <memset+0xa>
 8005c40:	4770      	bx	lr
 8005c42:	7019      	strb	r1, [r3, #0]
 8005c44:	3301      	adds	r3, #1
 8005c46:	e7f9      	b.n	8005c3c <memset+0x4>

08005c48 <_init>:
 8005c48:	b5f8      	push	{r3, r4, r5, r6, r7, lr}
 8005c4a:	46c0      	nop			; (mov r8, r8)
 8005c4c:	bcf8      	pop	{r3, r4, r5, r6, r7}
 8005c4e:	bc08      	pop	{r3}
 8005c50:	469e      	mov	lr, r3
 8005c52:	4770      	bx	lr

08005c54 <_fini>:
 8005c54:	b5f8      	push	{r3, r4, r5, r6, r7, lr}
 8005c56:	46c0      	nop			; (mov r8, r8)
 8005c58:	bcf8      	pop	{r3, r4, r5, r6, r7}
 8005c5a:	bc08      	pop	{r3}
 8005c5c:	469e      	mov	lr, r3
 8005c5e:	4770      	bx	lr
